###############################################################################
#                                                                             #
# IAR C/C++ Compiler V8.10.3.10338/W32 for 8051         25/Jan/2016  16:03:35 #
# Copyright 2004-2011 IAR Systems AB.                                         #
#                                                                             #
#    Core               =  plain                                              #
#    Code model         =  banked                                             #
#    Data model         =  large                                              #
#    Calling convention =  xdata reentrant                                    #
#    Constant location  =  data_rom                                           #
#    Dptr setup         =  1,16                                               #
#    Source file        =  E:\Work Codes\ZigBee\Network\Projects\zstack\Sampl #
#                          es\TestApp\Source\TestApp.c                        #
#    Command line       =  -f "E:\Work Codes\ZigBee\Network\Projects\zstack\S #
#                          amples\TestApp\CC2530DB\..\..\..\Tools\CC2530DB\f8 #
#                          wCoord.cfg" (-DCPU32MHZ -DROOT=__near_func         #
#                          -DMAC_CFG_APP_PENDING_QUEUE=TRUE                   #
#                          -DZDO_COORDINATOR -DRTR_NWK -DBLINK_LEDS) -f       #
#                          "E:\Work Codes\ZigBee\Network\Projects\zstack\Samp #
#                          les\TestApp\CC2530DB\..\..\..\Tools\CC2530DB\f8wCo #
#                          nfig.cfg" (-DSECURE=0 -DZG_SECURE_DYNAMIC=0        #
#                          -DREFLECTOR -DDEFAULT_CHANLIST=0x00000800          #
#                          -DZDAPP_CONFIG_PAN_ID=0xFFFB                       #
#                          -DNWK_START_DELAY=100 -DEXTENDED_JOINING_RANDOM_MA #
#                          SK=0x007F -DBEACON_REQUEST_DELAY=100               #
#                          -DBEACON_REQ_DELAY_MASK=0x00FF                     #
#                          -DROUTE_EXPIRY_TIME=30 -DAPSC_ACK_WAIT_DURATION_PO #
#                          LLED=3000 -DNWK_INDIRECT_MSG_TIMEOUT=7             #
#                          -DMAX_RREQ_ENTRIES=8 -DAPSC_MAX_FRAME_RETRIES=3    #
#                          -DNWK_MAX_DATA_RETRIES=2                           #
#                          -DMAX_POLL_FAILURE_RETRIES=2 -DMAX_BCAST=9         #
#                          -DAPS_MAX_GROUPS=16 -DMAX_RTG_ENTRIES=40           #
#                          -DNWK_MAX_BINDING_ENTRIES=4                        #
#                          -DMAX_BINDING_CLUSTER_IDS=4 "-DDEFAULT_KEY={0x01,  #
#                          0x03, 0x05, 0x07, 0x09, 0x0B, 0x0D, 0x0F, 0x00,    #
#                          0x02, 0x04, 0x06, 0x08, 0x0A, 0x0C, 0x0D}"         #
#                          -DMAC_MAX_FRAME_SIZE=116 "-DCONST=const __code"    #
#                          -DGENERIC=__generic -DRFD_RCVC_ALWAYS_ON=FALSE     #
#                          -DPOLL_RATE=1000 -DQUEUED_POLL_RATE=100            #
#                          -DRESPONSE_POLL_RATE=100) -DREJOIN_POLL_RATE=440   #
#                          "E:\Work Codes\ZigBee\Network\Projects\zstack\Samp #
#                          les\TestApp\Source\TestApp.c" -D ZTOOL_P1 -D       #
#                          xMT_TASK -D xMT_SYS_FUNC -D xMT_ZDO_FUNC -D        #
#                          LCD_SUPPORTED=DEBUG -lC "E:\Work                   #
#                          Codes\ZigBee\Network\Projects\zstack\Samples\TestA #
#                          pp\CC2530DB\CoordinatorEB\List\" -lA "E:\Work      #
#                          Codes\ZigBee\Network\Projects\zstack\Samples\TestA #
#                          pp\CC2530DB\CoordinatorEB\List\" --diag_suppress   #
#                          Pe001,Pa010 -o "E:\Work Codes\ZigBee\Network\Proje #
#                          cts\zstack\Samples\TestApp\CC2530DB\CoordinatorEB\ #
#                          Obj\" -e --debug --core=plain --dptr=16,1          #
#                          --data_model=large --code_model=banked             #
#                          --calling_convention=xdata_reentrant               #
#                          --place_constants=data_rom --nr_virtual_regs 16    #
#                          -I "E:\Work Codes\ZigBee\Network\Projects\zstack\S #
#                          amples\TestApp\CC2530DB\" -I "E:\Work              #
#                          Codes\ZigBee\Network\Projects\zstack\Samples\TestA #
#                          pp\CC2530DB\..\SOURCE\" -I "E:\Work                #
#                          Codes\ZigBee\Network\Projects\zstack\Samples\TestA #
#                          pp\CC2530DB\..\..\..\ZMAIN\TI2530DB\" -I "E:\Work  #
#                          Codes\ZigBee\Network\Projects\zstack\Samples\TestA #
#                          pp\CC2530DB\..\..\..\..\..\COMPONENTS\MT\" -I      #
#                          "E:\Work Codes\ZigBee\Network\Projects\zstack\Samp #
#                          les\TestApp\CC2530DB\..\..\..\..\..\COMPONENTS\HAL #
#                          \INCLUDE\" -I "E:\Work Codes\ZigBee\Network\Projec #
#                          ts\zstack\Samples\TestApp\CC2530DB\..\..\..\..\..\ #
#                          COMPONENTS\HAL\TARGET\CC2530EB\" -I "E:\Work       #
#                          Codes\ZigBee\Network\Projects\zstack\Samples\TestA #
#                          pp\CC2530DB\..\..\..\..\..\COMPONENTS\OSAL\MCU\CCS #
#                          OC\" -I "E:\Work Codes\ZigBee\Network\Projects\zst #
#                          ack\Samples\TestApp\CC2530DB\..\..\..\..\..\COMPON #
#                          ENTS\OSAL\INCLUDE\" -I "E:\Work                    #
#                          Codes\ZigBee\Network\Projects\zstack\Samples\TestA #
#                          pp\CC2530DB\..\..\..\..\..\COMPONENTS\STACK\AF\"   #
#                          -I "E:\Work Codes\ZigBee\Network\Projects\zstack\S #
#                          amples\TestApp\CC2530DB\..\..\..\..\..\COMPONENTS\ #
#                          STACK\NWK\" -I "E:\Work Codes\ZigBee\Network\Proje #
#                          cts\zstack\Samples\TestApp\CC2530DB\..\..\..\..\.. #
#                          \COMPONENTS\STACK\SEC\" -I "E:\Work                #
#                          Codes\ZigBee\Network\Projects\zstack\Samples\TestA #
#                          pp\CC2530DB\..\..\..\..\..\COMPONENTS\STACK\SAPI\" #
#                           -I "E:\Work Codes\ZigBee\Network\Projects\zstack\ #
#                          Samples\TestApp\CC2530DB\..\..\..\..\..\COMPONENTS #
#                          \STACK\SYS\" -I "E:\Work                           #
#                          Codes\ZigBee\Network\Projects\zstack\Samples\TestA #
#                          pp\CC2530DB\..\..\..\..\..\COMPONENTS\STACK\ZDO\"  #
#                          -I "E:\Work Codes\ZigBee\Network\Projects\zstack\S #
#                          amples\TestApp\CC2530DB\..\..\..\..\..\COMPONENTS\ #
#                          ZMAC\F8W\" -I "E:\Work Codes\ZigBee\Network\Projec #
#                          ts\zstack\Samples\TestApp\CC2530DB\..\..\..\..\..\ #
#                          COMPONENTS\ZMAC\" -I "E:\Work                      #
#                          Codes\ZigBee\Network\Projects\zstack\Samples\TestA #
#                          pp\CC2530DB\..\..\..\..\..\COMPONENTS\SERVICES\SAD #
#                          DR\" -I "E:\Work Codes\ZigBee\Network\Projects\zst #
#                          ack\Samples\TestApp\CC2530DB\..\..\..\..\..\COMPON #
#                          ENTS\SERVICES\SDATA\" -I "E:\Work                  #
#                          Codes\ZigBee\Network\Projects\zstack\Samples\TestA #
#                          pp\CC2530DB\..\..\..\..\..\COMPONENTS\MAC\INCLUDE\ #
#                          " -I "E:\Work Codes\ZigBee\Network\Projects\zstack #
#                          \Samples\TestApp\CC2530DB\..\..\..\..\..\COMPONENT #
#                          S\MAC\HIGH_LEVEL\" -I "E:\Work                     #
#                          Codes\ZigBee\Network\Projects\zstack\Samples\TestA #
#                          pp\CC2530DB\..\..\..\..\..\COMPONENTS\MAC\LOW_LEVE #
#                          L\srf04\" -I "E:\Work Codes\ZigBee\Network\Project #
#                          s\zstack\Samples\TestApp\CC2530DB\..\..\..\..\..\C #
#                          OMPONENTS\MAC\LOW_LEVEL\srf04\SINGLE_CHIP\" -Ohz   #
#                          --require_prototypes                               #
#    List file          =  E:\Work Codes\ZigBee\Network\Projects\zstack\Sampl #
#                          es\TestApp\CC2530DB\CoordinatorEB\List\TestApp.lst #
#    Object file        =  E:\Work Codes\ZigBee\Network\Projects\zstack\Sampl #
#                          es\TestApp\CC2530DB\CoordinatorEB\Obj\TestApp.r51  #
#                                                                             #
#                                                                             #
###############################################################################

E:\Work Codes\ZigBee\Network\Projects\zstack\Samples\TestApp\Source\TestApp.c
      1          /**************************************************************************************************
      2            Filename:       TestApp.c
      3            Revised:        $Date: 2009-03-18 15:56:27 -0700 (Wed, 18 Mar 2009) $
      4            Revision:       $Revision: 19453 $
      5          
      6            Description:    Generic Application (no Profile).
      7          
      8          
      9            Copyright 2004-2009 Texas Instruments Incorporated. All rights reserved.
     10          
     11            IMPORTANT: Your use of this Software is limited to those specific rights
     12            granted under the terms of a software license agreement between the user
     13            who downloaded the software, his/her employer (which must be your employer)
     14            and Texas Instruments Incorporated (the "License").  You may not use this
     15            Software unless you agree to abide by the terms of the License. The License
     16            limits your use, and you acknowledge, that the Software may not be modified,
     17            copied or distributed unless embedded on a Texas Instruments microcontroller
     18            or used solely and exclusively in conjunction with a Texas Instruments radio
     19            frequency transceiver, which is integrated into your product.  Other than for
     20            the foregoing purpose, you may not use, reproduce, copy, prepare derivative
     21            works of, modify, distribute, perform, display or sell this Software and/or
     22            its documentation for any purpose.
     23          
     24            YOU FURTHER ACKNOWLEDGE AND AGREE THAT THE SOFTWARE AND DOCUMENTATION ARE
     25            PROVIDED AS IS?WITHOUT WARRANTY OF ANY KIND, EITHER EXPRESS OR IMPLIED, 
     26            INCLUDING WITHOUT LIMITATION, ANY WARRANTY OF MERCHANTABILITY, TITLE, 
     27            NON-INFRINGEMENT AND FITNESS FOR A PARTICULAR PURPOSE. IN NO EVENT SHALL
     28            TEXAS INSTRUMENTS OR ITS LICENSORS BE LIABLE OR OBLIGATED UNDER CONTRACT,
     29            NEGLIGENCE, STRICT LIABILITY, CONTRIBUTION, BREACH OF WARRANTY, OR OTHER
     30            LEGAL EQUITABLE THEORY ANY DIRECT OR INDIRECT DAMAGES OR EXPENSES
     31            INCLUDING BUT NOT LIMITED TO ANY INCIDENTAL, SPECIAL, INDIRECT, PUNITIVE
     32            OR CONSEQUENTIAL DAMAGES, LOST PROFITS OR LOST DATA, COST OF PROCUREMENT
     33            OF SUBSTITUTE GOODS, TECHNOLOGY, SERVICES, OR ANY CLAIMS BY THIRD PARTIES
     34            (INCLUDING BUT NOT LIMITED TO ANY DEFENSE THEREOF), OR OTHER SIMILAR COSTS.
     35          
     36            Should you have any questions regarding your right to use this Software,
     37            contact Texas Instruments Incorporated at www.TI.com. 
     38          **************************************************************************************************/
     39          
     40          /*********************************************************************
     41            This application isn't intended to do anything useful, it is
     42            intended to be a simple example of an application's structure.
     43          
     44            This application sends "Hello World" to another "Generic"
     45            application every 15 seconds.  The application will also
     46            receive "Hello World" packets.
     47          
     48            The "Hello World" messages are sent/received as MSG type message.
     49          
     50            This applications doesn't have a profile, so it handles everything
     51            directly - itself.
     52          
     53            Key control:
     54              SW1:
     55              SW2:  initiates end device binding
     56              SW3:
     57              SW4:  initiates a match description request
     58          *********************************************************************/
     59          
     60          /*********************************************************************
     61           * INCLUDES
     62           */
     63          #include "OSAL.h"
     64          #include "AF.h"
     65          #include "ZDApp.h"
     66          #include "ZDObject.h"
     67          #include "ZDProfile.h"
     68          #include "aps_groups.h"
     69          
     70          #include "TestApp.h"
     71          #include "DebugTrace.h"
     72          
     73          #if !defined( WIN32 )
     74            #include "OnBoard.h"
     75          #endif
     76          
     77          /* HAL */
     78          #include "hal_lcd.h"
     79          #include "hal_led.h"
     80          #include "hal_key.h"
     81          #include "hal_uart.h"
     82          
     83          #include "mt_uart.h"
     84          
     85          #include "stdlib.h"
     86          #include "string.h"
     87          
     88          #if defined ( DHT11 )
     89          	#include "dht11.h"
     90          #elif defined ( DS18B20 )
     91          	#include "ds18b20.h"
     92          #endif
     93          
     94          
     95          /*********************************************************************
     96           * MACROS
     97           */
     98          
     99          /*********************************************************************
    100           * CONSTANTS
    101           */
    102          
    103          /*********************************************************************
    104           * TYPEDEFS
    105           */
    106          
    107          /*********************************************************************
    108           * GLOBAL VARIABLES
    109           */

   \                                 In  segment XDATA_Z, align 1, keep-with-next
    110          uint8 Dht11Data[6];
   \                     Dht11Data:
   \   000000                DS 6
   \   000006                REQUIRE __INIT_XDATA_Z
    111          
    112          // This list should be filled with Application specific Cluster IDs.

   \                                 In  segment XDATA_ROM_C, align 1
    113          const cId_t TestApp_ClusterList[TESTAPP_MAX_CLUSTERS] =
   \                     TestApp_ClusterList:
   \   000000   0100         DW 1
   \   000002   0200         DW 2
    114          {
    115            TESTAPP_CLUSTERID,
    116          	TESTAPP_PERIODIC_CLUSTERID
    117          };
    118          

   \                                 In  segment XDATA_ROM_C, align 1
    119          const SimpleDescriptionFormat_t TestApp_SimpleDesc =
   \                     TestApp_SimpleDesc:
   \   000000   0A           DB 10
   \   000001   040F         DW 3844
   \   000003   0100         DW 1
   \   000005   00           DB 0
   \   000006   02           DB 2
   \   000007   ....         DW TestApp_ClusterList
   \   000009   02           DB 2
   \   00000A   ....         DW TestApp_ClusterList
    120          {
    121            TESTAPP_ENDPOINT,              //  int Endpoint;
    122            TESTAPP_PROFID,                //  uint16 AppProfId[2];
    123            TESTAPP_DEVICEID,              //  uint16 AppDeviceId[2];
    124            TESTAPP_DEVICE_VERSION,        //  int   AppDevVer:4;
    125            TESTAPP_FLAGS,                 //  int   AppFlags:4;
    126            TESTAPP_MAX_CLUSTERS,          //  byte  AppNumInClusters;
    127            (cId_t *)TestApp_ClusterList,  //  byte *pAppInClusterList;
    128            TESTAPP_MAX_CLUSTERS,          //  byte  AppNumOutClusters;
    129            (cId_t *)TestApp_ClusterList   //  byte *pAppOutClusterList;
    130          };
    131          
    132          // This is the Endpoint/Interface description.  It is defined here, but
    133          // filled-in in TestApp_Init().  Another way to go would be to fill
    134          // in the structure here and make it a "const" (in code space).  The
    135          // way it's defined in this sample app it is define in RAM.

   \                                 In  segment XDATA_Z, align 1, keep-with-next
    136          endPointDesc_t TestApp_epDesc;
   \                     TestApp_epDesc:
   \   000000                DS 6
   \   000006                REQUIRE __INIT_XDATA_Z
    137          
    138          /*********************************************************************
    139           * EXTERNAL VARIABLES
    140           */
    141          
    142          /*********************************************************************
    143           * EXTERNAL FUNCTIONS
    144           */
    145          
    146          /*********************************************************************
    147           * LOCAL VARIABLES
    148           */

   \                                 In  segment XDATA_Z, align 1, keep-with-next
    149          byte TestApp_TaskID;   // Task ID for internal task/event processing
   \                     TestApp_TaskID:
   \   000000                DS 1
   \   000001                REQUIRE __INIT_XDATA_Z
    150                                    // This variable will be received when
    151                                    // TestApp_Init() is called.

   \                                 In  segment XDATA_Z, align 1, keep-with-next
    152          devStates_t TestApp_NwkState;
   \                     TestApp_NwkState:
   \   000000                DS 1
   \   000001                REQUIRE __INIT_XDATA_Z
    153          
    154          

   \                                 In  segment XDATA_Z, align 1, keep-with-next
    155          byte TestApp_TransID;  // This is the unique message ID (counter)
   \                     TestApp_TransID:
   \   000000                DS 1
   \   000001                REQUIRE __INIT_XDATA_Z
    156          

   \                                 In  segment XDATA_Z, align 1, keep-with-next
    157          afAddrType_t TestApp_DstAddr;						// 用于单播
   \                     TestApp_DstAddr:
   \   000000                DS 12
   \   00000C                REQUIRE __INIT_XDATA_Z

   \                                 In  segment XDATA_Z, align 1, keep-with-next
    158          afAddrType_t TestApp_Periodic_DstAddr;	// 用于周期性广播
   \                     TestApp_Periodic_DstAddr:
   \   000000                DS 12
   \   00000C                REQUIRE __INIT_XDATA_Z

   \                                 In  segment XDATA_Z, align 1, keep-with-next
    159          afAddrType_t TestApp_Flash_DstAddr;			// 用于组播
   \                     TestApp_Flash_DstAddr:
   \   000000                DS 12
   \   00000C                REQUIRE __INIT_XDATA_Z
    160          

   \                                 In  segment XDATA_Z, align 1, keep-with-next
    161          aps_Group_t TestApp_Group;	//  用于组播
   \                     TestApp_Group:
   \   000000                DS 18
   \   000012                REQUIRE __INIT_XDATA_Z
    162          
    163          /*********************************************************************
    164           * LOCAL FUNCTIONS
    165           */
    166          void TestApp_ProcessZDOMsgs( zdoIncomingMsg_t *inMsg );
    167          void TestApp_HandleKeys( byte shift, byte keys );
    168          void TestApp_MessageMSGCB( afIncomingMSGPacket_t *pckt );
    169          void TestApp_SendTheMessage( void );
    170          void TestApp_SendPeriodicDHT11Message(void);
    171          void TestApp_SendPeriodicDS18B20Message(void);
    172          uint8 TestApp_GetDHT11SensorData(void);
    173          
    174          /*********************************************************************
    175           * NETWORK LAYER CALLBACKS
    176           */
    177          
    178          /*********************************************************************
    179           * PUBLIC FUNCTIONS
    180           */
    181          
    182          /*********************************************************************
    183           * @fn      TestApp_Init
    184           *
    185           * @brief   Initialization function for the Generic App Task.
    186           *          This is called during initialization and should contain
    187           *          any application specific initialization (ie. hardware
    188           *          initialization/setup, table initialization, power up
    189           *          notificaiton ... ).
    190           *
    191           * @param   task_id - the ID assigned by OSAL.  This ID should be
    192           *                    used to send messages and set timers.
    193           *
    194           * @return  none
    195           */

   \                                 In  segment BANKED_CODE, align 1, keep-with-next
    196          void TestApp_Init( byte task_id )
   \                     TestApp_Init:
    197          {
   \   000000   74F5         MOV     A,#-0xb
   \   000002   12....       LCALL   ?BANKED_ENTER_XDATA
   \   000005                ; Saved register size: 11
   \   000005                ; Auto size: 0
   \   000005   E9           MOV     A,R1
   \   000006   FE           MOV     R6,A
    198            TestApp_TaskID = task_id;
   \   000007   90....       MOV     DPTR,#TestApp_TaskID
   \   00000A   F0           MOVX    @DPTR,A
    199            TestApp_NwkState = DEV_INIT;
   \   00000B   90....       MOV     DPTR,#TestApp_NwkState
   \   00000E   7401         MOV     A,#0x1
   \   000010   F0           MOVX    @DPTR,A
    200            TestApp_TransID = 0;
   \   000011   90....       MOV     DPTR,#TestApp_TransID
   \   000014   E4           CLR     A
   \   000015   F0           MOVX    @DPTR,A
    201          	
    202          	// By default, all devices start out in Group 1
    203          	// Initialization Group -- Group ID and name
    204          	TestApp_Group.ID = 0x0003;
   \   000016   90....       MOV     DPTR,#TestApp_Group
   \   000019   7403         MOV     A,#0x3
   \   00001B   F0           MOVX    @DPTR,A
   \   00001C   A3           INC     DPTR
   \   00001D   E4           CLR     A
   \   00001E   F0           MOVX    @DPTR,A
    205          	osal_memcpy( TestApp_Group.name, "Group 3", 7 );
   \   00001F                ; Setup parameters for call to function osal_memcpy
   \   00001F   75....       MOV     ?V0 + 0,#`?<Constant "Group 3">` & 0xff
   \   000022   75....       MOV     ?V0 + 1,#(`?<Constant "Group 3">` >> 8) & 0xff
   \   000025   F5..         MOV     ?V0 + 2,A
   \   000027   78..         MOV     R0,#?V0 + 0
   \   000029   12....       LCALL   ?PUSH_XSTACK_I_THREE
   \   00002C   7C07         MOV     R4,#0x7
   \   00002E   7D00         MOV     R5,#0x0
   \   000030   7A..         MOV     R2,#(TestApp_Group + 2) & 0xff
   \   000032   7B..         MOV     R3,#((TestApp_Group + 2) >> 8) & 0xff
   \   000034   12....       LCALL   ??osal_memcpy?relay
   \   000037   7403         MOV     A,#0x3
   \   000039   12....       LCALL   ?DEALLOC_XSTACK8
    206          	// Add endpoint to the Group on the task
    207          	// 在本任务里将端点加入到组中
    208          	aps_AddGroup( TESTAPP_ENDPOINT, &TestApp_Group );
   \   00003C                ; Setup parameters for call to function aps_AddGroup
   \   00003C   7A..         MOV     R2,#TestApp_Group & 0xff
   \   00003E   7B..         MOV     R3,#(TestApp_Group >> 8) & 0xff
   \   000040   790A         MOV     R1,#0xa
   \   000042   12....       LCALL   ??aps_AddGroup?relay
    209          	
    210            // Device hardware initialization can be added here or in main() (Zmain.c).
    211            // If the hardware is application specific - add it here.
    212            // If the hardware is other parts of the device add it in main().
    213          
    214            MT_UartInit();
   \   000045                ; Setup parameters for call to function MT_UartInit
   \   000045   12....       LCALL   ??MT_UartInit?relay
    215            MT_UartRegisterTaskID(task_id);
   \   000048                ; Setup parameters for call to function MT_UartRegisterTaskID
   \   000048   EE           MOV     A,R6
   \   000049   F9           MOV     R1,A
   \   00004A   12....       LCALL   ??MT_UartRegisterTaskID?relay
    216            HalUARTWrite(0, "UartInit OK\n", sizeof("UartInit OK\n"));
   \   00004D                ; Setup parameters for call to function HalUARTWrite
   \   00004D   7C0D         MOV     R4,#0xd
   \   00004F   7D00         MOV     R5,#0x0
   \   000051   7A..         MOV     R2,#`?<Constant "UartInit OK\\n">` & 0xff
   \   000053   7B..         MOV     R3,#(`?<Constant "UartInit OK\\n">` >> 8) & 0xff
   \   000055   7900         MOV     R1,#0x0
   \   000057   12....       LCALL   ??HalUARTWrite?relay
    217            
    218            
    219          	// TestApp_DstAddr 的类型为 afAddrType_t，通过该结构体指定的地址将通过 OTA 层 
    220          	// 直接发送至指定的设备，主要是用于数据发送时对地址的要求
    221          	
    222          	// AddrNotPresent 按照绑定的方式进行单播
    223            TestApp_DstAddr.addrMode = (afAddrMode_t)AddrNotPresent;
   \   00005A   90....       MOV     DPTR,#TestApp_DstAddr + 8
   \   00005D   E4           CLR     A
   \   00005E   F0           MOVX    @DPTR,A
    224            TestApp_DstAddr.endPoint = 0;
   \   00005F   A3           INC     DPTR
   \   000060   F0           MOVX    @DPTR,A
    225            TestApp_DstAddr.addr.shortAddr = 0;
   \   000061   90....       MOV     DPTR,#TestApp_DstAddr
   \   000064   F0           MOVX    @DPTR,A
   \   000065   A3           INC     DPTR
   \   000066   F0           MOVX    @DPTR,A
    226          	
    227          	// AddrBroadcast 广播给所有设备，包括睡眠的设备
    228          	TestApp_Periodic_DstAddr.addrMode = (afAddrMode_t)AddrBroadcast;
   \   000067   90....       MOV     DPTR,#TestApp_Periodic_DstAddr + 8
   \   00006A   740F         MOV     A,#0xf
   \   00006C   F0           MOVX    @DPTR,A
    229          	TestApp_Periodic_DstAddr.endPoint = TESTAPP_ENDPOINT;
   \   00006D   A3           INC     DPTR
   \   00006E   740A         MOV     A,#0xa
   \   000070   F0           MOVX    @DPTR,A
    230          	TestApp_Periodic_DstAddr.addr.shortAddr = 0xFFFF;
   \   000071   90....       MOV     DPTR,#TestApp_Periodic_DstAddr
   \   000074   74FF         MOV     A,#-0x1
   \   000076   F0           MOVX    @DPTR,A
   \   000077   A3           INC     DPTR
   \   000078   F0           MOVX    @DPTR,A
    231          	TestApp_Periodic_DstAddr.panId = ZDAPP_CONFIG_PAN_ID;	// 0xFFFB
   \   000079   90....       MOV     DPTR,#TestApp_Periodic_DstAddr + 10
   \   00007C   74FB         MOV     A,#-0x5
   \   00007E   F0           MOVX    @DPTR,A
   \   00007F   A3           INC     DPTR
   \   000080   74FF         MOV     A,#-0x1
   \   000082   F0           MOVX    @DPTR,A
    232          	
    233          	// Setup for the flash command's destination address - Group 1
    234          	// afAddrGroup 组播给具有相同 Group ID 的设备
    235          	TestApp_Flash_DstAddr.addrMode = (afAddrMode_t)afAddrGroup;
   \   000083   90....       MOV     DPTR,#TestApp_Flash_DstAddr + 8
   \   000086   7401         MOV     A,#0x1
   \   000088   F0           MOVX    @DPTR,A
    236          	TestApp_Flash_DstAddr.endPoint = TESTAPP_ENDPOINT;
   \   000089   A3           INC     DPTR
   \   00008A   740A         MOV     A,#0xa
   \   00008C   F0           MOVX    @DPTR,A
    237          	TestApp_Flash_DstAddr.addr.shortAddr = TestApp_Group.ID;	// Group ID = 3
   \   00008D   90....       MOV     DPTR,#TestApp_Group
   \   000090   E0           MOVX    A,@DPTR
   \   000091   F8           MOV     R0,A
   \   000092   A3           INC     DPTR
   \   000093   E0           MOVX    A,@DPTR
   \   000094   F9           MOV     R1,A
   \   000095   90....       MOV     DPTR,#TestApp_Flash_DstAddr
   \   000098   E8           MOV     A,R0
   \   000099   F0           MOVX    @DPTR,A
   \   00009A   A3           INC     DPTR
   \   00009B   E9           MOV     A,R1
   \   00009C   F0           MOVX    @DPTR,A
    238          
    239            // Fill out the endpoint description.
    240            TestApp_epDesc.endPoint = TESTAPP_ENDPOINT;
   \   00009D   90....       MOV     DPTR,#TestApp_epDesc
   \   0000A0   740A         MOV     A,#0xa
   \   0000A2   F0           MOVX    @DPTR,A
    241            TestApp_epDesc.task_id = &TestApp_TaskID;
   \   0000A3   A3           INC     DPTR
   \   0000A4   74..         MOV     A,#TestApp_TaskID & 0xff
   \   0000A6   F0           MOVX    @DPTR,A
   \   0000A7   A3           INC     DPTR
   \   0000A8   74..         MOV     A,#(TestApp_TaskID >> 8) & 0xff
   \   0000AA   F0           MOVX    @DPTR,A
    242            TestApp_epDesc.simpleDesc
    243                      = (SimpleDescriptionFormat_t *)&TestApp_SimpleDesc;
   \   0000AB   A3           INC     DPTR
   \   0000AC   74..         MOV     A,#TestApp_SimpleDesc & 0xff
   \   0000AE   F0           MOVX    @DPTR,A
   \   0000AF   A3           INC     DPTR
   \   0000B0   74..         MOV     A,#(TestApp_SimpleDesc >> 8) & 0xff
   \   0000B2   F0           MOVX    @DPTR,A
    244            TestApp_epDesc.latencyReq = noLatencyReqs;
   \   0000B3   A3           INC     DPTR
   \   0000B4   E4           CLR     A
   \   0000B5   F0           MOVX    @DPTR,A
    245          
    246            // Register the endpoint description with the AF
    247            afRegister( &TestApp_epDesc );
   \   0000B6                ; Setup parameters for call to function afRegister
   \   0000B6   7A..         MOV     R2,#TestApp_epDesc & 0xff
   \   0000B8   7B..         MOV     R3,#(TestApp_epDesc >> 8) & 0xff
   \   0000BA   12....       LCALL   ??afRegister?relay
    248          
    249            // Register for all key events - This app will handle all key events
    250            RegisterForKeys( TestApp_TaskID );
   \   0000BD                ; Setup parameters for call to function RegisterForKeys
   \   0000BD   90....       MOV     DPTR,#TestApp_TaskID
   \   0000C0   E0           MOVX    A,@DPTR
   \   0000C1   F9           MOV     R1,A
   \   0000C2   12....       LCALL   ??RegisterForKeys?relay
    251          
    252            // Update the display
    253          #if defined ( LCD_SUPPORTED )
    254              HalLcdWriteString( "TestApp", HAL_LCD_LINE_1 );
   \   0000C5                ; Setup parameters for call to function HalLcdWriteString
   \   0000C5   7901         MOV     R1,#0x1
   \   0000C7   7A..         MOV     R2,#`?<Constant "TestApp">` & 0xff
   \   0000C9   7B..         MOV     R3,#(`?<Constant "TestApp">` >> 8) & 0xff
   \   0000CB   12....       LCALL   ??HalLcdWriteString?relay
    255          #endif
    256              
    257          //  ZDO_RegisterForZDOMsg( TestApp_TaskID, End_Device_Bind_rsp );
    258          //  ZDO_RegisterForZDOMsg( TestApp_TaskID, Match_Desc_rsp );
    259          }
   \   0000CE   7F03         MOV     R7,#0x3
   \   0000D0   02....       LJMP    ?BANKED_LEAVE_XDATA
    260          
    261          /*********************************************************************
    262           * @fn      TestApp_ProcessEvent
    263           *
    264           * @brief   Generic Application Task event processor.  This function
    265           *          is called to process all events for the task.  Events
    266           *          include timers, messages and any other user defined events.
    267           *
    268           * @param   task_id  - The OSAL assigned task ID.
    269           * @param   events - events to process.  This is a bit map and can
    270           *                   contain more than one event.
    271           *
    272           * @return  none
    273           */

   \                                 In  segment BANKED_CODE, align 1, keep-with-next
    274          UINT16 TestApp_ProcessEvent( byte task_id, UINT16 events )
   \                     TestApp_ProcessEvent:
    275          {
   \   000000   74F4         MOV     A,#-0xc
   \   000002   12....       LCALL   ?BANKED_ENTER_XDATA
   \   000005                ; Saved register size: 12
   \   000005                ; Auto size: 0
   \   000005   EA           MOV     A,R2
   \   000006   FE           MOV     R6,A
   \   000007   EB           MOV     A,R3
   \   000008   FF           MOV     R7,A
    276            afIncomingMSGPacket_t *MSGpkt;
    277            afDataConfirm_t *afDataConfirm;
    278          
    279            // Data Confirmation message fields
    280            byte sentEP;
    281            ZStatus_t sentStatus;
    282            byte sentTransID;       // This should match the value sent
    283            (void)task_id;  // Intentionally unreferenced parameter
    284          
    285            if ( events & SYS_EVENT_MSG )
   \   000009   5480         ANL     A,#0x80
   \   00000B   6071         JZ      ??TestApp_ProcessEvent_0
    286            {
    287              MSGpkt = (afIncomingMSGPacket_t *)osal_msg_receive( TestApp_TaskID );
   \   00000D                ; Setup parameters for call to function osal_msg_receive
   \   00000D   8016         SJMP    ??TestApp_ProcessEvent_1
    288              while ( MSGpkt )
    289              {
    290                switch ( MSGpkt->hdr.event )
    291                {
    292                  case ZDO_CB_MSG:
    293                    TestApp_ProcessZDOMsgs( (zdoIncomingMsg_t *)MSGpkt );
    294                    break;
    295                    
    296                  case KEY_CHANGE:
    297                    TestApp_HandleKeys( ((keyChange_t *)MSGpkt)->state, ((keyChange_t *)MSGpkt)->keys );
    298                    break;
    299          
    300                  case AF_DATA_CONFIRM_CMD:
    301                    // This message is received as a confirmation of a data packet sent.
    302                    // The status is of ZStatus_t type [defined in ZComDef.h]
    303                    // The message fields are defined in AF.h
    304                    afDataConfirm = (afDataConfirm_t *)MSGpkt;
    305                    sentEP = afDataConfirm->endpoint;
    306                    sentStatus = afDataConfirm->hdr.status;
    307                    sentTransID = afDataConfirm->transID;
    308                    (void)sentEP;
    309                    (void)sentTransID;
    310          
    311                    // Action taken when confirmation is received.
    312                    if ( sentStatus != ZSuccess )
    313                    {
    314                      // The data wasn't delivered -- Do something
    315                    }
    316                    break;
    317          
    318                  case AF_INCOMING_MSG_CMD:
    319                    TestApp_MessageMSGCB( MSGpkt );
    320                    break;
    321          
    322                  case ZDO_STATE_CHANGE:
    323                    TestApp_NwkState = (devStates_t)(MSGpkt->hdr.status);
   \                     ??TestApp_ProcessEvent_2:
   \   00000F   A3           INC     DPTR
   \   000010   E0           MOVX    A,@DPTR
   \   000011   90....       MOV     DPTR,#TestApp_NwkState
   \   000014   F0           MOVX    @DPTR,A
    324          //          if ( (TestApp_NwkState == DEV_ZB_COORD)
    325          //              || (TestApp_NwkState == DEV_ROUTER)
    326          //              || (TestApp_NwkState == DEV_END_DEVICE) )
    327          //          {
    328          //            // Start sending "the" message in a regular interval.
    329          //            osal_start_timerEx( TestApp_TaskID,
    330          //                                TESTAPP_SEND_MSG_EVT,
    331          //                              TESTAPP_SEND_MSG_TIMEOUT );
    332          //          }
    333                      if ( TestApp_NwkState == DEV_END_DEVICE )
   \   000015   6406         XRL     A,#0x6
   \   000017   7005         JNZ     ??CrossCallReturnLabel_2
    334                      {
    335                          osal_start_timerEx( TestApp_TaskID, 
    336                                              TESTAPP_SEND_PERIODIC_MSG_EVT, 
    337                                              50 );// 50ms
   \   000019                ; Setup parameters for call to function osal_start_timerEx
   \   000019   7C32         MOV     R4,#0x32
   \   00001B   12....       LCALL   ?Subroutine2 & 0xFFFF
    338          								//osal_set_event(TestAPP_TaskId, TESTAPP_SEND_PERIODIC_MSG_EVT);
    339                      }
    340          					
    341                    break;
    342          
    343                  default:
    344                    break;
    345                }
    346          
    347                // Release the memory
    348                osal_msg_deallocate( (uint8 *)MSGpkt );
   \                     ??CrossCallReturnLabel_2:
   \   00001E                ; Setup parameters for call to function osal_msg_deallocate
   \   00001E   AA..         MOV     R2,?V0 + 0
   \   000020   AB..         MOV     R3,?V0 + 1
   \   000022   12....       LCALL   ??osal_msg_deallocate?relay
    349          
    350                // Next
    351                MSGpkt = (afIncomingMSGPacket_t *)osal_msg_receive( TestApp_TaskID );
   \   000025                ; Setup parameters for call to function osal_msg_receive
   \                     ??TestApp_ProcessEvent_1:
   \   000025   90....       MOV     DPTR,#TestApp_TaskID
   \   000028   E0           MOVX    A,@DPTR
   \   000029   F9           MOV     R1,A
   \   00002A   12....       LCALL   ??osal_msg_receive?relay
   \   00002D   8A..         MOV     ?V0 + 0,R2
   \   00002F   8B..         MOV     ?V0 + 1,R3
   \   000031   E5..         MOV     A,?V0 + 0
   \   000033   45..         ORL     A,?V0 + 1
   \   000035   603F         JZ      ??TestApp_ProcessEvent_3
   \   000037   85..82       MOV     DPL,?V0 + 0
   \   00003A   85..83       MOV     DPH,?V0 + 1
   \   00003D   E0           MOVX    A,@DPTR
   \   00003E   2440         ADD     A,#0x40
   \   000040   6017         JZ      ??TestApp_ProcessEvent_4
   \   000042   24EF         ADD     A,#-0x11
   \   000044   60C9         JZ      ??TestApp_ProcessEvent_2
   \   000046   24FE         ADD     A,#-0x2
   \   000048   6006         JZ      ??TestApp_ProcessEvent_5
   \   00004A   24B9         ADD     A,#-0x47
   \   00004C   601F         JZ      ??TestApp_ProcessEvent_6
   \   00004E   80CE         SJMP    ??CrossCallReturnLabel_2
   \                     ??TestApp_ProcessEvent_5:
   \   000050                ; Setup parameters for call to function TestApp_ProcessZDOMsgs
   \   000050   AA..         MOV     R2,?V0 + 0
   \   000052   AB..         MOV     R3,?V0 + 1
   \   000054   12....       LCALL   ??TestApp_ProcessZDOMsgs?relay
   \   000057   80C5         SJMP    ??CrossCallReturnLabel_2
   \                     ??TestApp_ProcessEvent_4:
   \   000059                ; Setup parameters for call to function TestApp_HandleKeys
   \   000059   A3           INC     DPTR
   \   00005A   A3           INC     DPTR
   \   00005B   A3           INC     DPTR
   \   00005C   E0           MOVX    A,@DPTR
   \   00005D   FA           MOV     R2,A
   \   00005E   85..82       MOV     DPL,?V0 + 0
   \   000061   85..83       MOV     DPH,?V0 + 1
   \   000064   A3           INC     DPTR
   \   000065   A3           INC     DPTR
   \   000066   E0           MOVX    A,@DPTR
   \   000067   F9           MOV     R1,A
   \   000068   12....       LCALL   ??TestApp_HandleKeys?relay
   \   00006B   80B1         SJMP    ??CrossCallReturnLabel_2
   \                     ??TestApp_ProcessEvent_6:
   \   00006D                ; Setup parameters for call to function TestApp_MessageMSGCB
   \   00006D   AA..         MOV     R2,?V0 + 0
   \   00006F   AB..         MOV     R3,?V0 + 1
   \   000071   12....       LCALL   ??TestApp_MessageMSGCB?relay
   \   000074   80A8         SJMP    ??CrossCallReturnLabel_2
    352              }
    353          
    354              // return unprocessed events
    355              return (events ^ SYS_EVENT_MSG);
   \                     ??TestApp_ProcessEvent_3:
   \   000076   EE           MOV     A,R6
   \   000077   FA           MOV     R2,A
   \   000078   EF           MOV     A,R7
   \   000079   6480         XRL     A,#0x80
   \                     ??TestApp_ProcessEvent_7:
   \   00007B   FB           MOV     R3,A
   \   00007C   802A         SJMP    ??TestApp_ProcessEvent_8
    356            }
    357          
    358            // Send a message out - This event is generated by a timer
    359            //  (setup in TestApp_Init()).
    360            if ( events & TESTAPP_SEND_MSG_EVT )
   \                     ??TestApp_ProcessEvent_0:
   \   00007E   EE           MOV     A,R6
   \   00007F   A2E0         MOV     C,0xE0 /* A   */.0
   \   000081   5013         JNC     ??TestApp_ProcessEvent_9
    361            {
    362              // Send "the" message
    363              TestApp_SendTheMessage();
   \   000083                ; Setup parameters for call to function TestApp_SendTheMessage
   \   000083   12....       LCALL   ??TestApp_SendTheMessage?relay
    364          
    365              // Setup to send message again
    366              osal_start_timerEx( TestApp_TaskID,
    367                                  TESTAPP_SEND_MSG_EVT,
    368                                TESTAPP_SEND_MSG_TIMEOUT );
   \   000086                ; Setup parameters for call to function osal_start_timerEx
   \   000086   7C88         MOV     R4,#-0x78
   \   000088   7D13         MOV     R5,#0x13
   \   00008A   7A01         MOV     R2,#0x1
   \   00008C   12....       LCALL   ??Subroutine3_0 & 0xFFFF
    369          
    370              // return unprocessed events
    371              return (events ^ TESTAPP_SEND_MSG_EVT);
   \                     ??CrossCallReturnLabel_4:
   \   00008F   EE           MOV     A,R6
   \   000090   6401         XRL     A,#0x1
   \                     ??TestApp_ProcessEvent_10:
   \   000092   FA           MOV     R2,A
   \   000093   EF           MOV     A,R7
   \   000094   80E5         SJMP    ??TestApp_ProcessEvent_7
    372            }
    373          	
    374          	if ( events & TESTAPP_SEND_PERIODIC_MSG_EVT )
   \                     ??TestApp_ProcessEvent_9:
   \   000096   5402         ANL     A,#0x2
   \   000098   600A         JZ      ??TestApp_ProcessEvent_11
    375          	{
    376          #if defined ( DHT11 )		
    377          		TestApp_SendPeriodicDHT11Message();
    378          #elif defined ( DS18B20 )
    379          		TestApp_SendPeriodicDS18B20Message();
    380          #endif
    381          		
    382          		osal_start_timerEx( TestApp_TaskID,
    383          												TESTAPP_SEND_PERIODIC_MSG_EVT,
    384          												40 );	// 40ms
   \   00009A                ; Setup parameters for call to function osal_start_timerEx
   \   00009A   7C28         MOV     R4,#0x28
   \   00009C   12....       LCALL   ?Subroutine2 & 0xFFFF
    385          		
    386          		return ( events ^ TESTAPP_SEND_PERIODIC_MSG_EVT );
   \                     ??CrossCallReturnLabel_3:
   \   00009F   EE           MOV     A,R6
   \   0000A0   6402         XRL     A,#0x2
   \   0000A2   80EE         SJMP    ??TestApp_ProcessEvent_10
    387          	}
    388          
    389            // Discard unknown events
    390            return 0;
   \                     ??TestApp_ProcessEvent_11:
   \   0000A4   7A00         MOV     R2,#0x0
   \   0000A6   7B00         MOV     R3,#0x0
   \                     ??TestApp_ProcessEvent_8:
   \   0000A8   7F04         MOV     R7,#0x4
   \   0000AA   02....       LJMP    ?BANKED_LEAVE_XDATA
    391          }

   \                                 In  segment BANKED_CODE, align 1, keep-with-next
   \                     ?Subroutine2:
   \   000000   7D00         MOV     R5,#0x0
   \   000002   7A02         MOV     R2,#0x2
   \   000004                REQUIRE ??Subroutine3_0
   \   000004                ; // Fall through to label ??Subroutine3_0

   \                                 In  segment BANKED_CODE, align 1, keep-with-next
   \                     ??Subroutine3_0:
   \   000000   7B00         MOV     R3,#0x0
   \   000002   90....       MOV     DPTR,#TestApp_TaskID
   \   000005   E0           MOVX    A,@DPTR
   \   000006   F9           MOV     R1,A
   \   000007   12....       LCALL   ??osal_start_timerEx?relay
   \   00000A   22           RET
    392          
    393          /*********************************************************************
    394           * Event Generation Functions
    395           */
    396          
    397          /*********************************************************************
    398           * @fn      TestApp_ProcessZDOMsgs()
    399           *
    400           * @brief   Process response messages
    401           *
    402           * @param   none
    403           *
    404           * @return  none
    405           */

   \                                 In  segment BANKED_CODE, align 1, keep-with-next
    406          void TestApp_ProcessZDOMsgs( zdoIncomingMsg_t *inMsg )
   \                     TestApp_ProcessZDOMsgs:
    407          {
   \   000000   74F6         MOV     A,#-0xa
   \   000002   12....       LCALL   ?BANKED_ENTER_XDATA
   \   000005                ; Saved register size: 10
   \   000005                ; Auto size: 0
    408            switch ( inMsg->clusterID )
   \   000005   EA           MOV     A,R2
   \   000006   240C         ADD     A,#0xc
   \   000008   F582         MOV     DPL,A
   \   00000A   EB           MOV     A,R3
   \   00000B   3400         ADDC    A,#0x0
   \   00000D   F583         MOV     DPH,A
   \   00000F   12....       LCALL   ?Subroutine1 & 0xFFFF
   \                     ??CrossCallReturnLabel_0:
   \   000012   12....       LCALL   ?US_SWITCH_SPARSE
   \                     `?<Jumptable for TestApp_ProcessZDOMsgs>_0`:
   \   000015   0000         DW        0
   \   000017   0200         DW        2
   \   000019   0680         DW        32774
   \   00001B   ....         DW        ??TestApp_ProcessZDOMsgs_0
   \   00001D   2080         DW        32800
   \   00001F   ....         DW        ??TestApp_ProcessZDOMsgs_1
   \   000021   ....         DW        ??TestApp_ProcessZDOMsgs_2
    409            {
    410              case End_Device_Bind_rsp:
    411                if ( ZDO_ParseBindRsp( inMsg ) == ZSuccess )
   \                     ??TestApp_ProcessZDOMsgs_1:
   \   000023   EA           MOV     A,R2
   \   000024   2413         ADD     A,#0x13
   \   000026   F582         MOV     DPL,A
   \   000028   EB           MOV     A,R3
   \   000029   3400         ADDC    A,#0x0
   \   00002B   F583         MOV     DPH,A
   \   00002D   E0           MOVX    A,@DPTR
   \   00002E   F8           MOV     R0,A
   \   00002F   A3           INC     DPTR
   \   000030   E0           MOVX    A,@DPTR
   \   000031   F583         MOV     DPH,A
   \   000033   8882         MOV     DPL,R0
   \   000035   E0           MOVX    A,@DPTR
   \   000036   7009         JNZ     ??TestApp_ProcessZDOMsgs_3
    412                {
    413                  // Light LED
    414                  HalLedSet( HAL_LED_4, HAL_LED_MODE_ON );
   \   000038                ; Setup parameters for call to function HalLedSet
   \   000038   7A01         MOV     R2,#0x1
   \                     ??TestApp_ProcessZDOMsgs_4:
   \   00003A   7908         MOV     R1,#0x8
   \   00003C   12....       LCALL   ??HalLedSet?relay
   \   00003F   8053         SJMP    ??TestApp_ProcessZDOMsgs_2
    415                }
    416          #if defined(BLINK_LEDS)
    417                else
    418                {
    419                  // Flash LED to show failure
    420                  HalLedSet ( HAL_LED_4, HAL_LED_MODE_FLASH );
   \                     ??TestApp_ProcessZDOMsgs_3:
   \   000041                ; Setup parameters for call to function HalLedSet
   \   000041   7A04         MOV     R2,#0x4
   \   000043   80F5         SJMP    ??TestApp_ProcessZDOMsgs_4
    421                }
    422          #endif
    423                break;
    424          
    425              case Match_Desc_rsp:
    426                {
    427                  ZDO_ActiveEndpointRsp_t *pRsp = ZDO_ParseEPListRsp( inMsg );
   \                     ??TestApp_ProcessZDOMsgs_0:
   \   000045                ; Setup parameters for call to function ZDO_ParseEPListRsp
   \   000045   12....       LCALL   ??ZDO_ParseEPListRsp?relay
   \   000048   8A..         MOV     ?V0 + 0,R2
   \   00004A   8B..         MOV     ?V0 + 1,R3
   \   00004C   AE..         MOV     R6,?V0 + 0
   \   00004E   AF..         MOV     R7,?V0 + 1
    428                  if ( pRsp )
   \   000050   EE           MOV     A,R6
   \   000051   4F           ORL     A,R7
   \   000052   6040         JZ      ??TestApp_ProcessZDOMsgs_2
    429                  {
    430                    if ( pRsp->status == ZSuccess && pRsp->cnt )
   \   000054   8E82         MOV     DPL,R6
   \   000056   8F83         MOV     DPH,R7
   \   000058   E0           MOVX    A,@DPTR
   \   000059   7032         JNZ     ??TestApp_ProcessZDOMsgs_5
   \   00005B   A3           INC     DPTR
   \   00005C   A3           INC     DPTR
   \   00005D   A3           INC     DPTR
   \   00005E   E0           MOVX    A,@DPTR
   \   00005F   602C         JZ      ??TestApp_ProcessZDOMsgs_5
    431                    {
    432                      TestApp_DstAddr.addrMode = (afAddrMode_t)Addr16Bit;
   \   000061   90....       MOV     DPTR,#TestApp_DstAddr + 8
   \   000064   7402         MOV     A,#0x2
   \   000066   F0           MOVX    @DPTR,A
    433                      TestApp_DstAddr.addr.shortAddr = pRsp->nwkAddr;
   \   000067   8E82         MOV     DPL,R6
   \   000069   8F83         MOV     DPH,R7
   \   00006B   A3           INC     DPTR
   \   00006C   E0           MOVX    A,@DPTR
   \   00006D   F8           MOV     R0,A
   \   00006E   A3           INC     DPTR
   \   00006F   E0           MOVX    A,@DPTR
   \   000070   F9           MOV     R1,A
   \   000071   90....       MOV     DPTR,#TestApp_DstAddr
   \   000074   E8           MOV     A,R0
   \   000075   F0           MOVX    @DPTR,A
   \   000076   A3           INC     DPTR
   \   000077   E9           MOV     A,R1
   \   000078   F0           MOVX    @DPTR,A
    434                      // Take the first endpoint, Can be changed to search through endpoints
    435                      TestApp_DstAddr.endPoint = pRsp->epList[0];
   \   000079   8E82         MOV     DPL,R6
   \   00007B   8F83         MOV     DPH,R7
   \   00007D   A3           INC     DPTR
   \   00007E   A3           INC     DPTR
   \   00007F   A3           INC     DPTR
   \   000080   A3           INC     DPTR
   \   000081   E0           MOVX    A,@DPTR
   \   000082   90....       MOV     DPTR,#TestApp_DstAddr + 9
   \   000085   F0           MOVX    @DPTR,A
    436          
    437                      // Light LED
    438                      HalLedSet( HAL_LED_4, HAL_LED_MODE_ON );
   \   000086                ; Setup parameters for call to function HalLedSet
   \   000086   7A01         MOV     R2,#0x1
   \   000088   7908         MOV     R1,#0x8
   \   00008A   12....       LCALL   ??HalLedSet?relay
    439                    }
    440                    osal_mem_free( pRsp );
   \                     ??TestApp_ProcessZDOMsgs_5:
   \   00008D                ; Setup parameters for call to function osal_mem_free
   \   00008D   EE           MOV     A,R6
   \   00008E   FA           MOV     R2,A
   \   00008F   EF           MOV     A,R7
   \   000090   FB           MOV     R3,A
   \   000091   12....       LCALL   ??osal_mem_free?relay
    441                  }
    442                }
    443                break;
    444            }
    445          }
   \                     ??TestApp_ProcessZDOMsgs_2:
   \   000094   80..         SJMP    ??Subroutine4_0

   \                                 In  segment BANKED_CODE, align 1, keep-with-next
   \                     ??Subroutine4_0:
   \   000000   7F02         MOV     R7,#0x2
   \   000002   02....       LJMP    ?BANKED_LEAVE_XDATA

   \                                 In  segment BANKED_CODE, align 1, keep-with-next
   \                     ?Subroutine1:
   \   000000   E0           MOVX    A,@DPTR
   \   000001   F5..         MOV     ?V0 + 0,A
   \   000003   A3           INC     DPTR
   \   000004   E0           MOVX    A,@DPTR
   \   000005   F5..         MOV     ?V0 + 1,A
   \   000007   78..         MOV     R0,#?V0 + 0
   \   000009   22           RET
    446          
    447          /*********************************************************************
    448           * @fn      TestApp_HandleKeys
    449           *
    450           * @brief   Handles all key events for this device.
    451           *
    452           * @param   shift - true if in shift/alt.
    453           * @param   keys - bit field for key events. Valid entries:
    454           *                 HAL_KEY_SW_4
    455           *                 HAL_KEY_SW_3
    456           *                 HAL_KEY_SW_2
    457           *                 HAL_KEY_SW_1
    458           *
    459           * @return  none
    460           */

   \                                 In  segment BANKED_CODE, align 1, keep-with-next
    461          void TestApp_HandleKeys( byte shift, byte keys )
   \                     TestApp_HandleKeys:
    462          {
   \   000000   74F7         MOV     A,#-0x9
   \   000002   12....       LCALL   ?BANKED_ENTER_XDATA
   \   000005                ; Saved register size: 9
   \   000005                ; Auto size: 0
   \   000005   E9           MOV     A,R1
   \   000006   FE           MOV     R6,A
   \   000007   EA           MOV     A,R2
   \   000008   FF           MOV     R7,A
    463          //  zAddrType_t dstAddr;
    464            
    465            // Shift is used to make each button/switch dual purpose.
    466            if ( shift )
   \   000009   EE           MOV     A,R6
   \   00000A   700C         JNZ     ??TestApp_HandleKeys_0
    467            {
    468              if ( keys & HAL_KEY_SW_1 )
    469              {
    470              }
    471              if ( keys & HAL_KEY_SW_2 )
    472              {
    473              }
    474              if ( keys & HAL_KEY_SW_3 )
    475              {
    476              }
    477              if ( keys & HAL_KEY_SW_4 )
    478              {
    479              }
    480            }
    481            else
    482            {
    483              if ( keys & HAL_KEY_SW_1 )
    484              {
    485              }
    486          
    487              if ( keys & HAL_KEY_SW_2 )
   \   00000C   EF           MOV     A,R7
   \   00000D   A2E1         MOV     C,0xE0 /* A   */.1
   \   00000F   5007         JNC     ??TestApp_HandleKeys_0
    488              {
    489                HalLedSet ( HAL_LED_4, HAL_LED_MODE_OFF );
   \   000011                ; Setup parameters for call to function HalLedSet
   \   000011   7A00         MOV     R2,#0x0
   \   000013   7908         MOV     R1,#0x8
   \   000015   12....       LCALL   ??HalLedSet?relay
    490          
    491                // Initiate an End Device Bind Request for the mandatory endpoint
    492          //      dstAddr.addrMode = Addr16Bit;
    493          //      dstAddr.addr.shortAddr = 0x0000; // Coordinator
    494          //      ZDP_EndDeviceBindReq( &dstAddr, NLME_GetShortAddr(), 
    495          //                            TestApp_epDesc.endPoint,
    496          //                            TESTAPP_PROFID,
    497          //                            TESTAPP_MAX_CLUSTERS, (cId_t *)TestApp_ClusterList,
    498          //                            TESTAPP_MAX_CLUSTERS, (cId_t *)TestApp_ClusterList,
    499          //                            FALSE );
    500              }
    501          
    502              if ( keys & HAL_KEY_SW_3 )
    503              {
    504              }
    505          
    506              if ( keys & HAL_KEY_SW_4 )
    507              {
    508          //      HalLedSet ( HAL_LED_4, HAL_LED_MODE_OFF );
    509          //      // Initiate a Match Description Request (Service Discovery)
    510          //      dstAddr.addrMode = AddrBroadcast;
    511          //      dstAddr.addr.shortAddr = NWK_BROADCAST_SHORTADDR;
    512          //      ZDP_MatchDescReq( &dstAddr, NWK_BROADCAST_SHORTADDR,
    513          //                        TESTAPP_PROFID,
    514          //                        TESTAPP_MAX_CLUSTERS, (cId_t *)TestApp_ClusterList,
    515          //                        TESTAPP_MAX_CLUSTERS, (cId_t *)TestApp_ClusterList,
    516          //                        FALSE );
    517              }
    518            }
    519          }
   \                     ??TestApp_HandleKeys_0:
   \   000018   7F01         MOV     R7,#0x1
   \   00001A   02....       LJMP    ?BANKED_LEAVE_XDATA
    520          
    521          /*********************************************************************
    522           * LOCAL FUNCTIONS
    523           */
    524          
    525          /*********************************************************************
    526           * @fn      TestApp_MessageMSGCB
    527           *
    528           * @brief   Data message processor callback.  This function processes
    529           *          any incoming data - probably from other devices.  So, based
    530           *          on cluster ID, perform the intended action.
    531           *
    532           * @param   none
    533           *
    534           * @return  none
    535           */

   \                                 In  segment BANKED_CODE, align 1, keep-with-next
    536          void TestApp_MessageMSGCB( afIncomingMSGPacket_t *pkt )
   \                     TestApp_MessageMSGCB:
    537          {
   \   000000   74F6         MOV     A,#-0xa
   \   000002   12....       LCALL   ?BANKED_ENTER_XDATA
   \   000005                ; Saved register size: 10
   \   000005                ; Auto size: 0
    538            switch ( pkt->clusterId )
   \   000005   EA           MOV     A,R2
   \   000006   2421         ADD     A,#0x21
   \   000008   FE           MOV     R6,A
   \   000009   EB           MOV     A,R3
   \   00000A   3400         ADDC    A,#0x0
   \   00000C   FF           MOV     R7,A
   \   00000D   8A82         MOV     DPL,R2
   \   00000F   8B83         MOV     DPH,R3
   \   000011   A3           INC     DPTR
   \   000012   A3           INC     DPTR
   \   000013   A3           INC     DPTR
   \   000014   A3           INC     DPTR
   \   000015   12....       LCALL   ?Subroutine1 & 0xFFFF
   \                     ??CrossCallReturnLabel_1:
   \   000018   12....       LCALL   ?US_SWITCH_DENSE
   \                     `?<Jumptable for TestApp_MessageMSGCB>_0`:
   \   00001B   0100         DW        1
   \   00001D   01           DB        1
   \   00001E   ....         DW        ??TestApp_MessageMSGCB_0
   \   000020   ....         DW        ??TestApp_MessageMSGCB_1
   \   000022   ....         DW        ??TestApp_MessageMSGCB_2
    539            {
    540              case TESTAPP_CLUSTERID:
    541                // "the" message
    542          #if defined( LCD_SUPPORTED )
    543                HalLcdWriteScreen( (char*)pkt->cmd.Data, "rcvd" );
   \                     ??TestApp_MessageMSGCB_1:
   \   000024                ; Setup parameters for call to function HalLcdWriteScreen
   \   000024   7C..         MOV     R4,#`?<Constant "rcvd">` & 0xff
   \   000026   7D..         MOV     R5,#(`?<Constant "rcvd">` >> 8) & 0xff
   \   000028   8E82         MOV     DPL,R6
   \   00002A   8F83         MOV     DPH,R7
   \   00002C   E0           MOVX    A,@DPTR
   \   00002D   FA           MOV     R2,A
   \   00002E   A3           INC     DPTR
   \   00002F   E0           MOVX    A,@DPTR
   \   000030   FB           MOV     R3,A
   \   000031   12....       LCALL   ??HalLcdWriteScreen?relay
    544          #elif defined( WIN32 )
    545                WPRINTSTR( pkt->cmd.Data );
    546          #endif			
    547                break;
   \   000034   8074         SJMP    ??TestApp_MessageMSGCB_0
    548                
    549              case TESTAPP_PERIODIC_CLUSTERID:
    550          			if (pkt->cmd.Data[pkt->cmd.DataLength - 1] == '1')
   \                     ??TestApp_MessageMSGCB_2:
   \   000036   EA           MOV     A,R2
   \   000037   241F         ADD     A,#0x1f
   \   000039   F5..         MOV     ?V0 + 0,A
   \   00003B   EB           MOV     A,R3
   \   00003C   3400         ADDC    A,#0x0
   \   00003E   F5..         MOV     ?V0 + 1,A
   \   000040   85..82       MOV     DPL,?V0 + 0
   \   000043   F583         MOV     DPH,A
   \   000045   E0           MOVX    A,@DPTR
   \   000046   F8           MOV     R0,A
   \   000047   A3           INC     DPTR
   \   000048   E0           MOVX    A,@DPTR
   \   000049   F9           MOV     R1,A
   \   00004A   8E82         MOV     DPL,R6
   \   00004C   8F83         MOV     DPH,R7
   \   00004E   E0           MOVX    A,@DPTR
   \   00004F   28           ADD     A,R0
   \   000050   F8           MOV     R0,A
   \   000051   A3           INC     DPTR
   \   000052   E0           MOVX    A,@DPTR
   \   000053   39           ADDC    A,R1
   \   000054   F9           MOV     R1,A
   \   000055   E8           MOV     A,R0
   \   000056   24FF         ADD     A,#-0x1
   \   000058   F582         MOV     DPL,A
   \   00005A   E9           MOV     A,R1
   \   00005B   34FF         ADDC    A,#-0x1
   \   00005D   F583         MOV     DPH,A
   \   00005F   E0           MOVX    A,@DPTR
   \   000060   6431         XRL     A,#0x31
   \   000062   700A         JNZ     ??TestApp_MessageMSGCB_3
    551          				HalUARTWrite(0, "DHT11: ", 7);
   \   000064                ; Setup parameters for call to function HalUARTWrite
   \   000064   7C07         MOV     R4,#0x7
   \   000066   7D00         MOV     R5,#0x0
   \   000068   7A..         MOV     R2,#`?<Constant "DHT11: ">` & 0xff
   \   00006A   7B..         MOV     R3,#(`?<Constant "DHT11: ">` >> 8) & 0xff
   \   00006C   800D         SJMP    ??TestApp_MessageMSGCB_4
    552          			else if (pkt->cmd.Data[pkt->cmd.DataLength - 1] == '2')
   \                     ??TestApp_MessageMSGCB_3:
   \   00006E   E0           MOVX    A,@DPTR
   \   00006F   6432         XRL     A,#0x32
   \   000071   700D         JNZ     ??TestApp_MessageMSGCB_5
    553          				HalUARTWrite(0, "DS18B20: ", 9);
   \   000073                ; Setup parameters for call to function HalUARTWrite
   \   000073   7C09         MOV     R4,#0x9
   \   000075   7D00         MOV     R5,#0x0
   \   000077   7A..         MOV     R2,#`?<Constant "DS18B20: ">` & 0xff
   \   000079   7B..         MOV     R3,#(`?<Constant "DS18B20: ">` >> 8) & 0xff
   \                     ??TestApp_MessageMSGCB_4:
   \   00007B   7900         MOV     R1,#0x0
   \   00007D   12....       LCALL   ??HalUARTWrite?relay
    554          			
    555          			HalUARTWrite(0, pkt->cmd.Data, pkt->cmd.DataLength - 1);
   \                     ??TestApp_MessageMSGCB_5:
   \   000080                ; Setup parameters for call to function HalUARTWrite
   \   000080   85..82       MOV     DPL,?V0 + 0
   \   000083   85..83       MOV     DPH,?V0 + 1
   \   000086   E0           MOVX    A,@DPTR
   \   000087   24FF         ADD     A,#-0x1
   \   000089   FC           MOV     R4,A
   \   00008A   A3           INC     DPTR
   \   00008B   E0           MOVX    A,@DPTR
   \   00008C   34FF         ADDC    A,#-0x1
   \   00008E   FD           MOV     R5,A
   \   00008F   8E82         MOV     DPL,R6
   \   000091   8F83         MOV     DPH,R7
   \   000093   E0           MOVX    A,@DPTR
   \   000094   FA           MOV     R2,A
   \   000095   A3           INC     DPTR
   \   000096   E0           MOVX    A,@DPTR
   \   000097   FB           MOV     R3,A
   \   000098   7900         MOV     R1,#0x0
   \   00009A   12....       LCALL   ??HalUARTWrite?relay
    556          			HalUARTWrite(0, "\r\n", 2);
   \   00009D                ; Setup parameters for call to function HalUARTWrite
   \   00009D   7C02         MOV     R4,#0x2
   \   00009F   7D00         MOV     R5,#0x0
   \   0000A1   7A..         MOV     R2,#`?<Constant "\\r\\n">` & 0xff
   \   0000A3   7B..         MOV     R3,#(`?<Constant "\\r\\n">` >> 8) & 0xff
   \   0000A5   7900         MOV     R1,#0x0
   \   0000A7   12....       LCALL   ??HalUARTWrite?relay
    557          		break;
    558            }
    559          }
   \                     ??TestApp_MessageMSGCB_0:
   \   0000AA   02....       LJMP    ??Subroutine4_0 & 0xFFFF
    560          
    561          /*********************************************************************
    562           * @fn      TestApp_SendTheMessage
    563           *
    564           * @brief   Send "the" message.
    565           *
    566           * @param   none
    567           *
    568           * @return  none
    569           */

   \                                 In  segment BANKED_CODE, align 1, keep-with-next
   \                     ?Subroutine0:
   \   000000   12....       LCALL   ?DEALLOC_XSTACK8
   \   000003                REQUIRE ??Subroutine4_0
   \   000003                ; // Fall through to label ??Subroutine4_0

   \                                 In  segment BANKED_CODE, align 1, keep-with-next
    570          void TestApp_SendTheMessage( void )
   \                     TestApp_SendTheMessage:
    571          {
   \   000000   74F6         MOV     A,#-0xa
   \   000002   12....       LCALL   ?BANKED_ENTER_XDATA
   \   000005                ; Saved register size: 10
   \   000005                ; Auto size: 12
   \   000005   74F4         MOV     A,#-0xc
   \   000007   12....       LCALL   ?ALLOC_XSTACK8
    572            char theMessageData[] = "Hello World";
   \   00000A   85..82       MOV     DPL,?XSP + 0
   \   00000D   85..83       MOV     DPH,?XSP + 1
   \   000010   AC82         MOV     R4,DPL
   \   000012   AD83         MOV     R5,DPH
   \   000014   7583..       MOV     DPH,#(`?<Constant "Hello World">` >> 8) & 0xff
   \   000017   7582..       MOV     DPL,#`?<Constant "Hello World">` & 0xff
   \   00001A   740C         MOV     A,#0xc
   \   00001C   12....       LCALL   ?MOVE_LONG8_XDATA_XDATA
    573          
    574            if ( AF_DataRequest( &TestApp_DstAddr, &TestApp_epDesc,
    575                                 TESTAPP_CLUSTERID,
    576                                 (byte)osal_strlen( theMessageData ) + 1,
    577                                 (byte *)&theMessageData,
    578                                 &TestApp_TransID,
    579                                 AF_DISCV_ROUTE, AF_DEFAULT_RADIUS ) == afStatus_SUCCESS )
   \   00001F                ; Setup parameters for call to function AF_DataRequest
   \   00001F   75..1E       MOV     ?V0 + 0,#0x1e
   \   000022   78..         MOV     R0,#?V0 + 0
   \   000024   12....       LCALL   ?PUSH_XSTACK_I_ONE
   \   000027   75....       MOV     ?V0 + 0,#TestApp_TransID & 0xff
   \   00002A   75....       MOV     ?V0 + 1,#(TestApp_TransID >> 8) & 0xff
   \   00002D   78..         MOV     R0,#?V0 + 0
   \   00002F   12....       LCALL   ?PUSH_XSTACK_I_TWO
   \   000032   7403         MOV     A,#0x3
   \   000034   12....       LCALL   ?XSTACK_DISP0_8
   \   000037   8582..       MOV     ?V0 + 0,DPL
   \   00003A   8583..       MOV     ?V0 + 1,DPH
   \   00003D   78..         MOV     R0,#?V0 + 0
   \   00003F   12....       LCALL   ?PUSH_XSTACK_I_TWO
   \   000042                ; Setup parameters for call to function osal_strlen
   \   000042   7405         MOV     A,#0x5
   \   000044   12....       LCALL   ?XSTACK_DISP0_8
   \   000047   AA82         MOV     R2,DPL
   \   000049   AB83         MOV     R3,DPH
   \   00004B   12....       LCALL   ??osal_strlen?relay
   \   00004E   EA           MOV     A,R2
   \   00004F   2401         ADD     A,#0x1
   \   000051   F5..         MOV     ?V0 + 0,A
   \   000053   E4           CLR     A
   \   000054   3400         ADDC    A,#0x0
   \   000056   F5..         MOV     ?V0 + 1,A
   \   000058   78..         MOV     R0,#?V0 + 0
   \   00005A   12....       LCALL   ?PUSH_XSTACK_I_TWO
   \   00005D   75..01       MOV     ?V0 + 0,#0x1
   \   000060   75..00       MOV     ?V0 + 1,#0x0
   \   000063   78..         MOV     R0,#?V0 + 0
   \   000065   12....       LCALL   ?PUSH_XSTACK_I_TWO
   \   000068   7920         MOV     R1,#0x20
   \   00006A   7C..         MOV     R4,#TestApp_epDesc & 0xff
   \   00006C   7D..         MOV     R5,#(TestApp_epDesc >> 8) & 0xff
   \   00006E   7A..         MOV     R2,#TestApp_DstAddr & 0xff
   \   000070   7B..         MOV     R3,#(TestApp_DstAddr >> 8) & 0xff
   \   000072   12....       LCALL   ??AF_DataRequest?relay
   \   000075   7409         MOV     A,#0x9
   \   000077   12....       LCALL   ?DEALLOC_XSTACK8
    580            {
    581              // Successfully requested to be sent.
    582            }
    583            else
    584            {
    585              // Error occurred in request to send.
    586            }
    587          }
   \   00007A   740C         MOV     A,#0xc
   \   00007C   02....       LJMP    ?Subroutine0 & 0xFFFF
    588          
    589          /*********************************************************************
    590           * @fn      TestApp_SendPeriodicDHT11Message
    591           *
    592           * @brief   Send periodic message.
    593           *
    594           * @param   none
    595           *
    596           * @return  none
    597           */

   \                                 In  segment BANKED_CODE, align 1, keep-with-next
    598          void TestApp_SendPeriodicDHT11Message( void )
   \                     TestApp_SendPeriodicDHT11Message:
    599          {
   \   000000   74F6         MOV     A,#-0xa
   \   000002   12....       LCALL   ?BANKED_ENTER_XDATA
   \   000005                ; Saved register size: 10
   \   000005                ; Auto size: 1
   \   000005   74FF         MOV     A,#-0x1
   \   000007   12....       LCALL   ?ALLOC_XSTACK8
    600          	volatile uint8 dataLen = 0;
   \   00000A   85..82       MOV     DPL,?XSP + 0
   \   00000D   85..83       MOV     DPH,?XSP + 1
   \   000010   E4           CLR     A
   \   000011   F0           MOVX    @DPTR,A
    601          	dataLen = TestApp_GetDHT11SensorData();
   \   000012   F0           MOVX    @DPTR,A
    602          	if ( dataLen > 0 )
   \   000013   E0           MOVX    A,@DPTR
   \   000014   604F         JZ      ??TestApp_SendPeriodicDHT11Message_0
    603          	{	
    604          		if ( AF_DataRequest( &TestApp_Periodic_DstAddr, &TestApp_epDesc,
    605          												 TESTAPP_PERIODIC_CLUSTERID, dataLen - 1, (byte *)Dht11Data, 
    606          												 &TestApp_TransID, AF_DISCV_ROUTE,
    607          												 AF_DEFAULT_RADIUS ) == afStatus_SUCCESS )
   \   000016                ; Setup parameters for call to function AF_DataRequest
   \   000016   75..1E       MOV     ?V0 + 0,#0x1e
   \   000019   78..         MOV     R0,#?V0 + 0
   \   00001B   12....       LCALL   ?PUSH_XSTACK_I_ONE
   \   00001E   75....       MOV     ?V0 + 0,#TestApp_TransID & 0xff
   \   000021   75....       MOV     ?V0 + 1,#(TestApp_TransID >> 8) & 0xff
   \   000024   78..         MOV     R0,#?V0 + 0
   \   000026   12....       LCALL   ?PUSH_XSTACK_I_TWO
   \   000029   75....       MOV     ?V0 + 0,#Dht11Data & 0xff
   \   00002C   75....       MOV     ?V0 + 1,#(Dht11Data >> 8) & 0xff
   \   00002F   78..         MOV     R0,#?V0 + 0
   \   000031   12....       LCALL   ?PUSH_XSTACK_I_TWO
   \   000034   7405         MOV     A,#0x5
   \   000036   12....       LCALL   ?XSTACK_DISP0_8
   \   000039   E0           MOVX    A,@DPTR
   \   00003A   24FF         ADD     A,#-0x1
   \   00003C   F5..         MOV     ?V0 + 0,A
   \   00003E   E4           CLR     A
   \   00003F   34FF         ADDC    A,#-0x1
   \   000041   F5..         MOV     ?V0 + 1,A
   \   000043   78..         MOV     R0,#?V0 + 0
   \   000045   12....       LCALL   ?PUSH_XSTACK_I_TWO
   \   000048   75..02       MOV     ?V0 + 0,#0x2
   \   00004B   75..00       MOV     ?V0 + 1,#0x0
   \   00004E   78..         MOV     R0,#?V0 + 0
   \   000050   12....       LCALL   ?PUSH_XSTACK_I_TWO
   \   000053   7920         MOV     R1,#0x20
   \   000055   7C..         MOV     R4,#TestApp_epDesc & 0xff
   \   000057   7D..         MOV     R5,#(TestApp_epDesc >> 8) & 0xff
   \   000059   7A..         MOV     R2,#TestApp_Periodic_DstAddr & 0xff
   \   00005B   7B..         MOV     R3,#(TestApp_Periodic_DstAddr >> 8) & 0xff
   \   00005D   12....       LCALL   ??AF_DataRequest?relay
   \   000060   7409         MOV     A,#0x9
   \   000062   12....       LCALL   ?DEALLOC_XSTACK8
    608          		{
    609          //			HalLedSet(HAL_LED_2, HAL_LED_MODE_TOGGLE);
    610          		}
    611          		else
    612          		{
    613          		 
    614          		}
    615          	}
    616          }
   \                     ??TestApp_SendPeriodicDHT11Message_0:
   \   000065   7401         MOV     A,#0x1
   \   000067   02....       LJMP    ?Subroutine0 & 0xFFFF
    617          
    618          /*********************************************************************
    619           * @fn      TestApp_SendPeriodicDS18B20Message
    620           *
    621           * @brief   Send periodic message.
    622           *
    623           * @param   none
    624           *
    625           * @return  none
    626           */

   \                                 In  segment BANKED_CODE, align 1, keep-with-next
    627          void TestApp_SendPeriodicDS18B20Message()
   \                     TestApp_SendPeriodicDS18B20Message:
    628          {
   \   000000                ; Saved register size: 0
   \   000000                ; Auto size: 0
    629          #if defined ( DS18B20 )	
    630          	uint8 dataLen = 0;
    631          	char Ds18b20Data[6] = {0};	
    632          	char hundreds, tens, units, decimal;	
    633          	float temperature;
    634          	
    635          	temperature = dsReadT();
    636          	
    637          		if (temperature == -10000.0)
    638          			return;
    639          		hundreds = (char)(temperature / 100) + 0x30;
    640          		tens = (char)(((int)temperature % 100) / 10 ) + 0x30;
    641          		units = (char)((int)temperature % 10) + 0x30;
    642          		decimal = (char)((temperature - (int)temperature) * 10) + 0x30;	
    643          		
    644          		if (hundreds > 0x30 && hundreds < 0x3A)
    645          			Ds18b20Data[dataLen++] = hundreds;
    646          		
    647          		if (tens >= 0x30 && tens < 0x3A)
    648          		{
    649          			if (hundreds == 0x30 && tens != 0x30)
    650          				Ds18b20Data[dataLen++] = tens;
    651          			else if (hundreds != 0x30)
    652          				Ds18b20Data[dataLen++] = tens;
    653          		}
    654          		
    655          		if (units >= 0x30 && units < 0x3A)
    656          		{
    657          			if (hundreds == 0x30)
    658          			{
    659          				if (tens == 0x30)
    660          					Ds18b20Data[dataLen++] = units;
    661          				else
    662          					Ds18b20Data[dataLen++] = units;
    663          			}
    664          			else
    665          			{
    666          				Ds18b20Data[dataLen++] = units;
    667          			}
    668          		}
    669          		
    670          		if (decimal > 0x30 && decimal < 0x3A)
    671          		{
    672          			if (hundreds == 0x30)
    673          			{
    674          				if (tens == 0x30)
    675          				{
    676          					Ds18b20Data[dataLen++] = '.';
    677          					Ds18b20Data[dataLen++] = decimal;
    678          				}
    679          				else
    680          				{
    681          					Ds18b20Data[dataLen++] = '.';
    682          					Ds18b20Data[dataLen++] = decimal;
    683          				}
    684          			}
    685          			else
    686          			{
    687          				Ds18b20Data[dataLen++] = '.';
    688          				Ds18b20Data[dataLen++] = decimal;
    689          			}
    690          		}
    691          		
    692          		Ds18b20Data[dataLen] = '2';
    693          		
    694          	if ( dataLen > 0 )
    695          	{	
    696          		if ( AF_DataRequest( &TestApp_Periodic_DstAddr, &TestApp_epDesc,
    697          												 TESTAPP_PERIODIC_CLUSTERID, dataLen + 1, (byte *)&Ds18b20Data, 
    698          												 &TestApp_TransID, AF_DISCV_ROUTE,
    699          												 AF_DEFAULT_RADIUS ) == afStatus_SUCCESS )
    700          		{
    701          //			HalLedSet(HAL_LED_2, HAL_LED_MODE_TOGGLE);
    702          		}
    703          		else
    704          		{
    705          		 
    706          		}
    707          	}	
    708          #endif	
    709          }
   \   000000   02....       LJMP    ?BRET
    710          
    711          
    712          
    713          
    714          /*********************************************************************
    715           * @fn      TestApp_GetDHT11SensorData
    716           *
    717           * @brief   Get DHT11 sensor temperature and humidity data.
    718           *
    719           * @param   dataArray - pointer, pointer to the DHT11 sensor data buffer.
    720           *
    721           * @return none
    722           */

   \                                 In  segment BANKED_CODE, align 1, keep-with-next
    723          uint8 TestApp_GetDHT11SensorData()
   \                     TestApp_GetDHT11SensorData:
    724          {
   \   000000                ; Saved register size: 0
   \   000000                ; Auto size: 0
    725          #if defined ( DHT11 )	
    726          	uint8 dht11[2] = {0, 0};
    727          	static uint8 initFalg = 1;
    728          	
    729          	if ( initFalg )
    730          	{
    731          		if ( !DHT11IOInit() )	// 初始化 DHT11 的 IO 引脚
    732          		{
    733          			//osal_clear_event(TestApp_TaskID, TESTAPP_SEND_PERIODIC_MSG_EVT);
    734          			// waiting for DHT11 ready
    735          			osal_start_timerEx(TestApp_TaskID, TESTAPP_SEND_PERIODIC_MSG_EVT, 1000);// 1s			
    736          
    737          			initFalg = 0;
    738          		}
    739          		else
    740          		{
    741          			return 0;
    742          		}
    743          	}
    744          	else
    745          	{
    746          		if ( DHT11ReadData(&dht11[0], &dht11[1]) == 0 )
    747          		{
    748          			Dht11Data[0] = dht11[0] / 10 + 0x30;	// temperature's tens
    749          			Dht11Data[1] = dht11[0] % 10 + 0x30;	// temperature's units
    750          			
    751          			Dht11Data[2] = 0x20;
    752          			
    753          			Dht11Data[3] = dht11[1] / 10 + 0x30;	// humidity's tens
    754          			Dht11Data[4] = dht11[1] % 10 + 0x30;	// humidity's units
    755          			
    756          			Dht11Data[5] = '1';
    757          			
    758          			return 6;
    759          		}
    760          	}
    761          #endif	
    762          	return 0;	
   \   000000   7900         MOV     R1,#0x0
   \   000002   02....       LJMP    ?BRET
    763          }

   \                                 In  segment BANK_RELAYS, align 1
   \                     ??TestApp_Init?relay:
   \   000000   12....       LCALL   ?BDISPATCH
   \   000003   ......       DC24    TestApp_Init

   \                                 In  segment BANK_RELAYS, align 1
   \                     ??TestApp_ProcessEvent?relay:
   \   000000   12....       LCALL   ?BDISPATCH
   \   000003   ......       DC24    TestApp_ProcessEvent

   \                                 In  segment BANK_RELAYS, align 1
   \                     ??TestApp_ProcessZDOMsgs?relay:
   \   000000   12....       LCALL   ?BDISPATCH
   \   000003   ......       DC24    TestApp_ProcessZDOMsgs

   \                                 In  segment BANK_RELAYS, align 1
   \                     ??TestApp_HandleKeys?relay:
   \   000000   12....       LCALL   ?BDISPATCH
   \   000003   ......       DC24    TestApp_HandleKeys

   \                                 In  segment BANK_RELAYS, align 1
   \                     ??TestApp_MessageMSGCB?relay:
   \   000000   12....       LCALL   ?BDISPATCH
   \   000003   ......       DC24    TestApp_MessageMSGCB

   \                                 In  segment BANK_RELAYS, align 1
   \                     ??TestApp_SendTheMessage?relay:
   \   000000   12....       LCALL   ?BDISPATCH
   \   000003   ......       DC24    TestApp_SendTheMessage

   \                                 In  segment BANK_RELAYS, align 1
   \                     ??TestApp_SendPeriodicDHT11Message?relay:
   \   000000   12....       LCALL   ?BDISPATCH
   \   000003   ......       DC24    TestApp_SendPeriodicDHT11Message

   \                                 In  segment BANK_RELAYS, align 1
   \                     ??TestApp_SendPeriodicDS18B20Message?relay:
   \   000000   12....       LCALL   ?BDISPATCH
   \   000003   ......       DC24    TestApp_SendPeriodicDS18B20Message

   \                                 In  segment BANK_RELAYS, align 1
   \                     ??TestApp_GetDHT11SensorData?relay:
   \   000000   12....       LCALL   ?BDISPATCH
   \   000003   ......       DC24    TestApp_GetDHT11SensorData

   \                                 In  segment XDATA_ROM_C, align 1
   \                     `?<Constant "Group 3">`:
   \   000000   47726F75     DB "Group 3"
   \            70203300

   \                                 In  segment XDATA_ROM_C, align 1
   \                     `?<Constant "UartInit OK\\n">`:
   \   000000   55617274     DB "UartInit OK\012"
   \            496E6974
   \            204F4B0A
   \            00      

   \                                 In  segment XDATA_ROM_C, align 1
   \                     `?<Constant "TestApp">`:
   \   000000   54657374     DB "TestApp"
   \            41707000

   \                                 In  segment XDATA_ROM_C, align 1
   \                     `?<Constant "rcvd">`:
   \   000000   72637664     DB "rcvd"
   \            00      

   \                                 In  segment XDATA_ROM_C, align 1
   \                     `?<Constant "DHT11: ">`:
   \   000000   44485431     DB "DHT11: "
   \            313A2000

   \                                 In  segment XDATA_ROM_C, align 1
   \                     `?<Constant "DS18B20: ">`:
   \   000000   44533138     DB "DS18B20: "
   \            4232303A
   \            2000    

   \                                 In  segment XDATA_ROM_C, align 1
   \                     `?<Constant "\\r\\n">`:
   \   000000   0D0A00       DB "\015\012"

   \                                 In  segment XDATA_ROM_C, align 1
   \                     `?<Constant "Hello World">`:
   \   000000   48656C6C     DB "Hello World"
   \            6F20576F
   \            726C6400
    764          
    765          /*********************************************************************
    766          *********************************************************************/

   Maximum stack usage in bytes:

     Function                       ISTACK PSTACK XSTACK
     --------                       ------ ------ ------
     TestApp_GetDHT11SensorData         0      0      0
     TestApp_HandleKeys                 0      0     21
       -> HalLedSet                     0      0     18
     TestApp_Init                       0      0     14
       -> osal_memcpy                   0      0     28
       -> aps_AddGroup                  0      0     22
       -> MT_UartInit                   0      0     22
       -> MT_UartRegisterTaskID         0      0     22
       -> HalUARTWrite                  0      0     22
       -> afRegister                    0      0     22
       -> RegisterForKeys               0      0     22
       -> HalLcdWriteString             0      0     22
     TestApp_MessageMSGCB               0      0     22
       -> HalLcdWriteScreen             0      0     20
       -> HalUARTWrite                  0      0     20
       -> HalUARTWrite                  0      0     20
       -> HalUARTWrite                  0      0     20
       -> HalUARTWrite                  0      0     20
     TestApp_ProcessEvent               0      0     12
       -> osal_msg_receive              0      0     24
       -> osal_start_timerEx            0      0     24
       -> osal_msg_deallocate           0      0     24
       -> osal_msg_receive              0      0     24
       -> TestApp_ProcessZDOMsgs        0      0     24
       -> TestApp_HandleKeys            0      0     24
       -> TestApp_MessageMSGCB          0      0     24
       -> TestApp_SendTheMessage        0      0     24
       -> osal_start_timerEx            0      0     24
       -> osal_start_timerEx            0      0     24
     TestApp_ProcessZDOMsgs             0      0     22
       -> HalLedSet                     0      0     20
       -> HalLedSet                     0      0     20
       -> ZDO_ParseEPListRsp            0      0     20
       -> HalLedSet                     0      0     20
       -> osal_mem_free                 0      0     20
     TestApp_SendPeriodicDHT11Message
                                        0      0     20
       -> AF_DataRequest                0      0     40
     TestApp_SendPeriodicDS18B20Message
                                        0      0      0
     TestApp_SendTheMessage             2      0     43
       -> osal_strlen                   0      0     54
       -> AF_DataRequest                0      0     62


   Segment part sizes:

     Function/Label                             Bytes
     --------------                             -----
     Dht11Data                                     6
     TestApp_ClusterList                           4
     TestApp_SimpleDesc                           12
     TestApp_epDesc                                6
     TestApp_TaskID                                1
     TestApp_NwkState                              1
     TestApp_TransID                               1
     TestApp_DstAddr                              12
     TestApp_Periodic_DstAddr                     12
     TestApp_Flash_DstAddr                        12
     TestApp_Group                                18
     TestApp_Init                                211
     TestApp_ProcessEvent                        173
     ?Subroutine2                                  4
     ??Subroutine3_0                              11
     TestApp_ProcessZDOMsgs                      150
     ??Subroutine4_0                               5
     ?Subroutine1                                 10
     TestApp_HandleKeys                           29
     TestApp_MessageMSGCB                        173
     ?Subroutine0                                  3
     TestApp_SendTheMessage                      127
     TestApp_SendPeriodicDHT11Message
                                                 106
     TestApp_SendPeriodicDS18B20Message
                                                   3
     TestApp_GetDHT11SensorData                    5
     ??TestApp_Init?relay                          6
     ??TestApp_ProcessEvent?relay                  6
     ??TestApp_ProcessZDOMsgs?relay                6
     ??TestApp_HandleKeys?relay                    6
     ??TestApp_MessageMSGCB?relay                  6
     ??TestApp_SendTheMessage?relay                6
     ??TestApp_SendPeriodicDHT11Message?relay      6
     ??TestApp_SendPeriodicDS18B20Message?relay    6
     ??TestApp_GetDHT11SensorData?relay            6
     ?<Constant "Group 3">                         8
     ?<Constant "UartInit OK\n">                  13
     ?<Constant "TestApp">                         8
     ?<Constant "rcvd">                            5
     ?<Constant "DHT11: ">                         8
     ?<Constant "DS18B20: ">                      10
     ?<Constant "\r\n">                            3
     ?<Constant "Hello World">                    12

 
 1 010 bytes in segment BANKED_CODE
    54 bytes in segment BANK_RELAYS
    83 bytes in segment XDATA_ROM_C
    69 bytes in segment XDATA_Z
 
 1 064 bytes of CODE  memory
    83 bytes of CONST memory
    69 bytes of XDATA memory

Errors: none
Warnings: none
