///////////////////////////////////////////////////////////////////////////////
//                                                                            /
// IAR C/C++ Compiler V8.10.3.10338/W32 for 8051        25/Jan/2016  16:03:35 /
// Copyright 2004-2011 IAR Systems AB.                                        /
//                                                                            /
//    Core               =  plain                                             /
//    Code model         =  banked                                            /
//    Data model         =  large                                             /
//    Calling convention =  xdata reentrant                                   /
//    Constant location  =  data_rom                                          /
//    Dptr setup         =  1,16                                              /
//    Source file        =  E:\Work Codes\ZigBee\Network\Projects\zstack\Samp /
//                          les\TestApp\Source\TestApp.c                      /
//    Command line       =  -f "E:\Work Codes\ZigBee\Network\Projects\zstack\ /
//                          Samples\TestApp\CC2530DB\..\..\..\Tools\CC2530DB\ /
//                          f8wCoord.cfg" (-DCPU32MHZ -DROOT=__near_func      /
//                          -DMAC_CFG_APP_PENDING_QUEUE=TRUE                  /
//                          -DZDO_COORDINATOR -DRTR_NWK -DBLINK_LEDS) -f      /
//                          "E:\Work Codes\ZigBee\Network\Projects\zstack\Sam /
//                          ples\TestApp\CC2530DB\..\..\..\Tools\CC2530DB\f8w /
//                          Config.cfg" (-DSECURE=0 -DZG_SECURE_DYNAMIC=0     /
//                          -DREFLECTOR -DDEFAULT_CHANLIST=0x00000800         /
//                          -DZDAPP_CONFIG_PAN_ID=0xFFFB                      /
//                          -DNWK_START_DELAY=100 -DEXTENDED_JOINING_RANDOM_M /
//                          ASK=0x007F -DBEACON_REQUEST_DELAY=100             /
//                          -DBEACON_REQ_DELAY_MASK=0x00FF                    /
//                          -DROUTE_EXPIRY_TIME=30 -DAPSC_ACK_WAIT_DURATION_P /
//                          OLLED=3000 -DNWK_INDIRECT_MSG_TIMEOUT=7           /
//                          -DMAX_RREQ_ENTRIES=8 -DAPSC_MAX_FRAME_RETRIES=3   /
//                          -DNWK_MAX_DATA_RETRIES=2                          /
//                          -DMAX_POLL_FAILURE_RETRIES=2 -DMAX_BCAST=9        /
//                          -DAPS_MAX_GROUPS=16 -DMAX_RTG_ENTRIES=40          /
//                          -DNWK_MAX_BINDING_ENTRIES=4                       /
//                          -DMAX_BINDING_CLUSTER_IDS=4                       /
//                          "-DDEFAULT_KEY={0x01, 0x03, 0x05, 0x07, 0x09,     /
//                          0x0B, 0x0D, 0x0F, 0x00, 0x02, 0x04, 0x06, 0x08,   /
//                          0x0A, 0x0C, 0x0D}" -DMAC_MAX_FRAME_SIZE=116       /
//                          "-DCONST=const __code" -DGENERIC=__generic        /
//                          -DRFD_RCVC_ALWAYS_ON=FALSE -DPOLL_RATE=1000       /
//                          -DQUEUED_POLL_RATE=100 -DRESPONSE_POLL_RATE=100)  /
//                          -DREJOIN_POLL_RATE=440 "E:\Work                   /
//                          Codes\ZigBee\Network\Projects\zstack\Samples\Test /
//                          App\Source\TestApp.c" -D ZTOOL_P1 -D xMT_TASK -D  /
//                          xMT_SYS_FUNC -D xMT_ZDO_FUNC -D                   /
//                          LCD_SUPPORTED=DEBUG -lC "E:\Work                  /
//                          Codes\ZigBee\Network\Projects\zstack\Samples\Test /
//                          App\CC2530DB\CoordinatorEB\List\" -lA "E:\Work    /
//                          Codes\ZigBee\Network\Projects\zstack\Samples\Test /
//                          App\CC2530DB\CoordinatorEB\List\"                 /
//                          --diag_suppress Pe001,Pa010 -o "E:\Work           /
//                          Codes\ZigBee\Network\Projects\zstack\Samples\Test /
//                          App\CC2530DB\CoordinatorEB\Obj\" -e --debug       /
//                          --core=plain --dptr=16,1 --data_model=large       /
//                          --code_model=banked --calling_convention=xdata_re /
//                          entrant --place_constants=data_rom                /
//                          --nr_virtual_regs 16 -I "E:\Work                  /
//                          Codes\ZigBee\Network\Projects\zstack\Samples\Test /
//                          App\CC2530DB\" -I "E:\Work                        /
//                          Codes\ZigBee\Network\Projects\zstack\Samples\Test /
//                          App\CC2530DB\..\SOURCE\" -I "E:\Work              /
//                          Codes\ZigBee\Network\Projects\zstack\Samples\Test /
//                          App\CC2530DB\..\..\..\ZMAIN\TI2530DB\" -I         /
//                          "E:\Work Codes\ZigBee\Network\Projects\zstack\Sam /
//                          ples\TestApp\CC2530DB\..\..\..\..\..\COMPONENTS\M /
//                          T\" -I "E:\Work Codes\ZigBee\Network\Projects\zst /
//                          ack\Samples\TestApp\CC2530DB\..\..\..\..\..\COMPO /
//                          NENTS\HAL\INCLUDE\" -I "E:\Work                   /
//                          Codes\ZigBee\Network\Projects\zstack\Samples\Test /
//                          App\CC2530DB\..\..\..\..\..\COMPONENTS\HAL\TARGET /
//                          \CC2530EB\" -I "E:\Work                           /
//                          Codes\ZigBee\Network\Projects\zstack\Samples\Test /
//                          App\CC2530DB\..\..\..\..\..\COMPONENTS\OSAL\MCU\C /
//                          CSOC\" -I "E:\Work Codes\ZigBee\Network\Projects\ /
//                          zstack\Samples\TestApp\CC2530DB\..\..\..\..\..\CO /
//                          MPONENTS\OSAL\INCLUDE\" -I "E:\Work               /
//                          Codes\ZigBee\Network\Projects\zstack\Samples\Test /
//                          App\CC2530DB\..\..\..\..\..\COMPONENTS\STACK\AF\" /
//                           -I "E:\Work Codes\ZigBee\Network\Projects\zstack /
//                          \Samples\TestApp\CC2530DB\..\..\..\..\..\COMPONEN /
//                          TS\STACK\NWK\" -I "E:\Work                        /
//                          Codes\ZigBee\Network\Projects\zstack\Samples\Test /
//                          App\CC2530DB\..\..\..\..\..\COMPONENTS\STACK\SEC\ /
//                          " -I "E:\Work Codes\ZigBee\Network\Projects\zstac /
//                          k\Samples\TestApp\CC2530DB\..\..\..\..\..\COMPONE /
//                          NTS\STACK\SAPI\" -I "E:\Work                      /
//                          Codes\ZigBee\Network\Projects\zstack\Samples\Test /
//                          App\CC2530DB\..\..\..\..\..\COMPONENTS\STACK\SYS\ /
//                          " -I "E:\Work Codes\ZigBee\Network\Projects\zstac /
//                          k\Samples\TestApp\CC2530DB\..\..\..\..\..\COMPONE /
//                          NTS\STACK\ZDO\" -I "E:\Work                       /
//                          Codes\ZigBee\Network\Projects\zstack\Samples\Test /
//                          App\CC2530DB\..\..\..\..\..\COMPONENTS\ZMAC\F8W\" /
//                           -I "E:\Work Codes\ZigBee\Network\Projects\zstack /
//                          \Samples\TestApp\CC2530DB\..\..\..\..\..\COMPONEN /
//                          TS\ZMAC\" -I "E:\Work Codes\ZigBee\Network\Projec /
//                          ts\zstack\Samples\TestApp\CC2530DB\..\..\..\..\.. /
//                          \COMPONENTS\SERVICES\SADDR\" -I "E:\Work          /
//                          Codes\ZigBee\Network\Projects\zstack\Samples\Test /
//                          App\CC2530DB\..\..\..\..\..\COMPONENTS\SERVICES\S /
//                          DATA\" -I "E:\Work Codes\ZigBee\Network\Projects\ /
//                          zstack\Samples\TestApp\CC2530DB\..\..\..\..\..\CO /
//                          MPONENTS\MAC\INCLUDE\" -I "E:\Work                /
//                          Codes\ZigBee\Network\Projects\zstack\Samples\Test /
//                          App\CC2530DB\..\..\..\..\..\COMPONENTS\MAC\HIGH_L /
//                          EVEL\" -I "E:\Work Codes\ZigBee\Network\Projects\ /
//                          zstack\Samples\TestApp\CC2530DB\..\..\..\..\..\CO /
//                          MPONENTS\MAC\LOW_LEVEL\srf04\" -I "E:\Work        /
//                          Codes\ZigBee\Network\Projects\zstack\Samples\Test /
//                          App\CC2530DB\..\..\..\..\..\COMPONENTS\MAC\LOW_LE /
//                          VEL\srf04\SINGLE_CHIP\" -Ohz --require_prototypes /
//    List file          =  E:\Work Codes\ZigBee\Network\Projects\zstack\Samp /
//                          les\TestApp\CC2530DB\CoordinatorEB\List\TestApp.s /
//                          51                                                /
//                                                                            /
//                                                                            /
///////////////////////////////////////////////////////////////////////////////

        NAME TestApp

        RTMODEL "__SystemLibrary", "CLib"
        RTMODEL "__calling_convention", "xdata_reentrant"
        RTMODEL "__code_model", "banked"
        RTMODEL "__core", "plain"
        RTMODEL "__data_model", "large"
        RTMODEL "__dptr_size", "16"
        RTMODEL "__extended_stack", "disabled"
        RTMODEL "__location_for_constants", "data"
        RTMODEL "__number_of_dptrs", "1"
        RTMODEL "__rt_version", "1"

        RSEG DOVERLAY:DATA:NOROOT(0)
        RSEG IOVERLAY:IDATA:NOROOT(0)
        RSEG ISTACK:IDATA:NOROOT(0)
        RSEG PSTACK:XDATA:NOROOT(0)
        RSEG XSTACK:XDATA:NOROOT(0)

        EXTERN ?ALLOC_XSTACK8
        EXTERN ?BANKED_ENTER_XDATA
        EXTERN ?BANKED_LEAVE_XDATA
        EXTERN ?BDISPATCH
        EXTERN ?BRET
        EXTERN ?DEALLOC_XSTACK8
        EXTERN ?MOVE_LONG8_XDATA_XDATA
        EXTERN ?PUSH_XSTACK_I_ONE
        EXTERN ?PUSH_XSTACK_I_THREE
        EXTERN ?PUSH_XSTACK_I_TWO
        EXTERN ?US_SWITCH_DENSE
        EXTERN ?US_SWITCH_SPARSE
        EXTERN ?V0
        EXTERN ?XSP
        EXTERN ?XSTACK_DISP0_8
        EXTERN __INIT_XDATA_Z

        PUBLIC ??TestApp_GetDHT11SensorData?relay
        FUNCTION ??TestApp_GetDHT11SensorData?relay,0203H
        PUBLIC ??TestApp_HandleKeys?relay
        FUNCTION ??TestApp_HandleKeys?relay,0203H
        PUBLIC ??TestApp_Init?relay
        FUNCTION ??TestApp_Init?relay,0203H
        PUBLIC ??TestApp_MessageMSGCB?relay
        FUNCTION ??TestApp_MessageMSGCB?relay,0203H
        PUBLIC ??TestApp_ProcessEvent?relay
        FUNCTION ??TestApp_ProcessEvent?relay,0203H
        PUBLIC ??TestApp_ProcessZDOMsgs?relay
        FUNCTION ??TestApp_ProcessZDOMsgs?relay,0203H
        PUBLIC ??TestApp_SendPeriodicDHT11Message?relay
        FUNCTION ??TestApp_SendPeriodicDHT11Message?relay,0203H
        PUBLIC ??TestApp_SendPeriodicDS18B20Message?relay
        FUNCTION ??TestApp_SendPeriodicDS18B20Message?relay,0203H
        PUBLIC ??TestApp_SendTheMessage?relay
        FUNCTION ??TestApp_SendTheMessage?relay,0203H
        PUBLIC Dht11Data
        PUBLIC TestApp_ClusterList
        PUBLIC TestApp_DstAddr
        PUBLIC TestApp_Flash_DstAddr
        PUBLIC TestApp_GetDHT11SensorData
        FUNCTION TestApp_GetDHT11SensorData,0203H
        ARGFRAME XSTACK, 0, STACK
        PUBLIC TestApp_Group
        PUBLIC TestApp_HandleKeys
        FUNCTION TestApp_HandleKeys,021203H
        ARGFRAME XSTACK, 12, STACK
        ARGFRAME IOVERLAY, 0, STATIC
        ARGFRAME DOVERLAY, 0, STATIC
        LOCFRAME XSTACK, 9, STACK
        PUBLIC TestApp_Init
        FUNCTION TestApp_Init,021203H
        ARGFRAME XSTACK, 0, STACK
        LOCFRAME XSTACK, 14, STACK
        PUBLIC TestApp_MessageMSGCB
        FUNCTION TestApp_MessageMSGCB,0a1203H
        ARGFRAME XSTACK, 12, STACK
        ARGFRAME IOVERLAY, 0, STATIC
        ARGFRAME DOVERLAY, 0, STATIC
        LOCFRAME XSTACK, 10, STACK
        PUBLIC TestApp_NwkState
        PUBLIC TestApp_Periodic_DstAddr
        PUBLIC TestApp_ProcessEvent
        FUNCTION TestApp_ProcessEvent,021203H
        ARGFRAME XSTACK, 0, STACK
        LOCFRAME XSTACK, 12, STACK
        PUBLIC TestApp_ProcessZDOMsgs
        FUNCTION TestApp_ProcessZDOMsgs,0a1203H
        ARGFRAME XSTACK, 12, STACK
        ARGFRAME IOVERLAY, 0, STATIC
        ARGFRAME DOVERLAY, 0, STATIC
        LOCFRAME XSTACK, 10, STACK
        PUBLIC TestApp_SendPeriodicDHT11Message
        FUNCTION TestApp_SendPeriodicDHT11Message,021203H
        ARGFRAME XSTACK, 0, STACK
        LOCFRAME XSTACK, 20, STACK
        PUBLIC TestApp_SendPeriodicDS18B20Message
        FUNCTION TestApp_SendPeriodicDS18B20Message,0203H
        ARGFRAME XSTACK, 0, STACK
        PUBLIC TestApp_SendTheMessage
        FUNCTION TestApp_SendTheMessage,021203H
        ARGFRAME XSTACK, 12, STACK
        ARGFRAME IOVERLAY, 0, STATIC
        ARGFRAME DOVERLAY, 0, STATIC
        LOCFRAME ISTACK, 2, STACK
        LOCFRAME XSTACK, 31, STACK
        PUBLIC TestApp_SimpleDesc
        PUBLIC TestApp_TaskID
        PUBLIC TestApp_TransID
        PUBLIC TestApp_epDesc
        
        CFI Names cfiNames0
        CFI StackFrame CFA_SP SP IDATA
        CFI StackFrame CFA_PSP16 PSP16 XDATA
        CFI StackFrame CFA_XSP16 XSP16 XDATA
        CFI StaticOverlayFrame CFA_IOVERLAY IOVERLAY
        CFI StaticOverlayFrame CFA_DOVERLAY DOVERLAY
        CFI Resource `PSW.CY`:1, `B.BR0`:1, `B.BR1`:1, `B.BR2`:1, `B.BR3`:1
        CFI Resource `B.BR4`:1, `B.BR5`:1, `B.BR6`:1, `B.BR7`:1, `VB.BR8`:1
        CFI Resource `VB.BR9`:1, `VB.BR10`:1, `VB.BR11`:1, `VB.BR12`:1
        CFI Resource `VB.BR13`:1, `VB.BR14`:1, `VB.BR15`:1, VB:8, B:8, A:8
        CFI Resource PSW:8, DPL0:8, DPH0:8, R0:8, R1:8, R2:8, R3:8, R4:8, R5:8
        CFI Resource R6:8, R7:8, V0:8, V1:8, V2:8, V3:8, V4:8, V5:8, V6:8, V7:8
        CFI Resource V8:8, V9:8, V10:8, V11:8, V12:8, V13:8, V14:8, V15:8, SP:8
        CFI Resource PSPH:8, PSPL:8, PSP16:16, XSPH:8, XSPL:8, XSP16:16
        CFI VirtualResource ?RET:24
        CFI Resource ?BRET_EXT:8
        CFI VirtualResource ?RET_HIGH:8, ?RET_LOW:8
        CFI ResourceParts PSP16 PSPH, PSPL
        CFI ResourceParts XSP16 XSPH, XSPL
        CFI ResourceParts ?RET ?BRET_EXT, ?RET_HIGH, ?RET_LOW
        CFI EndNames cfiNames0
        
        CFI Common cfiCommon0 Using cfiNames0
        CFI CodeAlign 1
        CFI DataAlign -1
        CFI ReturnAddress ?RET CODE
        CFI CFA_DOVERLAY Used
        CFI CFA_IOVERLAY Used
        CFI CFA_SP SP+-3
        CFI CFA_PSP16 PSP16+0
        CFI CFA_XSP16 XSP16+0
        CFI `PSW.CY` SameValue
        CFI `B.BR0` SameValue
        CFI `B.BR1` SameValue
        CFI `B.BR2` SameValue
        CFI `B.BR3` SameValue
        CFI `B.BR4` SameValue
        CFI `B.BR5` SameValue
        CFI `B.BR6` SameValue
        CFI `B.BR7` SameValue
        CFI `VB.BR8` SameValue
        CFI `VB.BR9` SameValue
        CFI `VB.BR10` SameValue
        CFI `VB.BR11` SameValue
        CFI `VB.BR12` SameValue
        CFI `VB.BR13` SameValue
        CFI `VB.BR14` SameValue
        CFI `VB.BR15` SameValue
        CFI VB SameValue
        CFI B Undefined
        CFI A Undefined
        CFI PSW SameValue
        CFI DPL0 SameValue
        CFI DPH0 SameValue
        CFI R0 Undefined
        CFI R1 Undefined
        CFI R2 Undefined
        CFI R3 Undefined
        CFI R4 Undefined
        CFI R5 Undefined
        CFI R6 SameValue
        CFI R7 SameValue
        CFI V0 SameValue
        CFI V1 SameValue
        CFI V2 SameValue
        CFI V3 SameValue
        CFI V4 SameValue
        CFI V5 SameValue
        CFI V6 SameValue
        CFI V7 SameValue
        CFI V8 SameValue
        CFI V9 SameValue
        CFI V10 SameValue
        CFI V11 SameValue
        CFI V12 SameValue
        CFI V13 SameValue
        CFI V14 SameValue
        CFI V15 SameValue
        CFI PSPH Undefined
        CFI PSPL Undefined
        CFI XSPH Undefined
        CFI XSPL Undefined
        CFI ?RET Concat
        CFI ?BRET_EXT Frame(CFA_SP, 3)
        CFI ?RET_HIGH Frame(CFA_SP, 2)
        CFI ?RET_LOW Frame(CFA_SP, 1)
        CFI EndCommon cfiCommon0
        
        
        CFI Common cfiCommon1 Using cfiNames0
        CFI CodeAlign 1
        CFI DataAlign -1
        CFI ReturnAddress ?RET CODE
        CFI CFA_DOVERLAY Used
        CFI CFA_IOVERLAY Used
        CFI CFA_SP SP+-2
        CFI CFA_PSP16 PSP16+0
        CFI CFA_XSP16 XSP16+0
        CFI `PSW.CY` SameValue
        CFI `B.BR0` SameValue
        CFI `B.BR1` SameValue
        CFI `B.BR2` SameValue
        CFI `B.BR3` SameValue
        CFI `B.BR4` SameValue
        CFI `B.BR5` SameValue
        CFI `B.BR6` SameValue
        CFI `B.BR7` SameValue
        CFI `VB.BR8` SameValue
        CFI `VB.BR9` SameValue
        CFI `VB.BR10` SameValue
        CFI `VB.BR11` SameValue
        CFI `VB.BR12` SameValue
        CFI `VB.BR13` SameValue
        CFI `VB.BR14` SameValue
        CFI `VB.BR15` SameValue
        CFI VB SameValue
        CFI B SameValue
        CFI A SameValue
        CFI PSW SameValue
        CFI DPL0 SameValue
        CFI DPH0 SameValue
        CFI R0 SameValue
        CFI R1 SameValue
        CFI R2 SameValue
        CFI R3 SameValue
        CFI R4 SameValue
        CFI R5 SameValue
        CFI R6 SameValue
        CFI R7 SameValue
        CFI V0 SameValue
        CFI V1 SameValue
        CFI V2 SameValue
        CFI V3 SameValue
        CFI V4 SameValue
        CFI V5 SameValue
        CFI V6 SameValue
        CFI V7 SameValue
        CFI V8 SameValue
        CFI V9 SameValue
        CFI V10 SameValue
        CFI V11 SameValue
        CFI V12 SameValue
        CFI V13 SameValue
        CFI V14 SameValue
        CFI V15 SameValue
        CFI PSPH Undefined
        CFI PSPL Undefined
        CFI XSPH Undefined
        CFI XSPL Undefined
        CFI ?RET Concat
        CFI ?BRET_EXT SameValue
        CFI ?RET_HIGH Frame(CFA_SP, 2)
        CFI ?RET_LOW Frame(CFA_SP, 1)
        CFI EndCommon cfiCommon1
        
osal_memcpy         SYMBOL "osal_memcpy"
aps_AddGroup        SYMBOL "aps_AddGroup"
MT_UartInit         SYMBOL "MT_UartInit"
MT_UartRegisterTaskID SYMBOL "MT_UartRegisterTaskID"
HalUARTWrite        SYMBOL "HalUARTWrite"
afRegister          SYMBOL "afRegister"
RegisterForKeys     SYMBOL "RegisterForKeys"
HalLcdWriteString   SYMBOL "HalLcdWriteString"
osal_msg_receive    SYMBOL "osal_msg_receive"
osal_start_timerEx  SYMBOL "osal_start_timerEx"
osal_msg_deallocate SYMBOL "osal_msg_deallocate"
HalLedSet           SYMBOL "HalLedSet"
ZDO_ParseEPListRsp  SYMBOL "ZDO_ParseEPListRsp"
osal_mem_free       SYMBOL "osal_mem_free"
HalLcdWriteScreen   SYMBOL "HalLcdWriteScreen"
osal_strlen         SYMBOL "osal_strlen"
AF_DataRequest      SYMBOL "AF_DataRequest"
??AF_DataRequest?relay SYMBOL "?relay", AF_DataRequest
??HalLcdWriteScreen?relay SYMBOL "?relay", HalLcdWriteScreen
??HalLcdWriteString?relay SYMBOL "?relay", HalLcdWriteString
??HalLedSet?relay   SYMBOL "?relay", HalLedSet
??HalUARTWrite?relay SYMBOL "?relay", HalUARTWrite
??MT_UartInit?relay SYMBOL "?relay", MT_UartInit
??MT_UartRegisterTaskID?relay SYMBOL "?relay", MT_UartRegisterTaskID
??RegisterForKeys?relay SYMBOL "?relay", RegisterForKeys
??ZDO_ParseEPListRsp?relay SYMBOL "?relay", ZDO_ParseEPListRsp
??afRegister?relay  SYMBOL "?relay", afRegister
??aps_AddGroup?relay SYMBOL "?relay", aps_AddGroup
??osal_mem_free?relay SYMBOL "?relay", osal_mem_free
??osal_memcpy?relay SYMBOL "?relay", osal_memcpy
??osal_msg_deallocate?relay SYMBOL "?relay", osal_msg_deallocate
??osal_msg_receive?relay SYMBOL "?relay", osal_msg_receive
??osal_start_timerEx?relay SYMBOL "?relay", osal_start_timerEx
??osal_strlen?relay SYMBOL "?relay", osal_strlen
TestApp_GetDHT11SensorData SYMBOL "TestApp_GetDHT11SensorData"
??TestApp_GetDHT11SensorData?relay SYMBOL "?relay", TestApp_GetDHT11SensorData
TestApp_HandleKeys  SYMBOL "TestApp_HandleKeys"
??TestApp_HandleKeys?relay SYMBOL "?relay", TestApp_HandleKeys
TestApp_Init        SYMBOL "TestApp_Init"
??TestApp_Init?relay SYMBOL "?relay", TestApp_Init
TestApp_MessageMSGCB SYMBOL "TestApp_MessageMSGCB"
??TestApp_MessageMSGCB?relay SYMBOL "?relay", TestApp_MessageMSGCB
TestApp_ProcessEvent SYMBOL "TestApp_ProcessEvent"
??TestApp_ProcessEvent?relay SYMBOL "?relay", TestApp_ProcessEvent
TestApp_ProcessZDOMsgs SYMBOL "TestApp_ProcessZDOMsgs"
??TestApp_ProcessZDOMsgs?relay SYMBOL "?relay", TestApp_ProcessZDOMsgs
TestApp_SendPeriodicDHT11Message SYMBOL "TestApp_SendPeriodicDHT11Message"
??TestApp_SendPeriodicDHT11Message?relay SYMBOL "?relay", TestApp_SendPeriodicDHT11Message
TestApp_SendPeriodicDS18B20Message SYMBOL "TestApp_SendPeriodicDS18B20Message"
??TestApp_SendPeriodicDS18B20Message?relay SYMBOL "?relay", TestApp_SendPeriodicDS18B20Message
TestApp_SendTheMessage SYMBOL "TestApp_SendTheMessage"
??TestApp_SendTheMessage?relay SYMBOL "?relay", TestApp_SendTheMessage

        EXTERN osal_memcpy
        FUNCTION osal_memcpy,0202H
        ARGFRAME ISTACK, 0, STACK
        ARGFRAME PSTACK, 0, STACK
        ARGFRAME XSTACK, 14, STACK
        ARGFRAME IOVERLAY, 0, STATIC
        ARGFRAME DOVERLAY, 0, STATIC
        EXTERN aps_AddGroup
        FUNCTION aps_AddGroup,0202H
        ARGFRAME ISTACK, 0, STACK
        ARGFRAME PSTACK, 0, STACK
        ARGFRAME XSTACK, 11, STACK
        ARGFRAME IOVERLAY, 0, STATIC
        ARGFRAME DOVERLAY, 0, STATIC
        EXTERN MT_UartInit
        FUNCTION MT_UartInit,0202H
        ARGFRAME ISTACK, 0, STACK
        ARGFRAME PSTACK, 0, STACK
        ARGFRAME XSTACK, 11, STACK
        ARGFRAME IOVERLAY, 0, STATIC
        ARGFRAME DOVERLAY, 0, STATIC
        EXTERN MT_UartRegisterTaskID
        FUNCTION MT_UartRegisterTaskID,0202H
        ARGFRAME ISTACK, 0, STACK
        ARGFRAME PSTACK, 0, STACK
        ARGFRAME XSTACK, 11, STACK
        ARGFRAME IOVERLAY, 0, STATIC
        ARGFRAME DOVERLAY, 0, STATIC
        EXTERN HalUARTWrite
        FUNCTION HalUARTWrite,0202H
        ARGFRAME ISTACK, 0, STACK
        ARGFRAME PSTACK, 0, STACK
        ARGFRAME XSTACK, 11, STACK
        ARGFRAME IOVERLAY, 0, STATIC
        ARGFRAME DOVERLAY, 0, STATIC
        EXTERN afRegister
        FUNCTION afRegister,0202H
        ARGFRAME ISTACK, 0, STACK
        ARGFRAME PSTACK, 0, STACK
        ARGFRAME XSTACK, 11, STACK
        ARGFRAME IOVERLAY, 0, STATIC
        ARGFRAME DOVERLAY, 0, STATIC
        EXTERN RegisterForKeys
        FUNCTION RegisterForKeys,0202H
        ARGFRAME ISTACK, 0, STACK
        ARGFRAME PSTACK, 0, STACK
        ARGFRAME XSTACK, 11, STACK
        ARGFRAME IOVERLAY, 0, STATIC
        ARGFRAME DOVERLAY, 0, STATIC
        EXTERN HalLcdWriteString
        FUNCTION HalLcdWriteString,0202H
        ARGFRAME ISTACK, 0, STACK
        ARGFRAME PSTACK, 0, STACK
        ARGFRAME XSTACK, 11, STACK
        ARGFRAME IOVERLAY, 0, STATIC
        ARGFRAME DOVERLAY, 0, STATIC
        EXTERN osal_msg_receive
        FUNCTION osal_msg_receive,0202H
        ARGFRAME ISTACK, 0, STACK
        ARGFRAME PSTACK, 0, STACK
        ARGFRAME XSTACK, 12, STACK
        ARGFRAME IOVERLAY, 0, STATIC
        ARGFRAME DOVERLAY, 0, STATIC
        EXTERN osal_start_timerEx
        FUNCTION osal_start_timerEx,0202H
        ARGFRAME ISTACK, 0, STACK
        ARGFRAME PSTACK, 0, STACK
        ARGFRAME XSTACK, 12, STACK
        ARGFRAME IOVERLAY, 0, STATIC
        ARGFRAME DOVERLAY, 0, STATIC
        EXTERN osal_msg_deallocate
        FUNCTION osal_msg_deallocate,0202H
        ARGFRAME ISTACK, 0, STACK
        ARGFRAME PSTACK, 0, STACK
        ARGFRAME XSTACK, 12, STACK
        ARGFRAME IOVERLAY, 0, STATIC
        ARGFRAME DOVERLAY, 0, STATIC
        EXTERN HalLedSet
        FUNCTION HalLedSet,0202H
        ARGFRAME ISTACK, 0, STACK
        ARGFRAME PSTACK, 0, STACK
        ARGFRAME XSTACK, 10, STACK
        ARGFRAME IOVERLAY, 0, STATIC
        ARGFRAME DOVERLAY, 0, STATIC
        EXTERN ZDO_ParseEPListRsp
        FUNCTION ZDO_ParseEPListRsp,0202H
        ARGFRAME ISTACK, 0, STACK
        ARGFRAME PSTACK, 0, STACK
        ARGFRAME XSTACK, 10, STACK
        ARGFRAME IOVERLAY, 0, STATIC
        ARGFRAME DOVERLAY, 0, STATIC
        EXTERN osal_mem_free
        FUNCTION osal_mem_free,0202H
        ARGFRAME ISTACK, 0, STACK
        ARGFRAME PSTACK, 0, STACK
        ARGFRAME XSTACK, 10, STACK
        ARGFRAME IOVERLAY, 0, STATIC
        ARGFRAME DOVERLAY, 0, STATIC
        EXTERN HalLcdWriteScreen
        FUNCTION HalLcdWriteScreen,0202H
        ARGFRAME ISTACK, 0, STACK
        ARGFRAME PSTACK, 0, STACK
        ARGFRAME XSTACK, 10, STACK
        ARGFRAME IOVERLAY, 0, STATIC
        ARGFRAME DOVERLAY, 0, STATIC
        EXTERN osal_strlen
        FUNCTION osal_strlen,0202H
        ARGFRAME ISTACK, 0, STACK
        ARGFRAME PSTACK, 0, STACK
        ARGFRAME XSTACK, 27, STACK
        ARGFRAME IOVERLAY, 0, STATIC
        ARGFRAME DOVERLAY, 0, STATIC
        EXTERN AF_DataRequest
        FUNCTION AF_DataRequest,0202H
        ARGFRAME ISTACK, 0, STACK
        ARGFRAME PSTACK, 0, STACK
        ARGFRAME XSTACK, 31, STACK
        ARGFRAME IOVERLAY, 0, STATIC
        ARGFRAME DOVERLAY, 0, STATIC
        EXTERN ??AF_DataRequest?relay
        FUNCTION ??AF_DataRequest?relay,00H
        EXTERN ??HalLcdWriteScreen?relay
        FUNCTION ??HalLcdWriteScreen?relay,00H
        EXTERN ??HalLcdWriteString?relay
        FUNCTION ??HalLcdWriteString?relay,00H
        EXTERN ??HalLedSet?relay
        FUNCTION ??HalLedSet?relay,00H
        EXTERN ??HalUARTWrite?relay
        FUNCTION ??HalUARTWrite?relay,00H
        EXTERN ??MT_UartInit?relay
        FUNCTION ??MT_UartInit?relay,00H
        EXTERN ??MT_UartRegisterTaskID?relay
        FUNCTION ??MT_UartRegisterTaskID?relay,00H
        EXTERN ??RegisterForKeys?relay
        FUNCTION ??RegisterForKeys?relay,00H
        EXTERN ??ZDO_ParseEPListRsp?relay
        FUNCTION ??ZDO_ParseEPListRsp?relay,00H
        EXTERN ??afRegister?relay
        FUNCTION ??afRegister?relay,00H
        EXTERN ??aps_AddGroup?relay
        FUNCTION ??aps_AddGroup?relay,00H
        EXTERN ??osal_mem_free?relay
        FUNCTION ??osal_mem_free?relay,00H
        EXTERN ??osal_memcpy?relay
        FUNCTION ??osal_memcpy?relay,00H
        EXTERN ??osal_msg_deallocate?relay
        FUNCTION ??osal_msg_deallocate?relay,00H
        EXTERN ??osal_msg_receive?relay
        FUNCTION ??osal_msg_receive?relay,00H
        EXTERN ??osal_start_timerEx?relay
        FUNCTION ??osal_start_timerEx?relay,00H
        EXTERN ??osal_strlen?relay
        FUNCTION ??osal_strlen?relay,00H

// E:\Work Codes\ZigBee\Network\Projects\zstack\Samples\TestApp\Source\TestApp.c
//    1 /**************************************************************************************************
//    2   Filename:       TestApp.c
//    3   Revised:        $Date: 2009-03-18 15:56:27 -0700 (Wed, 18 Mar 2009) $
//    4   Revision:       $Revision: 19453 $
//    5 
//    6   Description:    Generic Application (no Profile).
//    7 
//    8 
//    9   Copyright 2004-2009 Texas Instruments Incorporated. All rights reserved.
//   10 
//   11   IMPORTANT: Your use of this Software is limited to those specific rights
//   12   granted under the terms of a software license agreement between the user
//   13   who downloaded the software, his/her employer (which must be your employer)
//   14   and Texas Instruments Incorporated (the "License").  You may not use this
//   15   Software unless you agree to abide by the terms of the License. The License
//   16   limits your use, and you acknowledge, that the Software may not be modified,
//   17   copied or distributed unless embedded on a Texas Instruments microcontroller
//   18   or used solely and exclusively in conjunction with a Texas Instruments radio
//   19   frequency transceiver, which is integrated into your product.  Other than for
//   20   the foregoing purpose, you may not use, reproduce, copy, prepare derivative
//   21   works of, modify, distribute, perform, display or sell this Software and/or
//   22   its documentation for any purpose.
//   23 
//   24   YOU FURTHER ACKNOWLEDGE AND AGREE THAT THE SOFTWARE AND DOCUMENTATION ARE
//   25   PROVIDED AS IS?WITHOUT WARRANTY OF ANY KIND, EITHER EXPRESS OR IMPLIED, 
//   26   INCLUDING WITHOUT LIMITATION, ANY WARRANTY OF MERCHANTABILITY, TITLE, 
//   27   NON-INFRINGEMENT AND FITNESS FOR A PARTICULAR PURPOSE. IN NO EVENT SHALL
//   28   TEXAS INSTRUMENTS OR ITS LICENSORS BE LIABLE OR OBLIGATED UNDER CONTRACT,
//   29   NEGLIGENCE, STRICT LIABILITY, CONTRIBUTION, BREACH OF WARRANTY, OR OTHER
//   30   LEGAL EQUITABLE THEORY ANY DIRECT OR INDIRECT DAMAGES OR EXPENSES
//   31   INCLUDING BUT NOT LIMITED TO ANY INCIDENTAL, SPECIAL, INDIRECT, PUNITIVE
//   32   OR CONSEQUENTIAL DAMAGES, LOST PROFITS OR LOST DATA, COST OF PROCUREMENT
//   33   OF SUBSTITUTE GOODS, TECHNOLOGY, SERVICES, OR ANY CLAIMS BY THIRD PARTIES
//   34   (INCLUDING BUT NOT LIMITED TO ANY DEFENSE THEREOF), OR OTHER SIMILAR COSTS.
//   35 
//   36   Should you have any questions regarding your right to use this Software,
//   37   contact Texas Instruments Incorporated at www.TI.com. 
//   38 **************************************************************************************************/
//   39 
//   40 /*********************************************************************
//   41   This application isn't intended to do anything useful, it is
//   42   intended to be a simple example of an application's structure.
//   43 
//   44   This application sends "Hello World" to another "Generic"
//   45   application every 15 seconds.  The application will also
//   46   receive "Hello World" packets.
//   47 
//   48   The "Hello World" messages are sent/received as MSG type message.
//   49 
//   50   This applications doesn't have a profile, so it handles everything
//   51   directly - itself.
//   52 
//   53   Key control:
//   54     SW1:
//   55     SW2:  initiates end device binding
//   56     SW3:
//   57     SW4:  initiates a match description request
//   58 *********************************************************************/
//   59 
//   60 /*********************************************************************
//   61  * INCLUDES
//   62  */
//   63 #include "OSAL.h"
//   64 #include "AF.h"
//   65 #include "ZDApp.h"
//   66 #include "ZDObject.h"
//   67 #include "ZDProfile.h"
//   68 #include "aps_groups.h"
//   69 
//   70 #include "TestApp.h"
//   71 #include "DebugTrace.h"
//   72 
//   73 #if !defined( WIN32 )
//   74   #include "OnBoard.h"
//   75 #endif
//   76 
//   77 /* HAL */
//   78 #include "hal_lcd.h"
//   79 #include "hal_led.h"
//   80 #include "hal_key.h"
//   81 #include "hal_uart.h"
//   82 
//   83 #include "mt_uart.h"
//   84 
//   85 #include "stdlib.h"
//   86 #include "string.h"
//   87 
//   88 #if defined ( DHT11 )
//   89 	#include "dht11.h"
//   90 #elif defined ( DS18B20 )
//   91 	#include "ds18b20.h"
//   92 #endif
//   93 
//   94 
//   95 /*********************************************************************
//   96  * MACROS
//   97  */
//   98 
//   99 /*********************************************************************
//  100  * CONSTANTS
//  101  */
//  102 
//  103 /*********************************************************************
//  104  * TYPEDEFS
//  105  */
//  106 
//  107 /*********************************************************************
//  108  * GLOBAL VARIABLES
//  109  */

        RSEG XDATA_Z:XDATA:NOROOT(0)
        DATA8
//  110 uint8 Dht11Data[6];
Dht11Data:
        DS 6
        REQUIRE __INIT_XDATA_Z
//  111 
//  112 // This list should be filled with Application specific Cluster IDs.

        RSEG XDATA_ROM_C:CONST:REORDER:NOROOT(0)
        DATA32
//  113 const cId_t TestApp_ClusterList[TESTAPP_MAX_CLUSTERS] =
TestApp_ClusterList:
        DATA16
        DW 1
        DW 2
//  114 {
//  115   TESTAPP_CLUSTERID,
//  116 	TESTAPP_PERIODIC_CLUSTERID
//  117 };
//  118 

        RSEG XDATA_ROM_C:CONST:REORDER:NOROOT(0)
        DATA8
//  119 const SimpleDescriptionFormat_t TestApp_SimpleDesc =
TestApp_SimpleDesc:
        DB 10
        DATA16
        DW 3844
        DW 1
        DATA8
        DB 0
        DB 2
        DATA16
        DW TestApp_ClusterList
        DATA8
        DB 2
        DATA16
        DW TestApp_ClusterList
//  120 {
//  121   TESTAPP_ENDPOINT,              //  int Endpoint;
//  122   TESTAPP_PROFID,                //  uint16 AppProfId[2];
//  123   TESTAPP_DEVICEID,              //  uint16 AppDeviceId[2];
//  124   TESTAPP_DEVICE_VERSION,        //  int   AppDevVer:4;
//  125   TESTAPP_FLAGS,                 //  int   AppFlags:4;
//  126   TESTAPP_MAX_CLUSTERS,          //  byte  AppNumInClusters;
//  127   (cId_t *)TestApp_ClusterList,  //  byte *pAppInClusterList;
//  128   TESTAPP_MAX_CLUSTERS,          //  byte  AppNumOutClusters;
//  129   (cId_t *)TestApp_ClusterList   //  byte *pAppOutClusterList;
//  130 };
//  131 
//  132 // This is the Endpoint/Interface description.  It is defined here, but
//  133 // filled-in in TestApp_Init().  Another way to go would be to fill
//  134 // in the structure here and make it a "const" (in code space).  The
//  135 // way it's defined in this sample app it is define in RAM.

        RSEG XDATA_Z:XDATA:NOROOT(0)
        DATA8
//  136 endPointDesc_t TestApp_epDesc;
TestApp_epDesc:
        DS 6
        REQUIRE __INIT_XDATA_Z
//  137 
//  138 /*********************************************************************
//  139  * EXTERNAL VARIABLES
//  140  */
//  141 
//  142 /*********************************************************************
//  143  * EXTERNAL FUNCTIONS
//  144  */
//  145 
//  146 /*********************************************************************
//  147  * LOCAL VARIABLES
//  148  */

        RSEG XDATA_Z:XDATA:NOROOT(0)
        DATA8
//  149 byte TestApp_TaskID;   // Task ID for internal task/event processing
TestApp_TaskID:
        DS 1
        REQUIRE __INIT_XDATA_Z
//  150                           // This variable will be received when
//  151                           // TestApp_Init() is called.

        RSEG XDATA_Z:XDATA:NOROOT(0)
        DATA8
//  152 devStates_t TestApp_NwkState;
TestApp_NwkState:
        DS 1
        REQUIRE __INIT_XDATA_Z
//  153 
//  154 

        RSEG XDATA_Z:XDATA:NOROOT(0)
        DATA8
//  155 byte TestApp_TransID;  // This is the unique message ID (counter)
TestApp_TransID:
        DS 1
        REQUIRE __INIT_XDATA_Z
//  156 

        RSEG XDATA_Z:XDATA:NOROOT(0)
        DATA8
//  157 afAddrType_t TestApp_DstAddr;						// 用于单播
TestApp_DstAddr:
        DS 12
        REQUIRE __INIT_XDATA_Z

        RSEG XDATA_Z:XDATA:NOROOT(0)
        DATA8
//  158 afAddrType_t TestApp_Periodic_DstAddr;	// 用于周期性广播
TestApp_Periodic_DstAddr:
        DS 12
        REQUIRE __INIT_XDATA_Z

        RSEG XDATA_Z:XDATA:NOROOT(0)
        DATA8
//  159 afAddrType_t TestApp_Flash_DstAddr;			// 用于组播
TestApp_Flash_DstAddr:
        DS 12
        REQUIRE __INIT_XDATA_Z
//  160 

        RSEG XDATA_Z:XDATA:NOROOT(0)
        DATA8
//  161 aps_Group_t TestApp_Group;	//  用于组播
TestApp_Group:
        DS 18
        REQUIRE __INIT_XDATA_Z
//  162 
//  163 /*********************************************************************
//  164  * LOCAL FUNCTIONS
//  165  */
//  166 void TestApp_ProcessZDOMsgs( zdoIncomingMsg_t *inMsg );
//  167 void TestApp_HandleKeys( byte shift, byte keys );
//  168 void TestApp_MessageMSGCB( afIncomingMSGPacket_t *pckt );
//  169 void TestApp_SendTheMessage( void );
//  170 void TestApp_SendPeriodicDHT11Message(void);
//  171 void TestApp_SendPeriodicDS18B20Message(void);
//  172 uint8 TestApp_GetDHT11SensorData(void);
//  173 
//  174 /*********************************************************************
//  175  * NETWORK LAYER CALLBACKS
//  176  */
//  177 
//  178 /*********************************************************************
//  179  * PUBLIC FUNCTIONS
//  180  */
//  181 
//  182 /*********************************************************************
//  183  * @fn      TestApp_Init
//  184  *
//  185  * @brief   Initialization function for the Generic App Task.
//  186  *          This is called during initialization and should contain
//  187  *          any application specific initialization (ie. hardware
//  188  *          initialization/setup, table initialization, power up
//  189  *          notificaiton ... ).
//  190  *
//  191  * @param   task_id - the ID assigned by OSAL.  This ID should be
//  192  *                    used to send messages and set timers.
//  193  *
//  194  * @return  none
//  195  */

        RSEG BANKED_CODE:CODE:NOROOT(0)
//  196 void TestApp_Init( byte task_id )
TestApp_Init:
        CFI Block cfiBlock0 Using cfiCommon0
        CFI Function TestApp_Init
        CODE
//  197 {
        FUNCALL TestApp_Init, osal_memcpy
        LOCFRAME ISTACK, 0, STACK
        LOCFRAME PSTACK, 0, STACK
        LOCFRAME XSTACK, 14, STACK
        LOCFRAME IOVERLAY, 0, STATIC
        LOCFRAME DOVERLAY, 0, STATIC
        ARGFRAME ISTACK, 0, STACK
        ARGFRAME PSTACK, 0, STACK
        ARGFRAME XSTACK, 14, STACK
        ARGFRAME IOVERLAY, 0, STATIC
        ARGFRAME DOVERLAY, 0, STATIC
        FUNCALL TestApp_Init, aps_AddGroup
        LOCFRAME ISTACK, 0, STACK
        LOCFRAME PSTACK, 0, STACK
        LOCFRAME XSTACK, 11, STACK
        LOCFRAME IOVERLAY, 0, STATIC
        LOCFRAME DOVERLAY, 0, STATIC
        ARGFRAME ISTACK, 0, STACK
        ARGFRAME PSTACK, 0, STACK
        ARGFRAME XSTACK, 11, STACK
        ARGFRAME IOVERLAY, 0, STATIC
        ARGFRAME DOVERLAY, 0, STATIC
        FUNCALL TestApp_Init, MT_UartInit
        LOCFRAME ISTACK, 0, STACK
        LOCFRAME PSTACK, 0, STACK
        LOCFRAME XSTACK, 11, STACK
        LOCFRAME IOVERLAY, 0, STATIC
        LOCFRAME DOVERLAY, 0, STATIC
        ARGFRAME ISTACK, 0, STACK
        ARGFRAME PSTACK, 0, STACK
        ARGFRAME XSTACK, 11, STACK
        ARGFRAME IOVERLAY, 0, STATIC
        ARGFRAME DOVERLAY, 0, STATIC
        FUNCALL TestApp_Init, MT_UartRegisterTaskID
        LOCFRAME ISTACK, 0, STACK
        LOCFRAME PSTACK, 0, STACK
        LOCFRAME XSTACK, 11, STACK
        LOCFRAME IOVERLAY, 0, STATIC
        LOCFRAME DOVERLAY, 0, STATIC
        ARGFRAME ISTACK, 0, STACK
        ARGFRAME PSTACK, 0, STACK
        ARGFRAME XSTACK, 11, STACK
        ARGFRAME IOVERLAY, 0, STATIC
        ARGFRAME DOVERLAY, 0, STATIC
        FUNCALL TestApp_Init, HalUARTWrite
        LOCFRAME ISTACK, 0, STACK
        LOCFRAME PSTACK, 0, STACK
        LOCFRAME XSTACK, 11, STACK
        LOCFRAME IOVERLAY, 0, STATIC
        LOCFRAME DOVERLAY, 0, STATIC
        ARGFRAME ISTACK, 0, STACK
        ARGFRAME PSTACK, 0, STACK
        ARGFRAME XSTACK, 11, STACK
        ARGFRAME IOVERLAY, 0, STATIC
        ARGFRAME DOVERLAY, 0, STATIC
        FUNCALL TestApp_Init, afRegister
        LOCFRAME ISTACK, 0, STACK
        LOCFRAME PSTACK, 0, STACK
        LOCFRAME XSTACK, 11, STACK
        LOCFRAME IOVERLAY, 0, STATIC
        LOCFRAME DOVERLAY, 0, STATIC
        ARGFRAME ISTACK, 0, STACK
        ARGFRAME PSTACK, 0, STACK
        ARGFRAME XSTACK, 11, STACK
        ARGFRAME IOVERLAY, 0, STATIC
        ARGFRAME DOVERLAY, 0, STATIC
        FUNCALL TestApp_Init, RegisterForKeys
        LOCFRAME ISTACK, 0, STACK
        LOCFRAME PSTACK, 0, STACK
        LOCFRAME XSTACK, 11, STACK
        LOCFRAME IOVERLAY, 0, STATIC
        LOCFRAME DOVERLAY, 0, STATIC
        ARGFRAME ISTACK, 0, STACK
        ARGFRAME PSTACK, 0, STACK
        ARGFRAME XSTACK, 11, STACK
        ARGFRAME IOVERLAY, 0, STATIC
        ARGFRAME DOVERLAY, 0, STATIC
        FUNCALL TestApp_Init, HalLcdWriteString
        LOCFRAME ISTACK, 0, STACK
        LOCFRAME PSTACK, 0, STACK
        LOCFRAME XSTACK, 11, STACK
        LOCFRAME IOVERLAY, 0, STATIC
        LOCFRAME DOVERLAY, 0, STATIC
        ARGFRAME ISTACK, 0, STACK
        ARGFRAME PSTACK, 0, STACK
        ARGFRAME XSTACK, 11, STACK
        ARGFRAME IOVERLAY, 0, STATIC
        ARGFRAME DOVERLAY, 0, STATIC
        MOV     A,#-0xb
        LCALL   ?BANKED_ENTER_XDATA
        CFI DPH0 load(1, XDATA, add(CFA_XSP16, literal(-1)))
        CFI DPL0 load(1, XDATA, add(CFA_XSP16, literal(-2)))
        CFI ?BRET_EXT load(1, XDATA, add(CFA_XSP16, literal(-3)))
        CFI ?RET_HIGH load(1, XDATA, add(CFA_XSP16, literal(-4)))
        CFI ?RET_LOW load(1, XDATA, add(CFA_XSP16, literal(-5)))
        CFI R7 load(1, XDATA, add(CFA_XSP16, literal(-6)))
        CFI V2 load(1, XDATA, add(CFA_XSP16, literal(-7)))
        CFI V1 load(1, XDATA, add(CFA_XSP16, literal(-8)))
        CFI V0 load(1, XDATA, add(CFA_XSP16, literal(-9)))
        CFI VB load(1, XDATA, add(CFA_XSP16, literal(-10)))
        CFI R6 load(1, XDATA, add(CFA_XSP16, literal(-11)))
        CFI CFA_SP SP+0
        CFI CFA_XSP16 add(XSP16, 11)
        ; Saved register size: 11
        ; Auto size: 0
        MOV     A,R1
        MOV     R6,A
//  198   TestApp_TaskID = task_id;
        MOV     DPTR,#TestApp_TaskID
        MOVX    @DPTR,A
//  199   TestApp_NwkState = DEV_INIT;
        MOV     DPTR,#TestApp_NwkState
        MOV     A,#0x1
        MOVX    @DPTR,A
//  200   TestApp_TransID = 0;
        MOV     DPTR,#TestApp_TransID
        CLR     A
        MOVX    @DPTR,A
//  201 	
//  202 	// By default, all devices start out in Group 1
//  203 	// Initialization Group -- Group ID and name
//  204 	TestApp_Group.ID = 0x0003;
        MOV     DPTR,#TestApp_Group
        MOV     A,#0x3
        MOVX    @DPTR,A
        INC     DPTR
        CLR     A
        MOVX    @DPTR,A
//  205 	osal_memcpy( TestApp_Group.name, "Group 3", 7 );
        ; Setup parameters for call to function osal_memcpy
        MOV     ?V0 + 0,#`?<Constant "Group 3">` & 0xff
        MOV     ?V0 + 1,#(`?<Constant "Group 3">` >> 8) & 0xff
        MOV     ?V0 + 2,A
        MOV     R0,#?V0 + 0
        LCALL   ?PUSH_XSTACK_I_THREE
        CFI CFA_XSP16 add(XSP16, 14)
        MOV     R4,#0x7
        MOV     R5,#0x0
        MOV     R2,#(TestApp_Group + 2) & 0xff
        MOV     R3,#((TestApp_Group + 2) >> 8) & 0xff
        LCALL   ??osal_memcpy?relay
        MOV     A,#0x3
        LCALL   ?DEALLOC_XSTACK8
        CFI CFA_XSP16 add(XSP16, 11)
//  206 	// Add endpoint to the Group on the task
//  207 	// 在本任务里将端点加入到组中
//  208 	aps_AddGroup( TESTAPP_ENDPOINT, &TestApp_Group );
        ; Setup parameters for call to function aps_AddGroup
        MOV     R2,#TestApp_Group & 0xff
        MOV     R3,#(TestApp_Group >> 8) & 0xff
        MOV     R1,#0xa
        LCALL   ??aps_AddGroup?relay
//  209 	
//  210   // Device hardware initialization can be added here or in main() (Zmain.c).
//  211   // If the hardware is application specific - add it here.
//  212   // If the hardware is other parts of the device add it in main().
//  213 
//  214   MT_UartInit();
        ; Setup parameters for call to function MT_UartInit
        LCALL   ??MT_UartInit?relay
//  215   MT_UartRegisterTaskID(task_id);
        ; Setup parameters for call to function MT_UartRegisterTaskID
        MOV     A,R6
        MOV     R1,A
        LCALL   ??MT_UartRegisterTaskID?relay
//  216   HalUARTWrite(0, "UartInit OK\n", sizeof("UartInit OK\n"));
        ; Setup parameters for call to function HalUARTWrite
        MOV     R4,#0xd
        MOV     R5,#0x0
        MOV     R2,#`?<Constant "UartInit OK\\n">` & 0xff
        MOV     R3,#(`?<Constant "UartInit OK\\n">` >> 8) & 0xff
        MOV     R1,#0x0
        LCALL   ??HalUARTWrite?relay
//  217   
//  218   
//  219 	// TestApp_DstAddr 的类型为 afAddrType_t，通过该结构体指定的地址将通过 OTA 层 
//  220 	// 直接发送至指定的设备，主要是用于数据发送时对地址的要求
//  221 	
//  222 	// AddrNotPresent 按照绑定的方式进行单播
//  223   TestApp_DstAddr.addrMode = (afAddrMode_t)AddrNotPresent;
        MOV     DPTR,#TestApp_DstAddr + 8
        CLR     A
        MOVX    @DPTR,A
//  224   TestApp_DstAddr.endPoint = 0;
        INC     DPTR
        MOVX    @DPTR,A
//  225   TestApp_DstAddr.addr.shortAddr = 0;
        MOV     DPTR,#TestApp_DstAddr
        MOVX    @DPTR,A
        INC     DPTR
        MOVX    @DPTR,A
//  226 	
//  227 	// AddrBroadcast 广播给所有设备，包括睡眠的设备
//  228 	TestApp_Periodic_DstAddr.addrMode = (afAddrMode_t)AddrBroadcast;
        MOV     DPTR,#TestApp_Periodic_DstAddr + 8
        MOV     A,#0xf
        MOVX    @DPTR,A
//  229 	TestApp_Periodic_DstAddr.endPoint = TESTAPP_ENDPOINT;
        INC     DPTR
        MOV     A,#0xa
        MOVX    @DPTR,A
//  230 	TestApp_Periodic_DstAddr.addr.shortAddr = 0xFFFF;
        MOV     DPTR,#TestApp_Periodic_DstAddr
        MOV     A,#-0x1
        MOVX    @DPTR,A
        INC     DPTR
        MOVX    @DPTR,A
//  231 	TestApp_Periodic_DstAddr.panId = ZDAPP_CONFIG_PAN_ID;	// 0xFFFB
        MOV     DPTR,#TestApp_Periodic_DstAddr + 10
        MOV     A,#-0x5
        MOVX    @DPTR,A
        INC     DPTR
        MOV     A,#-0x1
        MOVX    @DPTR,A
//  232 	
//  233 	// Setup for the flash command's destination address - Group 1
//  234 	// afAddrGroup 组播给具有相同 Group ID 的设备
//  235 	TestApp_Flash_DstAddr.addrMode = (afAddrMode_t)afAddrGroup;
        MOV     DPTR,#TestApp_Flash_DstAddr + 8
        MOV     A,#0x1
        MOVX    @DPTR,A
//  236 	TestApp_Flash_DstAddr.endPoint = TESTAPP_ENDPOINT;
        INC     DPTR
        MOV     A,#0xa
        MOVX    @DPTR,A
//  237 	TestApp_Flash_DstAddr.addr.shortAddr = TestApp_Group.ID;	// Group ID = 3
        MOV     DPTR,#TestApp_Group
        MOVX    A,@DPTR
        MOV     R0,A
        INC     DPTR
        MOVX    A,@DPTR
        MOV     R1,A
        MOV     DPTR,#TestApp_Flash_DstAddr
        MOV     A,R0
        MOVX    @DPTR,A
        INC     DPTR
        MOV     A,R1
        MOVX    @DPTR,A
//  238 
//  239   // Fill out the endpoint description.
//  240   TestApp_epDesc.endPoint = TESTAPP_ENDPOINT;
        MOV     DPTR,#TestApp_epDesc
        MOV     A,#0xa
        MOVX    @DPTR,A
//  241   TestApp_epDesc.task_id = &TestApp_TaskID;
        INC     DPTR
        MOV     A,#TestApp_TaskID & 0xff
        MOVX    @DPTR,A
        INC     DPTR
        MOV     A,#(TestApp_TaskID >> 8) & 0xff
        MOVX    @DPTR,A
//  242   TestApp_epDesc.simpleDesc
//  243             = (SimpleDescriptionFormat_t *)&TestApp_SimpleDesc;
        INC     DPTR
        MOV     A,#TestApp_SimpleDesc & 0xff
        MOVX    @DPTR,A
        INC     DPTR
        MOV     A,#(TestApp_SimpleDesc >> 8) & 0xff
        MOVX    @DPTR,A
//  244   TestApp_epDesc.latencyReq = noLatencyReqs;
        INC     DPTR
        CLR     A
        MOVX    @DPTR,A
//  245 
//  246   // Register the endpoint description with the AF
//  247   afRegister( &TestApp_epDesc );
        ; Setup parameters for call to function afRegister
        MOV     R2,#TestApp_epDesc & 0xff
        MOV     R3,#(TestApp_epDesc >> 8) & 0xff
        LCALL   ??afRegister?relay
//  248 
//  249   // Register for all key events - This app will handle all key events
//  250   RegisterForKeys( TestApp_TaskID );
        ; Setup parameters for call to function RegisterForKeys
        MOV     DPTR,#TestApp_TaskID
        MOVX    A,@DPTR
        MOV     R1,A
        LCALL   ??RegisterForKeys?relay
//  251 
//  252   // Update the display
//  253 #if defined ( LCD_SUPPORTED )
//  254     HalLcdWriteString( "TestApp", HAL_LCD_LINE_1 );
        ; Setup parameters for call to function HalLcdWriteString
        MOV     R1,#0x1
        MOV     R2,#`?<Constant "TestApp">` & 0xff
        MOV     R3,#(`?<Constant "TestApp">` >> 8) & 0xff
        LCALL   ??HalLcdWriteString?relay
//  255 #endif
//  256     
//  257 //  ZDO_RegisterForZDOMsg( TestApp_TaskID, End_Device_Bind_rsp );
//  258 //  ZDO_RegisterForZDOMsg( TestApp_TaskID, Match_Desc_rsp );
//  259 }
        MOV     R7,#0x3
        LJMP    ?BANKED_LEAVE_XDATA
        CFI EndBlock cfiBlock0
//  260 
//  261 /*********************************************************************
//  262  * @fn      TestApp_ProcessEvent
//  263  *
//  264  * @brief   Generic Application Task event processor.  This function
//  265  *          is called to process all events for the task.  Events
//  266  *          include timers, messages and any other user defined events.
//  267  *
//  268  * @param   task_id  - The OSAL assigned task ID.
//  269  * @param   events - events to process.  This is a bit map and can
//  270  *                   contain more than one event.
//  271  *
//  272  * @return  none
//  273  */

        RSEG BANKED_CODE:CODE:NOROOT(0)
//  274 UINT16 TestApp_ProcessEvent( byte task_id, UINT16 events )
TestApp_ProcessEvent:
        CFI Block cfiBlock1 Using cfiCommon0
        CFI Function TestApp_ProcessEvent
        CODE
//  275 {
        FUNCALL TestApp_ProcessEvent, osal_msg_receive
        LOCFRAME ISTACK, 0, STACK
        LOCFRAME PSTACK, 0, STACK
        LOCFRAME XSTACK, 12, STACK
        LOCFRAME IOVERLAY, 0, STATIC
        LOCFRAME DOVERLAY, 0, STATIC
        ARGFRAME ISTACK, 0, STACK
        ARGFRAME PSTACK, 0, STACK
        ARGFRAME XSTACK, 12, STACK
        ARGFRAME IOVERLAY, 0, STATIC
        ARGFRAME DOVERLAY, 0, STATIC
        FUNCALL TestApp_ProcessEvent, osal_start_timerEx
        LOCFRAME ISTACK, 0, STACK
        LOCFRAME PSTACK, 0, STACK
        LOCFRAME XSTACK, 12, STACK
        LOCFRAME IOVERLAY, 0, STATIC
        LOCFRAME DOVERLAY, 0, STATIC
        ARGFRAME ISTACK, 0, STACK
        ARGFRAME PSTACK, 0, STACK
        ARGFRAME XSTACK, 12, STACK
        ARGFRAME IOVERLAY, 0, STATIC
        ARGFRAME DOVERLAY, 0, STATIC
        FUNCALL TestApp_ProcessEvent, osal_msg_deallocate
        LOCFRAME ISTACK, 0, STACK
        LOCFRAME PSTACK, 0, STACK
        LOCFRAME XSTACK, 12, STACK
        LOCFRAME IOVERLAY, 0, STATIC
        LOCFRAME DOVERLAY, 0, STATIC
        ARGFRAME ISTACK, 0, STACK
        ARGFRAME PSTACK, 0, STACK
        ARGFRAME XSTACK, 12, STACK
        ARGFRAME IOVERLAY, 0, STATIC
        ARGFRAME DOVERLAY, 0, STATIC
        FUNCALL TestApp_ProcessEvent, osal_msg_receive
        LOCFRAME ISTACK, 0, STACK
        LOCFRAME PSTACK, 0, STACK
        LOCFRAME XSTACK, 12, STACK
        LOCFRAME IOVERLAY, 0, STATIC
        LOCFRAME DOVERLAY, 0, STATIC
        ARGFRAME ISTACK, 0, STACK
        ARGFRAME PSTACK, 0, STACK
        ARGFRAME XSTACK, 12, STACK
        ARGFRAME IOVERLAY, 0, STATIC
        ARGFRAME DOVERLAY, 0, STATIC
        FUNCALL TestApp_ProcessEvent, TestApp_ProcessZDOMsgs
        LOCFRAME ISTACK, 0, STACK
        LOCFRAME PSTACK, 0, STACK
        LOCFRAME XSTACK, 12, STACK
        LOCFRAME IOVERLAY, 0, STATIC
        LOCFRAME DOVERLAY, 0, STATIC
        ARGFRAME ISTACK, 0, STACK
        ARGFRAME PSTACK, 0, STACK
        ARGFRAME XSTACK, 12, STACK
        ARGFRAME IOVERLAY, 0, STATIC
        ARGFRAME DOVERLAY, 0, STATIC
        FUNCALL TestApp_ProcessEvent, TestApp_HandleKeys
        LOCFRAME ISTACK, 0, STACK
        LOCFRAME PSTACK, 0, STACK
        LOCFRAME XSTACK, 12, STACK
        LOCFRAME IOVERLAY, 0, STATIC
        LOCFRAME DOVERLAY, 0, STATIC
        ARGFRAME ISTACK, 0, STACK
        ARGFRAME PSTACK, 0, STACK
        ARGFRAME XSTACK, 12, STACK
        ARGFRAME IOVERLAY, 0, STATIC
        ARGFRAME DOVERLAY, 0, STATIC
        FUNCALL TestApp_ProcessEvent, TestApp_MessageMSGCB
        LOCFRAME ISTACK, 0, STACK
        LOCFRAME PSTACK, 0, STACK
        LOCFRAME XSTACK, 12, STACK
        LOCFRAME IOVERLAY, 0, STATIC
        LOCFRAME DOVERLAY, 0, STATIC
        ARGFRAME ISTACK, 0, STACK
        ARGFRAME PSTACK, 0, STACK
        ARGFRAME XSTACK, 12, STACK
        ARGFRAME IOVERLAY, 0, STATIC
        ARGFRAME DOVERLAY, 0, STATIC
        FUNCALL TestApp_ProcessEvent, TestApp_SendTheMessage
        LOCFRAME ISTACK, 0, STACK
        LOCFRAME PSTACK, 0, STACK
        LOCFRAME XSTACK, 12, STACK
        LOCFRAME IOVERLAY, 0, STATIC
        LOCFRAME DOVERLAY, 0, STATIC
        ARGFRAME ISTACK, 0, STACK
        ARGFRAME PSTACK, 0, STACK
        ARGFRAME XSTACK, 12, STACK
        ARGFRAME IOVERLAY, 0, STATIC
        ARGFRAME DOVERLAY, 0, STATIC
        FUNCALL TestApp_ProcessEvent, osal_start_timerEx
        LOCFRAME ISTACK, 0, STACK
        LOCFRAME PSTACK, 0, STACK
        LOCFRAME XSTACK, 12, STACK
        LOCFRAME IOVERLAY, 0, STATIC
        LOCFRAME DOVERLAY, 0, STATIC
        ARGFRAME ISTACK, 0, STACK
        ARGFRAME PSTACK, 0, STACK
        ARGFRAME XSTACK, 12, STACK
        ARGFRAME IOVERLAY, 0, STATIC
        ARGFRAME DOVERLAY, 0, STATIC
        FUNCALL TestApp_ProcessEvent, osal_start_timerEx
        LOCFRAME ISTACK, 0, STACK
        LOCFRAME PSTACK, 0, STACK
        LOCFRAME XSTACK, 12, STACK
        LOCFRAME IOVERLAY, 0, STATIC
        LOCFRAME DOVERLAY, 0, STATIC
        ARGFRAME ISTACK, 0, STACK
        ARGFRAME PSTACK, 0, STACK
        ARGFRAME XSTACK, 12, STACK
        ARGFRAME IOVERLAY, 0, STATIC
        ARGFRAME DOVERLAY, 0, STATIC
        MOV     A,#-0xc
        LCALL   ?BANKED_ENTER_XDATA
        CFI DPH0 load(1, XDATA, add(CFA_XSP16, literal(-1)))
        CFI DPL0 load(1, XDATA, add(CFA_XSP16, literal(-2)))
        CFI ?BRET_EXT load(1, XDATA, add(CFA_XSP16, literal(-3)))
        CFI ?RET_HIGH load(1, XDATA, add(CFA_XSP16, literal(-4)))
        CFI ?RET_LOW load(1, XDATA, add(CFA_XSP16, literal(-5)))
        CFI R7 load(1, XDATA, add(CFA_XSP16, literal(-6)))
        CFI V3 load(1, XDATA, add(CFA_XSP16, literal(-7)))
        CFI V2 load(1, XDATA, add(CFA_XSP16, literal(-8)))
        CFI V1 load(1, XDATA, add(CFA_XSP16, literal(-9)))
        CFI V0 load(1, XDATA, add(CFA_XSP16, literal(-10)))
        CFI VB load(1, XDATA, add(CFA_XSP16, literal(-11)))
        CFI R6 load(1, XDATA, add(CFA_XSP16, literal(-12)))
        CFI CFA_SP SP+0
        CFI CFA_XSP16 add(XSP16, 12)
        ; Saved register size: 12
        ; Auto size: 0
        MOV     A,R2
        MOV     R6,A
        MOV     A,R3
        MOV     R7,A
//  276   afIncomingMSGPacket_t *MSGpkt;
//  277   afDataConfirm_t *afDataConfirm;
//  278 
//  279   // Data Confirmation message fields
//  280   byte sentEP;
//  281   ZStatus_t sentStatus;
//  282   byte sentTransID;       // This should match the value sent
//  283   (void)task_id;  // Intentionally unreferenced parameter
//  284 
//  285   if ( events & SYS_EVENT_MSG )
        ANL     A,#0x80
        JZ      ??TestApp_ProcessEvent_0
//  286   {
//  287     MSGpkt = (afIncomingMSGPacket_t *)osal_msg_receive( TestApp_TaskID );
        ; Setup parameters for call to function osal_msg_receive
        SJMP    ??TestApp_ProcessEvent_1
//  288     while ( MSGpkt )
//  289     {
//  290       switch ( MSGpkt->hdr.event )
//  291       {
//  292         case ZDO_CB_MSG:
//  293           TestApp_ProcessZDOMsgs( (zdoIncomingMsg_t *)MSGpkt );
//  294           break;
//  295           
//  296         case KEY_CHANGE:
//  297           TestApp_HandleKeys( ((keyChange_t *)MSGpkt)->state, ((keyChange_t *)MSGpkt)->keys );
//  298           break;
//  299 
//  300         case AF_DATA_CONFIRM_CMD:
//  301           // This message is received as a confirmation of a data packet sent.
//  302           // The status is of ZStatus_t type [defined in ZComDef.h]
//  303           // The message fields are defined in AF.h
//  304           afDataConfirm = (afDataConfirm_t *)MSGpkt;
//  305           sentEP = afDataConfirm->endpoint;
//  306           sentStatus = afDataConfirm->hdr.status;
//  307           sentTransID = afDataConfirm->transID;
//  308           (void)sentEP;
//  309           (void)sentTransID;
//  310 
//  311           // Action taken when confirmation is received.
//  312           if ( sentStatus != ZSuccess )
//  313           {
//  314             // The data wasn't delivered -- Do something
//  315           }
//  316           break;
//  317 
//  318         case AF_INCOMING_MSG_CMD:
//  319           TestApp_MessageMSGCB( MSGpkt );
//  320           break;
//  321 
//  322         case ZDO_STATE_CHANGE:
//  323           TestApp_NwkState = (devStates_t)(MSGpkt->hdr.status);
??TestApp_ProcessEvent_2:
        INC     DPTR
        MOVX    A,@DPTR
        MOV     DPTR,#TestApp_NwkState
        MOVX    @DPTR,A
//  324 //          if ( (TestApp_NwkState == DEV_ZB_COORD)
//  325 //              || (TestApp_NwkState == DEV_ROUTER)
//  326 //              || (TestApp_NwkState == DEV_END_DEVICE) )
//  327 //          {
//  328 //            // Start sending "the" message in a regular interval.
//  329 //            osal_start_timerEx( TestApp_TaskID,
//  330 //                                TESTAPP_SEND_MSG_EVT,
//  331 //                              TESTAPP_SEND_MSG_TIMEOUT );
//  332 //          }
//  333             if ( TestApp_NwkState == DEV_END_DEVICE )
        XRL     A,#0x6
        JNZ     ??CrossCallReturnLabel_2
//  334             {
//  335                 osal_start_timerEx( TestApp_TaskID, 
//  336                                     TESTAPP_SEND_PERIODIC_MSG_EVT, 
//  337                                     50 );// 50ms
        ; Setup parameters for call to function osal_start_timerEx
        MOV     R4,#0x32
        LCALL   ?Subroutine2 & 0xFFFF
//  338 								//osal_set_event(TestAPP_TaskId, TESTAPP_SEND_PERIODIC_MSG_EVT);
//  339             }
//  340 					
//  341           break;
//  342 
//  343         default:
//  344           break;
//  345       }
//  346 
//  347       // Release the memory
//  348       osal_msg_deallocate( (uint8 *)MSGpkt );
??CrossCallReturnLabel_2:
        ; Setup parameters for call to function osal_msg_deallocate
        MOV     R2,?V0 + 0
        MOV     R3,?V0 + 1
        LCALL   ??osal_msg_deallocate?relay
//  349 
//  350       // Next
//  351       MSGpkt = (afIncomingMSGPacket_t *)osal_msg_receive( TestApp_TaskID );
        ; Setup parameters for call to function osal_msg_receive
??TestApp_ProcessEvent_1:
        MOV     DPTR,#TestApp_TaskID
        MOVX    A,@DPTR
        MOV     R1,A
        LCALL   ??osal_msg_receive?relay
        MOV     ?V0 + 0,R2
        MOV     ?V0 + 1,R3
        MOV     A,?V0 + 0
        ORL     A,?V0 + 1
        JZ      ??TestApp_ProcessEvent_3
        MOV     DPL,?V0 + 0
        MOV     DPH,?V0 + 1
        MOVX    A,@DPTR
        ADD     A,#0x40
        JZ      ??TestApp_ProcessEvent_4
        ADD     A,#-0x11
        JZ      ??TestApp_ProcessEvent_2
        ADD     A,#-0x2
        JZ      ??TestApp_ProcessEvent_5
        ADD     A,#-0x47
        JZ      ??TestApp_ProcessEvent_6
        SJMP    ??CrossCallReturnLabel_2
??TestApp_ProcessEvent_5:
        ; Setup parameters for call to function TestApp_ProcessZDOMsgs
        MOV     R2,?V0 + 0
        MOV     R3,?V0 + 1
        LCALL   ??TestApp_ProcessZDOMsgs?relay
        SJMP    ??CrossCallReturnLabel_2
??TestApp_ProcessEvent_4:
        ; Setup parameters for call to function TestApp_HandleKeys
        INC     DPTR
        INC     DPTR
        INC     DPTR
        MOVX    A,@DPTR
        MOV     R2,A
        MOV     DPL,?V0 + 0
        MOV     DPH,?V0 + 1
        INC     DPTR
        INC     DPTR
        MOVX    A,@DPTR
        MOV     R1,A
        LCALL   ??TestApp_HandleKeys?relay
        SJMP    ??CrossCallReturnLabel_2
??TestApp_ProcessEvent_6:
        ; Setup parameters for call to function TestApp_MessageMSGCB
        MOV     R2,?V0 + 0
        MOV     R3,?V0 + 1
        LCALL   ??TestApp_MessageMSGCB?relay
        SJMP    ??CrossCallReturnLabel_2
//  352     }
//  353 
//  354     // return unprocessed events
//  355     return (events ^ SYS_EVENT_MSG);
??TestApp_ProcessEvent_3:
        MOV     A,R6
        MOV     R2,A
        MOV     A,R7
        XRL     A,#0x80
??TestApp_ProcessEvent_7:
        MOV     R3,A
        SJMP    ??TestApp_ProcessEvent_8
//  356   }
//  357 
//  358   // Send a message out - This event is generated by a timer
//  359   //  (setup in TestApp_Init()).
//  360   if ( events & TESTAPP_SEND_MSG_EVT )
??TestApp_ProcessEvent_0:
        MOV     A,R6
        MOV     C,0xE0 /* A   */.0
        JNC     ??TestApp_ProcessEvent_9
//  361   {
//  362     // Send "the" message
//  363     TestApp_SendTheMessage();
        ; Setup parameters for call to function TestApp_SendTheMessage
        LCALL   ??TestApp_SendTheMessage?relay
//  364 
//  365     // Setup to send message again
//  366     osal_start_timerEx( TestApp_TaskID,
//  367                         TESTAPP_SEND_MSG_EVT,
//  368                       TESTAPP_SEND_MSG_TIMEOUT );
        ; Setup parameters for call to function osal_start_timerEx
        MOV     R4,#-0x78
        MOV     R5,#0x13
        MOV     R2,#0x1
        LCALL   ??Subroutine3_0 & 0xFFFF
//  369 
//  370     // return unprocessed events
//  371     return (events ^ TESTAPP_SEND_MSG_EVT);
??CrossCallReturnLabel_4:
        MOV     A,R6
        XRL     A,#0x1
??TestApp_ProcessEvent_10:
        MOV     R2,A
        MOV     A,R7
        SJMP    ??TestApp_ProcessEvent_7
//  372   }
//  373 	
//  374 	if ( events & TESTAPP_SEND_PERIODIC_MSG_EVT )
??TestApp_ProcessEvent_9:
        ANL     A,#0x2
        JZ      ??TestApp_ProcessEvent_11
//  375 	{
//  376 #if defined ( DHT11 )		
//  377 		TestApp_SendPeriodicDHT11Message();
//  378 #elif defined ( DS18B20 )
//  379 		TestApp_SendPeriodicDS18B20Message();
//  380 #endif
//  381 		
//  382 		osal_start_timerEx( TestApp_TaskID,
//  383 												TESTAPP_SEND_PERIODIC_MSG_EVT,
//  384 												40 );	// 40ms
        ; Setup parameters for call to function osal_start_timerEx
        MOV     R4,#0x28
        LCALL   ?Subroutine2 & 0xFFFF
//  385 		
//  386 		return ( events ^ TESTAPP_SEND_PERIODIC_MSG_EVT );
??CrossCallReturnLabel_3:
        MOV     A,R6
        XRL     A,#0x2
        SJMP    ??TestApp_ProcessEvent_10
//  387 	}
//  388 
//  389   // Discard unknown events
//  390   return 0;
??TestApp_ProcessEvent_11:
        MOV     R2,#0x0
        MOV     R3,#0x0
??TestApp_ProcessEvent_8:
        MOV     R7,#0x4
        LJMP    ?BANKED_LEAVE_XDATA
        CFI EndBlock cfiBlock1
//  391 }

        RSEG BANKED_CODE:CODE:NOROOT(0)
?Subroutine2:
        CFI Block cfiCond2 Using cfiCommon0
        CFI NoFunction
        CFI Conditional ??CrossCallReturnLabel_2
        CFI R6 load(1, XDATA, add(CFA_XSP16, literal(-12)))
        CFI VB load(1, XDATA, add(CFA_XSP16, literal(-11)))
        CFI V0 load(1, XDATA, add(CFA_XSP16, literal(-10)))
        CFI V1 load(1, XDATA, add(CFA_XSP16, literal(-9)))
        CFI V2 load(1, XDATA, add(CFA_XSP16, literal(-8)))
        CFI V3 load(1, XDATA, add(CFA_XSP16, literal(-7)))
        CFI R7 load(1, XDATA, add(CFA_XSP16, literal(-6)))
        CFI ?RET_LOW load(1, XDATA, add(CFA_XSP16, literal(-5)))
        CFI ?RET_HIGH load(1, XDATA, add(CFA_XSP16, literal(-4)))
        CFI ?BRET_EXT load(1, XDATA, add(CFA_XSP16, literal(-3)))
        CFI DPL0 load(1, XDATA, add(CFA_XSP16, literal(-2)))
        CFI DPH0 load(1, XDATA, add(CFA_XSP16, literal(-1)))
        CFI CFA_SP SP+0
        CFI CFA_XSP16 add(XSP16, 12)
        CFI Block cfiCond3 Using cfiCommon0
        CFI (cfiCond3) NoFunction
        CFI (cfiCond3) Conditional ??CrossCallReturnLabel_3
        CFI (cfiCond3) R6 load(1, XDATA, add(CFA_XSP16, literal(-12)))
        CFI (cfiCond3) VB load(1, XDATA, add(CFA_XSP16, literal(-11)))
        CFI (cfiCond3) V0 load(1, XDATA, add(CFA_XSP16, literal(-10)))
        CFI (cfiCond3) V1 load(1, XDATA, add(CFA_XSP16, literal(-9)))
        CFI (cfiCond3) V2 load(1, XDATA, add(CFA_XSP16, literal(-8)))
        CFI (cfiCond3) V3 load(1, XDATA, add(CFA_XSP16, literal(-7)))
        CFI (cfiCond3) R7 load(1, XDATA, add(CFA_XSP16, literal(-6)))
        CFI (cfiCond3) ?RET_LOW load(1, XDATA, add(CFA_XSP16, literal(-5)))
        CFI (cfiCond3) ?RET_HIGH load(1, XDATA, add(CFA_XSP16, literal(-4)))
        CFI (cfiCond3) ?BRET_EXT load(1, XDATA, add(CFA_XSP16, literal(-3)))
        CFI (cfiCond3) DPL0 load(1, XDATA, add(CFA_XSP16, literal(-2)))
        CFI (cfiCond3) DPH0 load(1, XDATA, add(CFA_XSP16, literal(-1)))
        CFI (cfiCond3) CFA_SP SP+0
        CFI (cfiCond3) CFA_XSP16 add(XSP16, 12)
        CFI Block cfiPicker4 Using cfiCommon1
        CFI (cfiPicker4) NoFunction
        CFI (cfiPicker4) Picker
        MOV     R5,#0x0
        MOV     R2,#0x2
        CFI EndBlock cfiCond2
        CFI EndBlock cfiCond3
        CFI EndBlock cfiPicker4
        REQUIRE ??Subroutine3_0
        ; // Fall through to label ??Subroutine3_0

        RSEG BANKED_CODE:CODE:NOROOT(0)
??Subroutine3_0:
        CFI Block cfiCond5 Using cfiCommon0
        CFI NoFunction
        CFI Conditional ??CrossCallReturnLabel_4
        CFI R6 load(1, XDATA, add(CFA_XSP16, literal(-12)))
        CFI VB load(1, XDATA, add(CFA_XSP16, literal(-11)))
        CFI V0 load(1, XDATA, add(CFA_XSP16, literal(-10)))
        CFI V1 load(1, XDATA, add(CFA_XSP16, literal(-9)))
        CFI V2 load(1, XDATA, add(CFA_XSP16, literal(-8)))
        CFI V3 load(1, XDATA, add(CFA_XSP16, literal(-7)))
        CFI R7 load(1, XDATA, add(CFA_XSP16, literal(-6)))
        CFI ?RET_LOW load(1, XDATA, add(CFA_XSP16, literal(-5)))
        CFI ?RET_HIGH load(1, XDATA, add(CFA_XSP16, literal(-4)))
        CFI ?BRET_EXT load(1, XDATA, add(CFA_XSP16, literal(-3)))
        CFI DPL0 load(1, XDATA, add(CFA_XSP16, literal(-2)))
        CFI DPH0 load(1, XDATA, add(CFA_XSP16, literal(-1)))
        CFI CFA_SP SP+0
        CFI CFA_XSP16 add(XSP16, 12)
        CFI Block cfiCond6 Using cfiCommon0
        CFI (cfiCond6) NoFunction
        CFI (cfiCond6) Conditional ??CrossCallReturnLabel_2
        CFI (cfiCond6) R6 load(1, XDATA, add(CFA_XSP16, literal(-12)))
        CFI (cfiCond6) VB load(1, XDATA, add(CFA_XSP16, literal(-11)))
        CFI (cfiCond6) V0 load(1, XDATA, add(CFA_XSP16, literal(-10)))
        CFI (cfiCond6) V1 load(1, XDATA, add(CFA_XSP16, literal(-9)))
        CFI (cfiCond6) V2 load(1, XDATA, add(CFA_XSP16, literal(-8)))
        CFI (cfiCond6) V3 load(1, XDATA, add(CFA_XSP16, literal(-7)))
        CFI (cfiCond6) R7 load(1, XDATA, add(CFA_XSP16, literal(-6)))
        CFI (cfiCond6) ?RET_LOW load(1, XDATA, add(CFA_XSP16, literal(-5)))
        CFI (cfiCond6) ?RET_HIGH load(1, XDATA, add(CFA_XSP16, literal(-4)))
        CFI (cfiCond6) ?BRET_EXT load(1, XDATA, add(CFA_XSP16, literal(-3)))
        CFI (cfiCond6) DPL0 load(1, XDATA, add(CFA_XSP16, literal(-2)))
        CFI (cfiCond6) DPH0 load(1, XDATA, add(CFA_XSP16, literal(-1)))
        CFI (cfiCond6) CFA_SP SP+0
        CFI (cfiCond6) CFA_XSP16 add(XSP16, 12)
        CFI Block cfiCond7 Using cfiCommon0
        CFI (cfiCond7) NoFunction
        CFI (cfiCond7) Conditional ??CrossCallReturnLabel_3
        CFI (cfiCond7) R6 load(1, XDATA, add(CFA_XSP16, literal(-12)))
        CFI (cfiCond7) VB load(1, XDATA, add(CFA_XSP16, literal(-11)))
        CFI (cfiCond7) V0 load(1, XDATA, add(CFA_XSP16, literal(-10)))
        CFI (cfiCond7) V1 load(1, XDATA, add(CFA_XSP16, literal(-9)))
        CFI (cfiCond7) V2 load(1, XDATA, add(CFA_XSP16, literal(-8)))
        CFI (cfiCond7) V3 load(1, XDATA, add(CFA_XSP16, literal(-7)))
        CFI (cfiCond7) R7 load(1, XDATA, add(CFA_XSP16, literal(-6)))
        CFI (cfiCond7) ?RET_LOW load(1, XDATA, add(CFA_XSP16, literal(-5)))
        CFI (cfiCond7) ?RET_HIGH load(1, XDATA, add(CFA_XSP16, literal(-4)))
        CFI (cfiCond7) ?BRET_EXT load(1, XDATA, add(CFA_XSP16, literal(-3)))
        CFI (cfiCond7) DPL0 load(1, XDATA, add(CFA_XSP16, literal(-2)))
        CFI (cfiCond7) DPH0 load(1, XDATA, add(CFA_XSP16, literal(-1)))
        CFI (cfiCond7) CFA_SP SP+0
        CFI (cfiCond7) CFA_XSP16 add(XSP16, 12)
        CFI Block cfiPicker8 Using cfiCommon1
        CFI (cfiPicker8) NoFunction
        CFI (cfiPicker8) Picker
        MOV     R3,#0x0
        MOV     DPTR,#TestApp_TaskID
        MOVX    A,@DPTR
        MOV     R1,A
        LCALL   ??osal_start_timerEx?relay
        RET
        CFI EndBlock cfiCond5
        CFI EndBlock cfiCond6
        CFI EndBlock cfiCond7
        CFI EndBlock cfiPicker8
//  392 
//  393 /*********************************************************************
//  394  * Event Generation Functions
//  395  */
//  396 
//  397 /*********************************************************************
//  398  * @fn      TestApp_ProcessZDOMsgs()
//  399  *
//  400  * @brief   Process response messages
//  401  *
//  402  * @param   none
//  403  *
//  404  * @return  none
//  405  */

        RSEG BANKED_CODE:CODE:NOROOT(0)
//  406 void TestApp_ProcessZDOMsgs( zdoIncomingMsg_t *inMsg )
TestApp_ProcessZDOMsgs:
        CFI Block cfiBlock9 Using cfiCommon0
        CFI Function TestApp_ProcessZDOMsgs
        CODE
//  407 {
        FUNCALL TestApp_ProcessZDOMsgs, HalLedSet
        LOCFRAME ISTACK, 0, STACK
        LOCFRAME PSTACK, 0, STACK
        LOCFRAME XSTACK, 10, STACK
        LOCFRAME IOVERLAY, 0, STATIC
        LOCFRAME DOVERLAY, 0, STATIC
        ARGFRAME ISTACK, 0, STACK
        ARGFRAME PSTACK, 0, STACK
        ARGFRAME XSTACK, 10, STACK
        ARGFRAME IOVERLAY, 0, STATIC
        ARGFRAME DOVERLAY, 0, STATIC
        FUNCALL TestApp_ProcessZDOMsgs, HalLedSet
        LOCFRAME ISTACK, 0, STACK
        LOCFRAME PSTACK, 0, STACK
        LOCFRAME XSTACK, 10, STACK
        LOCFRAME IOVERLAY, 0, STATIC
        LOCFRAME DOVERLAY, 0, STATIC
        ARGFRAME ISTACK, 0, STACK
        ARGFRAME PSTACK, 0, STACK
        ARGFRAME XSTACK, 10, STACK
        ARGFRAME IOVERLAY, 0, STATIC
        ARGFRAME DOVERLAY, 0, STATIC
        FUNCALL TestApp_ProcessZDOMsgs, ZDO_ParseEPListRsp
        LOCFRAME ISTACK, 0, STACK
        LOCFRAME PSTACK, 0, STACK
        LOCFRAME XSTACK, 10, STACK
        LOCFRAME IOVERLAY, 0, STATIC
        LOCFRAME DOVERLAY, 0, STATIC
        ARGFRAME ISTACK, 0, STACK
        ARGFRAME PSTACK, 0, STACK
        ARGFRAME XSTACK, 10, STACK
        ARGFRAME IOVERLAY, 0, STATIC
        ARGFRAME DOVERLAY, 0, STATIC
        FUNCALL TestApp_ProcessZDOMsgs, HalLedSet
        LOCFRAME ISTACK, 0, STACK
        LOCFRAME PSTACK, 0, STACK
        LOCFRAME XSTACK, 10, STACK
        LOCFRAME IOVERLAY, 0, STATIC
        LOCFRAME DOVERLAY, 0, STATIC
        ARGFRAME ISTACK, 0, STACK
        ARGFRAME PSTACK, 0, STACK
        ARGFRAME XSTACK, 10, STACK
        ARGFRAME IOVERLAY, 0, STATIC
        ARGFRAME DOVERLAY, 0, STATIC
        FUNCALL TestApp_ProcessZDOMsgs, osal_mem_free
        LOCFRAME ISTACK, 0, STACK
        LOCFRAME PSTACK, 0, STACK
        LOCFRAME XSTACK, 10, STACK
        LOCFRAME IOVERLAY, 0, STATIC
        LOCFRAME DOVERLAY, 0, STATIC
        ARGFRAME ISTACK, 0, STACK
        ARGFRAME PSTACK, 0, STACK
        ARGFRAME XSTACK, 10, STACK
        ARGFRAME IOVERLAY, 0, STATIC
        ARGFRAME DOVERLAY, 0, STATIC
        MOV     A,#-0xa
        LCALL   ?BANKED_ENTER_XDATA
        CFI DPH0 load(1, XDATA, add(CFA_XSP16, literal(-1)))
        CFI DPL0 load(1, XDATA, add(CFA_XSP16, literal(-2)))
        CFI ?BRET_EXT load(1, XDATA, add(CFA_XSP16, literal(-3)))
        CFI ?RET_HIGH load(1, XDATA, add(CFA_XSP16, literal(-4)))
        CFI ?RET_LOW load(1, XDATA, add(CFA_XSP16, literal(-5)))
        CFI R7 load(1, XDATA, add(CFA_XSP16, literal(-6)))
        CFI V1 load(1, XDATA, add(CFA_XSP16, literal(-7)))
        CFI V0 load(1, XDATA, add(CFA_XSP16, literal(-8)))
        CFI VB load(1, XDATA, add(CFA_XSP16, literal(-9)))
        CFI R6 load(1, XDATA, add(CFA_XSP16, literal(-10)))
        CFI CFA_SP SP+0
        CFI CFA_XSP16 add(XSP16, 10)
        ; Saved register size: 10
        ; Auto size: 0
//  408   switch ( inMsg->clusterID )
        MOV     A,R2
        ADD     A,#0xc
        MOV     DPL,A
        MOV     A,R3
        ADDC    A,#0x0
        MOV     DPH,A
        LCALL   ?Subroutine1 & 0xFFFF
??CrossCallReturnLabel_0:
        LCALL   ?US_SWITCH_SPARSE
`?<Jumptable for TestApp_ProcessZDOMsgs>_0`:
        DATA
        DATA16
        DATA
        DATA16
        DATA
        DATA16
        DW        0
        DATA
        DATA16
        DATA
        DATA16
        DATA
        DATA16
        DW        2
        DATA
        DATA16
        DATA
        DATA16
        DATA
        DATA16
        DW        32774
        DATA
        DATA16
        DATA
        DATA16
        DATA
        DATA16
        DW        ??TestApp_ProcessZDOMsgs_0
        DATA
        DATA16
        DATA
        DATA16
        DATA
        DATA16
        DW        32800
        DATA
        DATA16
        DATA
        DATA16
        DATA
        DATA16
        DW        ??TestApp_ProcessZDOMsgs_1
        DATA
        DATA16
        DATA
        DATA16
        DW        ??TestApp_ProcessZDOMsgs_2
        CODE
//  409   {
//  410     case End_Device_Bind_rsp:
//  411       if ( ZDO_ParseBindRsp( inMsg ) == ZSuccess )
??TestApp_ProcessZDOMsgs_1:
        MOV     A,R2
        ADD     A,#0x13
        MOV     DPL,A
        MOV     A,R3
        ADDC    A,#0x0
        MOV     DPH,A
        MOVX    A,@DPTR
        MOV     R0,A
        INC     DPTR
        MOVX    A,@DPTR
        MOV     DPH,A
        MOV     DPL,R0
        MOVX    A,@DPTR
        JNZ     ??TestApp_ProcessZDOMsgs_3
//  412       {
//  413         // Light LED
//  414         HalLedSet( HAL_LED_4, HAL_LED_MODE_ON );
        ; Setup parameters for call to function HalLedSet
        MOV     R2,#0x1
??TestApp_ProcessZDOMsgs_4:
        MOV     R1,#0x8
        LCALL   ??HalLedSet?relay
        SJMP    ??TestApp_ProcessZDOMsgs_2
//  415       }
//  416 #if defined(BLINK_LEDS)
//  417       else
//  418       {
//  419         // Flash LED to show failure
//  420         HalLedSet ( HAL_LED_4, HAL_LED_MODE_FLASH );
??TestApp_ProcessZDOMsgs_3:
        ; Setup parameters for call to function HalLedSet
        MOV     R2,#0x4
        SJMP    ??TestApp_ProcessZDOMsgs_4
//  421       }
//  422 #endif
//  423       break;
//  424 
//  425     case Match_Desc_rsp:
//  426       {
//  427         ZDO_ActiveEndpointRsp_t *pRsp = ZDO_ParseEPListRsp( inMsg );
??TestApp_ProcessZDOMsgs_0:
        ; Setup parameters for call to function ZDO_ParseEPListRsp
        LCALL   ??ZDO_ParseEPListRsp?relay
        MOV     ?V0 + 0,R2
        MOV     ?V0 + 1,R3
        MOV     R6,?V0 + 0
        MOV     R7,?V0 + 1
//  428         if ( pRsp )
        MOV     A,R6
        ORL     A,R7
        JZ      ??TestApp_ProcessZDOMsgs_2
//  429         {
//  430           if ( pRsp->status == ZSuccess && pRsp->cnt )
        MOV     DPL,R6
        MOV     DPH,R7
        MOVX    A,@DPTR
        JNZ     ??TestApp_ProcessZDOMsgs_5
        INC     DPTR
        INC     DPTR
        INC     DPTR
        MOVX    A,@DPTR
        JZ      ??TestApp_ProcessZDOMsgs_5
//  431           {
//  432             TestApp_DstAddr.addrMode = (afAddrMode_t)Addr16Bit;
        MOV     DPTR,#TestApp_DstAddr + 8
        MOV     A,#0x2
        MOVX    @DPTR,A
//  433             TestApp_DstAddr.addr.shortAddr = pRsp->nwkAddr;
        MOV     DPL,R6
        MOV     DPH,R7
        INC     DPTR
        MOVX    A,@DPTR
        MOV     R0,A
        INC     DPTR
        MOVX    A,@DPTR
        MOV     R1,A
        MOV     DPTR,#TestApp_DstAddr
        MOV     A,R0
        MOVX    @DPTR,A
        INC     DPTR
        MOV     A,R1
        MOVX    @DPTR,A
//  434             // Take the first endpoint, Can be changed to search through endpoints
//  435             TestApp_DstAddr.endPoint = pRsp->epList[0];
        MOV     DPL,R6
        MOV     DPH,R7
        INC     DPTR
        INC     DPTR
        INC     DPTR
        INC     DPTR
        MOVX    A,@DPTR
        MOV     DPTR,#TestApp_DstAddr + 9
        MOVX    @DPTR,A
//  436 
//  437             // Light LED
//  438             HalLedSet( HAL_LED_4, HAL_LED_MODE_ON );
        ; Setup parameters for call to function HalLedSet
        MOV     R2,#0x1
        MOV     R1,#0x8
        LCALL   ??HalLedSet?relay
//  439           }
//  440           osal_mem_free( pRsp );
??TestApp_ProcessZDOMsgs_5:
        ; Setup parameters for call to function osal_mem_free
        MOV     A,R6
        MOV     R2,A
        MOV     A,R7
        MOV     R3,A
        LCALL   ??osal_mem_free?relay
//  441         }
//  442       }
//  443       break;
//  444   }
//  445 }
??TestApp_ProcessZDOMsgs_2:
        SJMP    ??Subroutine4_0
        CFI EndBlock cfiBlock9

        RSEG BANKED_CODE:CODE:NOROOT(0)
?Subroutine0:
        CFI Block cfiBlock10 Using cfiCommon0
        CFI NoFunction
        CFI CFA_SP SP+0
        CFI CFA_XSP16 add(XSP16, 22)
        CFI VB load(1, XDATA, add(CFA_XSP16, literal(-9)))
        CFI DPL0 load(1, XDATA, add(CFA_XSP16, literal(-2)))
        CFI DPH0 load(1, XDATA, add(CFA_XSP16, literal(-1)))
        CFI R6 load(1, XDATA, add(CFA_XSP16, literal(-10)))
        CFI R7 load(1, XDATA, add(CFA_XSP16, literal(-6)))
        CFI V0 load(1, XDATA, add(CFA_XSP16, literal(-8)))
        CFI V1 load(1, XDATA, add(CFA_XSP16, literal(-7)))
        CFI ?BRET_EXT load(1, XDATA, add(CFA_XSP16, literal(-3)))
        CFI ?RET_HIGH load(1, XDATA, add(CFA_XSP16, literal(-4)))
        CFI ?RET_LOW load(1, XDATA, add(CFA_XSP16, literal(-5)))
        CFI Invalid
        LCALL   ?DEALLOC_XSTACK8
        CFI EndBlock cfiBlock10
        REQUIRE ??Subroutine4_0
        ; // Fall through to label ??Subroutine4_0

        RSEG BANKED_CODE:CODE:NOROOT(0)
??Subroutine4_0:
        CFI Block cfiBlock11 Using cfiCommon0
        CFI NoFunction
        CFI CFA_SP SP+0
        CFI CFA_XSP16 add(XSP16, 10)
        CFI VB load(1, XDATA, add(CFA_XSP16, literal(-9)))
        CFI DPL0 load(1, XDATA, add(CFA_XSP16, literal(-2)))
        CFI DPH0 load(1, XDATA, add(CFA_XSP16, literal(-1)))
        CFI R6 load(1, XDATA, add(CFA_XSP16, literal(-10)))
        CFI R7 load(1, XDATA, add(CFA_XSP16, literal(-6)))
        CFI V0 load(1, XDATA, add(CFA_XSP16, literal(-8)))
        CFI V1 load(1, XDATA, add(CFA_XSP16, literal(-7)))
        CFI ?BRET_EXT load(1, XDATA, add(CFA_XSP16, literal(-3)))
        CFI ?RET_HIGH load(1, XDATA, add(CFA_XSP16, literal(-4)))
        CFI ?RET_LOW load(1, XDATA, add(CFA_XSP16, literal(-5)))
        MOV     R7,#0x2
        LJMP    ?BANKED_LEAVE_XDATA
        CFI EndBlock cfiBlock11
//  446 
//  447 /*********************************************************************
//  448  * @fn      TestApp_HandleKeys
//  449  *
//  450  * @brief   Handles all key events for this device.
//  451  *
//  452  * @param   shift - true if in shift/alt.
//  453  * @param   keys - bit field for key events. Valid entries:
//  454  *                 HAL_KEY_SW_4
//  455  *                 HAL_KEY_SW_3
//  456  *                 HAL_KEY_SW_2
//  457  *                 HAL_KEY_SW_1
//  458  *
//  459  * @return  none
//  460  */

        RSEG BANKED_CODE:CODE:NOROOT(0)
//  461 void TestApp_HandleKeys( byte shift, byte keys )
TestApp_HandleKeys:
        CFI Block cfiBlock12 Using cfiCommon0
        CFI Function TestApp_HandleKeys
        CODE
//  462 {
        FUNCALL TestApp_HandleKeys, HalLedSet
        LOCFRAME ISTACK, 0, STACK
        LOCFRAME PSTACK, 0, STACK
        LOCFRAME XSTACK, 9, STACK
        LOCFRAME IOVERLAY, 0, STATIC
        LOCFRAME DOVERLAY, 0, STATIC
        ARGFRAME ISTACK, 0, STACK
        ARGFRAME PSTACK, 0, STACK
        ARGFRAME XSTACK, 9, STACK
        ARGFRAME IOVERLAY, 0, STATIC
        ARGFRAME DOVERLAY, 0, STATIC
        MOV     A,#-0x9
        LCALL   ?BANKED_ENTER_XDATA
        CFI DPH0 load(1, XDATA, add(CFA_XSP16, literal(-1)))
        CFI DPL0 load(1, XDATA, add(CFA_XSP16, literal(-2)))
        CFI ?BRET_EXT load(1, XDATA, add(CFA_XSP16, literal(-3)))
        CFI ?RET_HIGH load(1, XDATA, add(CFA_XSP16, literal(-4)))
        CFI ?RET_LOW load(1, XDATA, add(CFA_XSP16, literal(-5)))
        CFI R7 load(1, XDATA, add(CFA_XSP16, literal(-6)))
        CFI V0 load(1, XDATA, add(CFA_XSP16, literal(-7)))
        CFI VB load(1, XDATA, add(CFA_XSP16, literal(-8)))
        CFI R6 load(1, XDATA, add(CFA_XSP16, literal(-9)))
        CFI CFA_SP SP+0
        CFI CFA_XSP16 add(XSP16, 9)
        ; Saved register size: 9
        ; Auto size: 0
        MOV     A,R1
        MOV     R6,A
        MOV     A,R2
        MOV     R7,A
//  463 //  zAddrType_t dstAddr;
//  464   
//  465   // Shift is used to make each button/switch dual purpose.
//  466   if ( shift )
        MOV     A,R6
        JNZ     ??TestApp_HandleKeys_0
//  467   {
//  468     if ( keys & HAL_KEY_SW_1 )
//  469     {
//  470     }
//  471     if ( keys & HAL_KEY_SW_2 )
//  472     {
//  473     }
//  474     if ( keys & HAL_KEY_SW_3 )
//  475     {
//  476     }
//  477     if ( keys & HAL_KEY_SW_4 )
//  478     {
//  479     }
//  480   }
//  481   else
//  482   {
//  483     if ( keys & HAL_KEY_SW_1 )
//  484     {
//  485     }
//  486 
//  487     if ( keys & HAL_KEY_SW_2 )
        MOV     A,R7
        MOV     C,0xE0 /* A   */.1
        JNC     ??TestApp_HandleKeys_0
//  488     {
//  489       HalLedSet ( HAL_LED_4, HAL_LED_MODE_OFF );
        ; Setup parameters for call to function HalLedSet
        MOV     R2,#0x0
        MOV     R1,#0x8
        LCALL   ??HalLedSet?relay
//  490 
//  491       // Initiate an End Device Bind Request for the mandatory endpoint
//  492 //      dstAddr.addrMode = Addr16Bit;
//  493 //      dstAddr.addr.shortAddr = 0x0000; // Coordinator
//  494 //      ZDP_EndDeviceBindReq( &dstAddr, NLME_GetShortAddr(), 
//  495 //                            TestApp_epDesc.endPoint,
//  496 //                            TESTAPP_PROFID,
//  497 //                            TESTAPP_MAX_CLUSTERS, (cId_t *)TestApp_ClusterList,
//  498 //                            TESTAPP_MAX_CLUSTERS, (cId_t *)TestApp_ClusterList,
//  499 //                            FALSE );
//  500     }
//  501 
//  502     if ( keys & HAL_KEY_SW_3 )
//  503     {
//  504     }
//  505 
//  506     if ( keys & HAL_KEY_SW_4 )
//  507     {
//  508 //      HalLedSet ( HAL_LED_4, HAL_LED_MODE_OFF );
//  509 //      // Initiate a Match Description Request (Service Discovery)
//  510 //      dstAddr.addrMode = AddrBroadcast;
//  511 //      dstAddr.addr.shortAddr = NWK_BROADCAST_SHORTADDR;
//  512 //      ZDP_MatchDescReq( &dstAddr, NWK_BROADCAST_SHORTADDR,
//  513 //                        TESTAPP_PROFID,
//  514 //                        TESTAPP_MAX_CLUSTERS, (cId_t *)TestApp_ClusterList,
//  515 //                        TESTAPP_MAX_CLUSTERS, (cId_t *)TestApp_ClusterList,
//  516 //                        FALSE );
//  517     }
//  518   }
//  519 }
??TestApp_HandleKeys_0:
        MOV     R7,#0x1
        LJMP    ?BANKED_LEAVE_XDATA
        CFI EndBlock cfiBlock12
//  520 
//  521 /*********************************************************************
//  522  * LOCAL FUNCTIONS
//  523  */
//  524 
//  525 /*********************************************************************
//  526  * @fn      TestApp_MessageMSGCB
//  527  *
//  528  * @brief   Data message processor callback.  This function processes
//  529  *          any incoming data - probably from other devices.  So, based
//  530  *          on cluster ID, perform the intended action.
//  531  *
//  532  * @param   none
//  533  *
//  534  * @return  none
//  535  */

        RSEG BANKED_CODE:CODE:NOROOT(0)
//  536 void TestApp_MessageMSGCB( afIncomingMSGPacket_t *pkt )
TestApp_MessageMSGCB:
        CFI Block cfiBlock13 Using cfiCommon0
        CFI Function TestApp_MessageMSGCB
        CODE
//  537 {
        FUNCALL TestApp_MessageMSGCB, HalLcdWriteScreen
        LOCFRAME ISTACK, 0, STACK
        LOCFRAME PSTACK, 0, STACK
        LOCFRAME XSTACK, 10, STACK
        LOCFRAME IOVERLAY, 0, STATIC
        LOCFRAME DOVERLAY, 0, STATIC
        ARGFRAME ISTACK, 0, STACK
        ARGFRAME PSTACK, 0, STACK
        ARGFRAME XSTACK, 10, STACK
        ARGFRAME IOVERLAY, 0, STATIC
        ARGFRAME DOVERLAY, 0, STATIC
        FUNCALL TestApp_MessageMSGCB, HalUARTWrite
        LOCFRAME ISTACK, 0, STACK
        LOCFRAME PSTACK, 0, STACK
        LOCFRAME XSTACK, 10, STACK
        LOCFRAME IOVERLAY, 0, STATIC
        LOCFRAME DOVERLAY, 0, STATIC
        ARGFRAME ISTACK, 0, STACK
        ARGFRAME PSTACK, 0, STACK
        ARGFRAME XSTACK, 10, STACK
        ARGFRAME IOVERLAY, 0, STATIC
        ARGFRAME DOVERLAY, 0, STATIC
        FUNCALL TestApp_MessageMSGCB, HalUARTWrite
        LOCFRAME ISTACK, 0, STACK
        LOCFRAME PSTACK, 0, STACK
        LOCFRAME XSTACK, 10, STACK
        LOCFRAME IOVERLAY, 0, STATIC
        LOCFRAME DOVERLAY, 0, STATIC
        ARGFRAME ISTACK, 0, STACK
        ARGFRAME PSTACK, 0, STACK
        ARGFRAME XSTACK, 10, STACK
        ARGFRAME IOVERLAY, 0, STATIC
        ARGFRAME DOVERLAY, 0, STATIC
        FUNCALL TestApp_MessageMSGCB, HalUARTWrite
        LOCFRAME ISTACK, 0, STACK
        LOCFRAME PSTACK, 0, STACK
        LOCFRAME XSTACK, 10, STACK
        LOCFRAME IOVERLAY, 0, STATIC
        LOCFRAME DOVERLAY, 0, STATIC
        ARGFRAME ISTACK, 0, STACK
        ARGFRAME PSTACK, 0, STACK
        ARGFRAME XSTACK, 10, STACK
        ARGFRAME IOVERLAY, 0, STATIC
        ARGFRAME DOVERLAY, 0, STATIC
        FUNCALL TestApp_MessageMSGCB, HalUARTWrite
        LOCFRAME ISTACK, 0, STACK
        LOCFRAME PSTACK, 0, STACK
        LOCFRAME XSTACK, 10, STACK
        LOCFRAME IOVERLAY, 0, STATIC
        LOCFRAME DOVERLAY, 0, STATIC
        ARGFRAME ISTACK, 0, STACK
        ARGFRAME PSTACK, 0, STACK
        ARGFRAME XSTACK, 10, STACK
        ARGFRAME IOVERLAY, 0, STATIC
        ARGFRAME DOVERLAY, 0, STATIC
        MOV     A,#-0xa
        LCALL   ?BANKED_ENTER_XDATA
        CFI DPH0 load(1, XDATA, add(CFA_XSP16, literal(-1)))
        CFI DPL0 load(1, XDATA, add(CFA_XSP16, literal(-2)))
        CFI ?BRET_EXT load(1, XDATA, add(CFA_XSP16, literal(-3)))
        CFI ?RET_HIGH load(1, XDATA, add(CFA_XSP16, literal(-4)))
        CFI ?RET_LOW load(1, XDATA, add(CFA_XSP16, literal(-5)))
        CFI R7 load(1, XDATA, add(CFA_XSP16, literal(-6)))
        CFI V1 load(1, XDATA, add(CFA_XSP16, literal(-7)))
        CFI V0 load(1, XDATA, add(CFA_XSP16, literal(-8)))
        CFI VB load(1, XDATA, add(CFA_XSP16, literal(-9)))
        CFI R6 load(1, XDATA, add(CFA_XSP16, literal(-10)))
        CFI CFA_SP SP+0
        CFI CFA_XSP16 add(XSP16, 10)
        ; Saved register size: 10
        ; Auto size: 0
//  538   switch ( pkt->clusterId )
        MOV     A,R2
        ADD     A,#0x21
        MOV     R6,A
        MOV     A,R3
        ADDC    A,#0x0
        MOV     R7,A
        MOV     DPL,R2
        MOV     DPH,R3
        INC     DPTR
        INC     DPTR
        INC     DPTR
        INC     DPTR
        LCALL   ?Subroutine1 & 0xFFFF
??CrossCallReturnLabel_1:
        LCALL   ?US_SWITCH_DENSE
`?<Jumptable for TestApp_MessageMSGCB>_0`:
        DATA
        DATA16
        DATA
        DATA16
        DW        1
        DATA
        DATA8
        DATA
        DATA8
        DB        1
        DATA
        DATA16
        DATA
        DATA16
        DW        ??TestApp_MessageMSGCB_0
        DATA
        DATA16
        DATA
        DATA16
        DW        ??TestApp_MessageMSGCB_1
        DATA
        DATA16
        DATA
        DATA16
        DW        ??TestApp_MessageMSGCB_2
        CODE
//  539   {
//  540     case TESTAPP_CLUSTERID:
//  541       // "the" message
//  542 #if defined( LCD_SUPPORTED )
//  543       HalLcdWriteScreen( (char*)pkt->cmd.Data, "rcvd" );
??TestApp_MessageMSGCB_1:
        ; Setup parameters for call to function HalLcdWriteScreen
        MOV     R4,#`?<Constant "rcvd">` & 0xff
        MOV     R5,#(`?<Constant "rcvd">` >> 8) & 0xff
        MOV     DPL,R6
        MOV     DPH,R7
        MOVX    A,@DPTR
        MOV     R2,A
        INC     DPTR
        MOVX    A,@DPTR
        MOV     R3,A
        LCALL   ??HalLcdWriteScreen?relay
//  544 #elif defined( WIN32 )
//  545       WPRINTSTR( pkt->cmd.Data );
//  546 #endif			
//  547       break;
        SJMP    ??TestApp_MessageMSGCB_0
//  548       
//  549     case TESTAPP_PERIODIC_CLUSTERID:
//  550 			if (pkt->cmd.Data[pkt->cmd.DataLength - 1] == '1')
??TestApp_MessageMSGCB_2:
        MOV     A,R2
        ADD     A,#0x1f
        MOV     ?V0 + 0,A
        MOV     A,R3
        ADDC    A,#0x0
        MOV     ?V0 + 1,A
        MOV     DPL,?V0 + 0
        MOV     DPH,A
        MOVX    A,@DPTR
        MOV     R0,A
        INC     DPTR
        MOVX    A,@DPTR
        MOV     R1,A
        MOV     DPL,R6
        MOV     DPH,R7
        MOVX    A,@DPTR
        ADD     A,R0
        MOV     R0,A
        INC     DPTR
        MOVX    A,@DPTR
        ADDC    A,R1
        MOV     R1,A
        MOV     A,R0
        ADD     A,#-0x1
        MOV     DPL,A
        MOV     A,R1
        ADDC    A,#-0x1
        MOV     DPH,A
        MOVX    A,@DPTR
        XRL     A,#0x31
        JNZ     ??TestApp_MessageMSGCB_3
//  551 				HalUARTWrite(0, "DHT11: ", 7);
        ; Setup parameters for call to function HalUARTWrite
        MOV     R4,#0x7
        MOV     R5,#0x0
        MOV     R2,#`?<Constant "DHT11: ">` & 0xff
        MOV     R3,#(`?<Constant "DHT11: ">` >> 8) & 0xff
        SJMP    ??TestApp_MessageMSGCB_4
//  552 			else if (pkt->cmd.Data[pkt->cmd.DataLength - 1] == '2')
??TestApp_MessageMSGCB_3:
        MOVX    A,@DPTR
        XRL     A,#0x32
        JNZ     ??TestApp_MessageMSGCB_5
//  553 				HalUARTWrite(0, "DS18B20: ", 9);
        ; Setup parameters for call to function HalUARTWrite
        MOV     R4,#0x9
        MOV     R5,#0x0
        MOV     R2,#`?<Constant "DS18B20: ">` & 0xff
        MOV     R3,#(`?<Constant "DS18B20: ">` >> 8) & 0xff
??TestApp_MessageMSGCB_4:
        MOV     R1,#0x0
        LCALL   ??HalUARTWrite?relay
//  554 			
//  555 			HalUARTWrite(0, pkt->cmd.Data, pkt->cmd.DataLength - 1);
??TestApp_MessageMSGCB_5:
        ; Setup parameters for call to function HalUARTWrite
        MOV     DPL,?V0 + 0
        MOV     DPH,?V0 + 1
        MOVX    A,@DPTR
        ADD     A,#-0x1
        MOV     R4,A
        INC     DPTR
        MOVX    A,@DPTR
        ADDC    A,#-0x1
        MOV     R5,A
        MOV     DPL,R6
        MOV     DPH,R7
        MOVX    A,@DPTR
        MOV     R2,A
        INC     DPTR
        MOVX    A,@DPTR
        MOV     R3,A
        MOV     R1,#0x0
        LCALL   ??HalUARTWrite?relay
//  556 			HalUARTWrite(0, "\r\n", 2);
        ; Setup parameters for call to function HalUARTWrite
        MOV     R4,#0x2
        MOV     R5,#0x0
        MOV     R2,#`?<Constant "\\r\\n">` & 0xff
        MOV     R3,#(`?<Constant "\\r\\n">` >> 8) & 0xff
        MOV     R1,#0x0
        LCALL   ??HalUARTWrite?relay
//  557 		break;
//  558   }
//  559 }
??TestApp_MessageMSGCB_0:
        LJMP    ??Subroutine4_0 & 0xFFFF
        CFI EndBlock cfiBlock13

        RSEG BANKED_CODE:CODE:NOROOT(0)
?Subroutine1:
        CFI Block cfiCond14 Using cfiCommon0
        CFI NoFunction
        CFI Conditional ??CrossCallReturnLabel_0
        CFI R6 load(1, XDATA, add(CFA_XSP16, literal(-10)))
        CFI VB load(1, XDATA, add(CFA_XSP16, literal(-9)))
        CFI V0 load(1, XDATA, add(CFA_XSP16, literal(-8)))
        CFI V1 load(1, XDATA, add(CFA_XSP16, literal(-7)))
        CFI R7 load(1, XDATA, add(CFA_XSP16, literal(-6)))
        CFI ?RET_LOW load(1, XDATA, add(CFA_XSP16, literal(-5)))
        CFI ?RET_HIGH load(1, XDATA, add(CFA_XSP16, literal(-4)))
        CFI ?BRET_EXT load(1, XDATA, add(CFA_XSP16, literal(-3)))
        CFI DPL0 load(1, XDATA, add(CFA_XSP16, literal(-2)))
        CFI DPH0 load(1, XDATA, add(CFA_XSP16, literal(-1)))
        CFI CFA_SP SP+0
        CFI CFA_XSP16 add(XSP16, 10)
        CFI Block cfiCond15 Using cfiCommon0
        CFI (cfiCond15) NoFunction
        CFI (cfiCond15) Conditional ??CrossCallReturnLabel_1
        CFI (cfiCond15) R6 load(1, XDATA, add(CFA_XSP16, literal(-10)))
        CFI (cfiCond15) VB load(1, XDATA, add(CFA_XSP16, literal(-9)))
        CFI (cfiCond15) V0 load(1, XDATA, add(CFA_XSP16, literal(-8)))
        CFI (cfiCond15) V1 load(1, XDATA, add(CFA_XSP16, literal(-7)))
        CFI (cfiCond15) R7 load(1, XDATA, add(CFA_XSP16, literal(-6)))
        CFI (cfiCond15) ?RET_LOW load(1, XDATA, add(CFA_XSP16, literal(-5)))
        CFI (cfiCond15) ?RET_HIGH load(1, XDATA, add(CFA_XSP16, literal(-4)))
        CFI (cfiCond15) ?BRET_EXT load(1, XDATA, add(CFA_XSP16, literal(-3)))
        CFI (cfiCond15) DPL0 load(1, XDATA, add(CFA_XSP16, literal(-2)))
        CFI (cfiCond15) DPH0 load(1, XDATA, add(CFA_XSP16, literal(-1)))
        CFI (cfiCond15) CFA_SP SP+0
        CFI (cfiCond15) CFA_XSP16 add(XSP16, 10)
        CFI Block cfiPicker16 Using cfiCommon1
        CFI (cfiPicker16) NoFunction
        CFI (cfiPicker16) Picker
        MOVX    A,@DPTR
        MOV     ?V0 + 0,A
        INC     DPTR
        MOVX    A,@DPTR
        MOV     ?V0 + 1,A
        MOV     R0,#?V0 + 0
        RET
        CFI EndBlock cfiCond14
        CFI EndBlock cfiCond15
        CFI EndBlock cfiPicker16
//  560 
//  561 /*********************************************************************
//  562  * @fn      TestApp_SendTheMessage
//  563  *
//  564  * @brief   Send "the" message.
//  565  *
//  566  * @param   none
//  567  *
//  568  * @return  none
//  569  */

        RSEG BANKED_CODE:CODE:NOROOT(0)
//  570 void TestApp_SendTheMessage( void )
TestApp_SendTheMessage:
        CFI Block cfiBlock17 Using cfiCommon0
        CFI Function TestApp_SendTheMessage
        CODE
//  571 {
        FUNCALL TestApp_SendTheMessage, osal_strlen
        LOCFRAME ISTACK, 0, STACK
        LOCFRAME PSTACK, 0, STACK
        LOCFRAME XSTACK, 27, STACK
        LOCFRAME IOVERLAY, 0, STATIC
        LOCFRAME DOVERLAY, 0, STATIC
        ARGFRAME ISTACK, 0, STACK
        ARGFRAME PSTACK, 0, STACK
        ARGFRAME XSTACK, 27, STACK
        ARGFRAME IOVERLAY, 0, STATIC
        ARGFRAME DOVERLAY, 0, STATIC
        FUNCALL TestApp_SendTheMessage, AF_DataRequest
        LOCFRAME ISTACK, 0, STACK
        LOCFRAME PSTACK, 0, STACK
        LOCFRAME XSTACK, 31, STACK
        LOCFRAME IOVERLAY, 0, STATIC
        LOCFRAME DOVERLAY, 0, STATIC
        ARGFRAME ISTACK, 0, STACK
        ARGFRAME PSTACK, 0, STACK
        ARGFRAME XSTACK, 31, STACK
        ARGFRAME IOVERLAY, 0, STATIC
        ARGFRAME DOVERLAY, 0, STATIC
        MOV     A,#-0xa
        LCALL   ?BANKED_ENTER_XDATA
        CFI DPH0 load(1, XDATA, add(CFA_XSP16, literal(-1)))
        CFI DPL0 load(1, XDATA, add(CFA_XSP16, literal(-2)))
        CFI ?BRET_EXT load(1, XDATA, add(CFA_XSP16, literal(-3)))
        CFI ?RET_HIGH load(1, XDATA, add(CFA_XSP16, literal(-4)))
        CFI ?RET_LOW load(1, XDATA, add(CFA_XSP16, literal(-5)))
        CFI R7 load(1, XDATA, add(CFA_XSP16, literal(-6)))
        CFI V1 load(1, XDATA, add(CFA_XSP16, literal(-7)))
        CFI V0 load(1, XDATA, add(CFA_XSP16, literal(-8)))
        CFI VB load(1, XDATA, add(CFA_XSP16, literal(-9)))
        CFI R6 load(1, XDATA, add(CFA_XSP16, literal(-10)))
        CFI CFA_SP SP+0
        CFI CFA_XSP16 add(XSP16, 10)
        ; Saved register size: 10
        ; Auto size: 12
        MOV     A,#-0xc
        LCALL   ?ALLOC_XSTACK8
        CFI CFA_XSP16 add(XSP16, 22)
//  572   char theMessageData[] = "Hello World";
        MOV     DPL,?XSP + 0
        MOV     DPH,?XSP + 1
        MOV     R4,DPL
        MOV     R5,DPH
        MOV     DPH,#(`?<Constant "Hello World">` >> 8) & 0xff
        MOV     DPL,#`?<Constant "Hello World">` & 0xff
        MOV     A,#0xc
        LCALL   ?MOVE_LONG8_XDATA_XDATA
//  573 
//  574   if ( AF_DataRequest( &TestApp_DstAddr, &TestApp_epDesc,
//  575                        TESTAPP_CLUSTERID,
//  576                        (byte)osal_strlen( theMessageData ) + 1,
//  577                        (byte *)&theMessageData,
//  578                        &TestApp_TransID,
//  579                        AF_DISCV_ROUTE, AF_DEFAULT_RADIUS ) == afStatus_SUCCESS )
        ; Setup parameters for call to function AF_DataRequest
        MOV     ?V0 + 0,#0x1e
        MOV     R0,#?V0 + 0
        LCALL   ?PUSH_XSTACK_I_ONE
        CFI CFA_XSP16 add(XSP16, 23)
        MOV     ?V0 + 0,#TestApp_TransID & 0xff
        MOV     ?V0 + 1,#(TestApp_TransID >> 8) & 0xff
        MOV     R0,#?V0 + 0
        LCALL   ?PUSH_XSTACK_I_TWO
        CFI CFA_XSP16 add(XSP16, 25)
        MOV     A,#0x3
        LCALL   ?XSTACK_DISP0_8
        MOV     ?V0 + 0,DPL
        MOV     ?V0 + 1,DPH
        MOV     R0,#?V0 + 0
        LCALL   ?PUSH_XSTACK_I_TWO
        CFI CFA_XSP16 add(XSP16, 27)
        ; Setup parameters for call to function osal_strlen
        MOV     A,#0x5
        LCALL   ?XSTACK_DISP0_8
        MOV     R2,DPL
        MOV     R3,DPH
        LCALL   ??osal_strlen?relay
        MOV     A,R2
        ADD     A,#0x1
        MOV     ?V0 + 0,A
        CLR     A
        ADDC    A,#0x0
        MOV     ?V0 + 1,A
        MOV     R0,#?V0 + 0
        LCALL   ?PUSH_XSTACK_I_TWO
        CFI CFA_XSP16 add(XSP16, 29)
        MOV     ?V0 + 0,#0x1
        MOV     ?V0 + 1,#0x0
        MOV     R0,#?V0 + 0
        LCALL   ?PUSH_XSTACK_I_TWO
        CFI CFA_XSP16 add(XSP16, 31)
        MOV     R1,#0x20
        MOV     R4,#TestApp_epDesc & 0xff
        MOV     R5,#(TestApp_epDesc >> 8) & 0xff
        MOV     R2,#TestApp_DstAddr & 0xff
        MOV     R3,#(TestApp_DstAddr >> 8) & 0xff
        LCALL   ??AF_DataRequest?relay
        MOV     A,#0x9
        LCALL   ?DEALLOC_XSTACK8
        CFI CFA_XSP16 add(XSP16, 22)
//  580   {
//  581     // Successfully requested to be sent.
//  582   }
//  583   else
//  584   {
//  585     // Error occurred in request to send.
//  586   }
//  587 }
        MOV     A,#0xc
        LJMP    ?Subroutine0 & 0xFFFF
        CFI EndBlock cfiBlock17
//  588 
//  589 /*********************************************************************
//  590  * @fn      TestApp_SendPeriodicDHT11Message
//  591  *
//  592  * @brief   Send periodic message.
//  593  *
//  594  * @param   none
//  595  *
//  596  * @return  none
//  597  */

        RSEG BANKED_CODE:CODE:NOROOT(0)
//  598 void TestApp_SendPeriodicDHT11Message( void )
TestApp_SendPeriodicDHT11Message:
        CFI Block cfiBlock18 Using cfiCommon0
        CFI Function TestApp_SendPeriodicDHT11Message
        CODE
//  599 {
        FUNCALL TestApp_SendPeriodicDHT11Message, AF_DataRequest
        LOCFRAME ISTACK, 0, STACK
        LOCFRAME PSTACK, 0, STACK
        LOCFRAME XSTACK, 20, STACK
        LOCFRAME IOVERLAY, 0, STATIC
        LOCFRAME DOVERLAY, 0, STATIC
        ARGFRAME ISTACK, 0, STACK
        ARGFRAME PSTACK, 0, STACK
        ARGFRAME XSTACK, 20, STACK
        ARGFRAME IOVERLAY, 0, STATIC
        ARGFRAME DOVERLAY, 0, STATIC
        MOV     A,#-0xa
        LCALL   ?BANKED_ENTER_XDATA
        CFI DPH0 load(1, XDATA, add(CFA_XSP16, literal(-1)))
        CFI DPL0 load(1, XDATA, add(CFA_XSP16, literal(-2)))
        CFI ?BRET_EXT load(1, XDATA, add(CFA_XSP16, literal(-3)))
        CFI ?RET_HIGH load(1, XDATA, add(CFA_XSP16, literal(-4)))
        CFI ?RET_LOW load(1, XDATA, add(CFA_XSP16, literal(-5)))
        CFI R7 load(1, XDATA, add(CFA_XSP16, literal(-6)))
        CFI V1 load(1, XDATA, add(CFA_XSP16, literal(-7)))
        CFI V0 load(1, XDATA, add(CFA_XSP16, literal(-8)))
        CFI VB load(1, XDATA, add(CFA_XSP16, literal(-9)))
        CFI R6 load(1, XDATA, add(CFA_XSP16, literal(-10)))
        CFI CFA_SP SP+0
        CFI CFA_XSP16 add(XSP16, 10)
        ; Saved register size: 10
        ; Auto size: 1
        MOV     A,#-0x1
        LCALL   ?ALLOC_XSTACK8
        CFI CFA_XSP16 add(XSP16, 11)
//  600 	volatile uint8 dataLen = 0;
        MOV     DPL,?XSP + 0
        MOV     DPH,?XSP + 1
        CLR     A
        MOVX    @DPTR,A
//  601 	dataLen = TestApp_GetDHT11SensorData();
        MOVX    @DPTR,A
//  602 	if ( dataLen > 0 )
        MOVX    A,@DPTR
        JZ      ??TestApp_SendPeriodicDHT11Message_0
//  603 	{	
//  604 		if ( AF_DataRequest( &TestApp_Periodic_DstAddr, &TestApp_epDesc,
//  605 												 TESTAPP_PERIODIC_CLUSTERID, dataLen - 1, (byte *)Dht11Data, 
//  606 												 &TestApp_TransID, AF_DISCV_ROUTE,
//  607 												 AF_DEFAULT_RADIUS ) == afStatus_SUCCESS )
        ; Setup parameters for call to function AF_DataRequest
        MOV     ?V0 + 0,#0x1e
        MOV     R0,#?V0 + 0
        LCALL   ?PUSH_XSTACK_I_ONE
        CFI CFA_XSP16 add(XSP16, 12)
        MOV     ?V0 + 0,#TestApp_TransID & 0xff
        MOV     ?V0 + 1,#(TestApp_TransID >> 8) & 0xff
        MOV     R0,#?V0 + 0
        LCALL   ?PUSH_XSTACK_I_TWO
        CFI CFA_XSP16 add(XSP16, 14)
        MOV     ?V0 + 0,#Dht11Data & 0xff
        MOV     ?V0 + 1,#(Dht11Data >> 8) & 0xff
        MOV     R0,#?V0 + 0
        LCALL   ?PUSH_XSTACK_I_TWO
        CFI CFA_XSP16 add(XSP16, 16)
        MOV     A,#0x5
        LCALL   ?XSTACK_DISP0_8
        MOVX    A,@DPTR
        ADD     A,#-0x1
        MOV     ?V0 + 0,A
        CLR     A
        ADDC    A,#-0x1
        MOV     ?V0 + 1,A
        MOV     R0,#?V0 + 0
        LCALL   ?PUSH_XSTACK_I_TWO
        CFI CFA_XSP16 add(XSP16, 18)
        MOV     ?V0 + 0,#0x2
        MOV     ?V0 + 1,#0x0
        MOV     R0,#?V0 + 0
        LCALL   ?PUSH_XSTACK_I_TWO
        CFI CFA_XSP16 add(XSP16, 20)
        MOV     R1,#0x20
        MOV     R4,#TestApp_epDesc & 0xff
        MOV     R5,#(TestApp_epDesc >> 8) & 0xff
        MOV     R2,#TestApp_Periodic_DstAddr & 0xff
        MOV     R3,#(TestApp_Periodic_DstAddr >> 8) & 0xff
        LCALL   ??AF_DataRequest?relay
        MOV     A,#0x9
        LCALL   ?DEALLOC_XSTACK8
        CFI CFA_XSP16 add(XSP16, 11)
//  608 		{
//  609 //			HalLedSet(HAL_LED_2, HAL_LED_MODE_TOGGLE);
//  610 		}
//  611 		else
//  612 		{
//  613 		 
//  614 		}
//  615 	}
//  616 }
??TestApp_SendPeriodicDHT11Message_0:
        MOV     A,#0x1
        LJMP    ?Subroutine0 & 0xFFFF
        CFI EndBlock cfiBlock18
//  617 
//  618 /*********************************************************************
//  619  * @fn      TestApp_SendPeriodicDS18B20Message
//  620  *
//  621  * @brief   Send periodic message.
//  622  *
//  623  * @param   none
//  624  *
//  625  * @return  none
//  626  */

        RSEG BANKED_CODE:CODE:NOROOT(0)
//  627 void TestApp_SendPeriodicDS18B20Message()
TestApp_SendPeriodicDS18B20Message:
        CFI Block cfiBlock19 Using cfiCommon0
        CFI Function TestApp_SendPeriodicDS18B20Message
        CODE
//  628 {
        ; Saved register size: 0
        ; Auto size: 0
//  629 #if defined ( DS18B20 )	
//  630 	uint8 dataLen = 0;
//  631 	char Ds18b20Data[6] = {0};	
//  632 	char hundreds, tens, units, decimal;	
//  633 	float temperature;
//  634 	
//  635 	temperature = dsReadT();
//  636 	
//  637 		if (temperature == -10000.0)
//  638 			return;
//  639 		hundreds = (char)(temperature / 100) + 0x30;
//  640 		tens = (char)(((int)temperature % 100) / 10 ) + 0x30;
//  641 		units = (char)((int)temperature % 10) + 0x30;
//  642 		decimal = (char)((temperature - (int)temperature) * 10) + 0x30;	
//  643 		
//  644 		if (hundreds > 0x30 && hundreds < 0x3A)
//  645 			Ds18b20Data[dataLen++] = hundreds;
//  646 		
//  647 		if (tens >= 0x30 && tens < 0x3A)
//  648 		{
//  649 			if (hundreds == 0x30 && tens != 0x30)
//  650 				Ds18b20Data[dataLen++] = tens;
//  651 			else if (hundreds != 0x30)
//  652 				Ds18b20Data[dataLen++] = tens;
//  653 		}
//  654 		
//  655 		if (units >= 0x30 && units < 0x3A)
//  656 		{
//  657 			if (hundreds == 0x30)
//  658 			{
//  659 				if (tens == 0x30)
//  660 					Ds18b20Data[dataLen++] = units;
//  661 				else
//  662 					Ds18b20Data[dataLen++] = units;
//  663 			}
//  664 			else
//  665 			{
//  666 				Ds18b20Data[dataLen++] = units;
//  667 			}
//  668 		}
//  669 		
//  670 		if (decimal > 0x30 && decimal < 0x3A)
//  671 		{
//  672 			if (hundreds == 0x30)
//  673 			{
//  674 				if (tens == 0x30)
//  675 				{
//  676 					Ds18b20Data[dataLen++] = '.';
//  677 					Ds18b20Data[dataLen++] = decimal;
//  678 				}
//  679 				else
//  680 				{
//  681 					Ds18b20Data[dataLen++] = '.';
//  682 					Ds18b20Data[dataLen++] = decimal;
//  683 				}
//  684 			}
//  685 			else
//  686 			{
//  687 				Ds18b20Data[dataLen++] = '.';
//  688 				Ds18b20Data[dataLen++] = decimal;
//  689 			}
//  690 		}
//  691 		
//  692 		Ds18b20Data[dataLen] = '2';
//  693 		
//  694 	if ( dataLen > 0 )
//  695 	{	
//  696 		if ( AF_DataRequest( &TestApp_Periodic_DstAddr, &TestApp_epDesc,
//  697 												 TESTAPP_PERIODIC_CLUSTERID, dataLen + 1, (byte *)&Ds18b20Data, 
//  698 												 &TestApp_TransID, AF_DISCV_ROUTE,
//  699 												 AF_DEFAULT_RADIUS ) == afStatus_SUCCESS )
//  700 		{
//  701 //			HalLedSet(HAL_LED_2, HAL_LED_MODE_TOGGLE);
//  702 		}
//  703 		else
//  704 		{
//  705 		 
//  706 		}
//  707 	}	
//  708 #endif	
//  709 }
        LJMP    ?BRET
        CFI EndBlock cfiBlock19
//  710 
//  711 
//  712 
//  713 
//  714 /*********************************************************************
//  715  * @fn      TestApp_GetDHT11SensorData
//  716  *
//  717  * @brief   Get DHT11 sensor temperature and humidity data.
//  718  *
//  719  * @param   dataArray - pointer, pointer to the DHT11 sensor data buffer.
//  720  *
//  721  * @return none
//  722  */

        RSEG BANKED_CODE:CODE:NOROOT(0)
//  723 uint8 TestApp_GetDHT11SensorData()
TestApp_GetDHT11SensorData:
        CFI Block cfiBlock20 Using cfiCommon0
        CFI Function TestApp_GetDHT11SensorData
        CODE
//  724 {
        ; Saved register size: 0
        ; Auto size: 0
//  725 #if defined ( DHT11 )	
//  726 	uint8 dht11[2] = {0, 0};
//  727 	static uint8 initFalg = 1;
//  728 	
//  729 	if ( initFalg )
//  730 	{
//  731 		if ( !DHT11IOInit() )	// 初始化 DHT11 的 IO 引脚
//  732 		{
//  733 			//osal_clear_event(TestApp_TaskID, TESTAPP_SEND_PERIODIC_MSG_EVT);
//  734 			// waiting for DHT11 ready
//  735 			osal_start_timerEx(TestApp_TaskID, TESTAPP_SEND_PERIODIC_MSG_EVT, 1000);// 1s			
//  736 
//  737 			initFalg = 0;
//  738 		}
//  739 		else
//  740 		{
//  741 			return 0;
//  742 		}
//  743 	}
//  744 	else
//  745 	{
//  746 		if ( DHT11ReadData(&dht11[0], &dht11[1]) == 0 )
//  747 		{
//  748 			Dht11Data[0] = dht11[0] / 10 + 0x30;	// temperature's tens
//  749 			Dht11Data[1] = dht11[0] % 10 + 0x30;	// temperature's units
//  750 			
//  751 			Dht11Data[2] = 0x20;
//  752 			
//  753 			Dht11Data[3] = dht11[1] / 10 + 0x30;	// humidity's tens
//  754 			Dht11Data[4] = dht11[1] % 10 + 0x30;	// humidity's units
//  755 			
//  756 			Dht11Data[5] = '1';
//  757 			
//  758 			return 6;
//  759 		}
//  760 	}
//  761 #endif	
//  762 	return 0;	
        MOV     R1,#0x0
        LJMP    ?BRET
        CFI EndBlock cfiBlock20
//  763 }

        RSEG BANK_RELAYS:CODE:REORDER:NOROOT(0)
??TestApp_Init?relay:
        LCALL   ?BDISPATCH
        DATA
        DC24    TestApp_Init

        RSEG BANK_RELAYS:CODE:REORDER:NOROOT(0)
??TestApp_ProcessEvent?relay:
        LCALL   ?BDISPATCH
        DATA
        DC24    TestApp_ProcessEvent

        RSEG BANK_RELAYS:CODE:REORDER:NOROOT(0)
??TestApp_ProcessZDOMsgs?relay:
        LCALL   ?BDISPATCH
        DATA
        DC24    TestApp_ProcessZDOMsgs

        RSEG BANK_RELAYS:CODE:REORDER:NOROOT(0)
??TestApp_HandleKeys?relay:
        LCALL   ?BDISPATCH
        DATA
        DC24    TestApp_HandleKeys

        RSEG BANK_RELAYS:CODE:REORDER:NOROOT(0)
??TestApp_MessageMSGCB?relay:
        LCALL   ?BDISPATCH
        DATA
        DC24    TestApp_MessageMSGCB

        RSEG BANK_RELAYS:CODE:REORDER:NOROOT(0)
??TestApp_SendTheMessage?relay:
        LCALL   ?BDISPATCH
        DATA
        DC24    TestApp_SendTheMessage

        RSEG BANK_RELAYS:CODE:REORDER:NOROOT(0)
??TestApp_SendPeriodicDHT11Message?relay:
        LCALL   ?BDISPATCH
        DATA
        DC24    TestApp_SendPeriodicDHT11Message

        RSEG BANK_RELAYS:CODE:REORDER:NOROOT(0)
??TestApp_SendPeriodicDS18B20Message?relay:
        LCALL   ?BDISPATCH
        DATA
        DC24    TestApp_SendPeriodicDS18B20Message

        RSEG BANK_RELAYS:CODE:REORDER:NOROOT(0)
??TestApp_GetDHT11SensorData?relay:
        LCALL   ?BDISPATCH
        DATA
        DC24    TestApp_GetDHT11SensorData

        RSEG XDATA_ROM_C:CONST:REORDER:NOROOT(0)
        DATA8
`?<Constant "Group 3">`:
        DB "Group 3"

        RSEG XDATA_ROM_C:CONST:REORDER:NOROOT(0)
        DATA8
`?<Constant "UartInit OK\\n">`:
        DB "UartInit OK\012"

        RSEG XDATA_ROM_C:CONST:REORDER:NOROOT(0)
        DATA8
`?<Constant "TestApp">`:
        DB "TestApp"

        RSEG XDATA_ROM_C:CONST:REORDER:NOROOT(0)
        DATA8
`?<Constant "rcvd">`:
        DB "rcvd"

        RSEG XDATA_ROM_C:CONST:REORDER:NOROOT(0)
        DATA8
`?<Constant "DHT11: ">`:
        DB "DHT11: "

        RSEG XDATA_ROM_C:CONST:REORDER:NOROOT(0)
        DATA8
`?<Constant "DS18B20: ">`:
        DB "DS18B20: "

        RSEG XDATA_ROM_C:CONST:REORDER:NOROOT(0)
        DATA8
`?<Constant "\\r\\n">`:
        DB "\015\012"

        RSEG XDATA_ROM_C:CONST:REORDER:NOROOT(0)
        DATA8
`?<Constant "Hello World">`:
        DB "Hello World"

        END
//  764 
//  765 /*********************************************************************
//  766 *********************************************************************/
// 
// 1 010 bytes in segment BANKED_CODE
//    54 bytes in segment BANK_RELAYS
//    83 bytes in segment XDATA_ROM_C
//    69 bytes in segment XDATA_Z
// 
// 1 064 bytes of CODE  memory
//    83 bytes of CONST memory
//    69 bytes of XDATA memory
//
//Errors: none
//Warnings: none
