###############################################################################
#                                                                             #
# IAR C/C++ Compiler V8.10.3.10338/W32 for 8051         25/Jan/2016  14:25:44 #
# Copyright 2004-2011 IAR Systems AB.                                         #
#                                                                             #
#    Core               =  plain                                              #
#    Code model         =  banked                                             #
#    Data model         =  large                                              #
#    Calling convention =  xdata reentrant                                    #
#    Constant location  =  data_rom                                           #
#    Dptr setup         =  1,16                                               #
#    Source file        =  E:\Work Codes\ZigBee\Network\Components\stack\zdo\ #
#                          ZDProfile.c                                        #
#    Command line       =  -f "E:\Work Codes\ZigBee\Network\Projects\zstack\S #
#                          amples\TestApp\CC2530DB\..\..\..\Tools\CC2530DB\f8 #
#                          wCoord.cfg" (-DCPU32MHZ -DROOT=__near_func         #
#                          -DMAC_CFG_APP_PENDING_QUEUE=TRUE                   #
#                          -DZDO_COORDINATOR -DRTR_NWK -DBLINK_LEDS) -f       #
#                          "E:\Work Codes\ZigBee\Network\Projects\zstack\Samp #
#                          les\TestApp\CC2530DB\..\..\..\Tools\CC2530DB\f8wCo #
#                          nfig.cfg" (-DSECURE=0 -DZG_SECURE_DYNAMIC=0        #
#                          -DREFLECTOR -DDEFAULT_CHANLIST=0x00000800          #
#                          -DZDAPP_CONFIG_PAN_ID=0xFFFB                       #
#                          -DNWK_START_DELAY=100 -DEXTENDED_JOINING_RANDOM_MA #
#                          SK=0x007F -DBEACON_REQUEST_DELAY=100               #
#                          -DBEACON_REQ_DELAY_MASK=0x00FF                     #
#                          -DROUTE_EXPIRY_TIME=30 -DAPSC_ACK_WAIT_DURATION_PO #
#                          LLED=3000 -DNWK_INDIRECT_MSG_TIMEOUT=7             #
#                          -DMAX_RREQ_ENTRIES=8 -DAPSC_MAX_FRAME_RETRIES=3    #
#                          -DNWK_MAX_DATA_RETRIES=2                           #
#                          -DMAX_POLL_FAILURE_RETRIES=2 -DMAX_BCAST=9         #
#                          -DAPS_MAX_GROUPS=16 -DMAX_RTG_ENTRIES=40           #
#                          -DNWK_MAX_BINDING_ENTRIES=4                        #
#                          -DMAX_BINDING_CLUSTER_IDS=4 "-DDEFAULT_KEY={0x01,  #
#                          0x03, 0x05, 0x07, 0x09, 0x0B, 0x0D, 0x0F, 0x00,    #
#                          0x02, 0x04, 0x06, 0x08, 0x0A, 0x0C, 0x0D}"         #
#                          -DMAC_MAX_FRAME_SIZE=116 "-DCONST=const __code"    #
#                          -DGENERIC=__generic -DRFD_RCVC_ALWAYS_ON=FALSE     #
#                          -DPOLL_RATE=1000 -DQUEUED_POLL_RATE=100            #
#                          -DRESPONSE_POLL_RATE=100) -DREJOIN_POLL_RATE=440   #
#                          "E:\Work Codes\ZigBee\Network\Components\stack\zdo #
#                          \ZDProfile.c" -D ZTOOL_P1 -D xMT_TASK -D           #
#                          xMT_SYS_FUNC -D xMT_ZDO_FUNC -D                    #
#                          LCD_SUPPORTED=DEBUG -lC "E:\Work                   #
#                          Codes\ZigBee\Network\Projects\zstack\Samples\TestA #
#                          pp\CC2530DB\CoordinatorEB\List\" -lA "E:\Work      #
#                          Codes\ZigBee\Network\Projects\zstack\Samples\TestA #
#                          pp\CC2530DB\CoordinatorEB\List\" --diag_suppress   #
#                          Pe001,Pa010 -o "E:\Work Codes\ZigBee\Network\Proje #
#                          cts\zstack\Samples\TestApp\CC2530DB\CoordinatorEB\ #
#                          Obj\" -e --debug --core=plain --dptr=16,1          #
#                          --data_model=large --code_model=banked             #
#                          --calling_convention=xdata_reentrant               #
#                          --place_constants=data_rom --nr_virtual_regs 16    #
#                          -I "E:\Work Codes\ZigBee\Network\Projects\zstack\S #
#                          amples\TestApp\CC2530DB\" -I "E:\Work              #
#                          Codes\ZigBee\Network\Projects\zstack\Samples\TestA #
#                          pp\CC2530DB\..\SOURCE\" -I "E:\Work                #
#                          Codes\ZigBee\Network\Projects\zstack\Samples\TestA #
#                          pp\CC2530DB\..\..\..\ZMAIN\TI2530DB\" -I "E:\Work  #
#                          Codes\ZigBee\Network\Projects\zstack\Samples\TestA #
#                          pp\CC2530DB\..\..\..\..\..\COMPONENTS\MT\" -I      #
#                          "E:\Work Codes\ZigBee\Network\Projects\zstack\Samp #
#                          les\TestApp\CC2530DB\..\..\..\..\..\COMPONENTS\HAL #
#                          \INCLUDE\" -I "E:\Work Codes\ZigBee\Network\Projec #
#                          ts\zstack\Samples\TestApp\CC2530DB\..\..\..\..\..\ #
#                          COMPONENTS\HAL\TARGET\CC2530EB\" -I "E:\Work       #
#                          Codes\ZigBee\Network\Projects\zstack\Samples\TestA #
#                          pp\CC2530DB\..\..\..\..\..\COMPONENTS\OSAL\MCU\CCS #
#                          OC\" -I "E:\Work Codes\ZigBee\Network\Projects\zst #
#                          ack\Samples\TestApp\CC2530DB\..\..\..\..\..\COMPON #
#                          ENTS\OSAL\INCLUDE\" -I "E:\Work                    #
#                          Codes\ZigBee\Network\Projects\zstack\Samples\TestA #
#                          pp\CC2530DB\..\..\..\..\..\COMPONENTS\STACK\AF\"   #
#                          -I "E:\Work Codes\ZigBee\Network\Projects\zstack\S #
#                          amples\TestApp\CC2530DB\..\..\..\..\..\COMPONENTS\ #
#                          STACK\NWK\" -I "E:\Work Codes\ZigBee\Network\Proje #
#                          cts\zstack\Samples\TestApp\CC2530DB\..\..\..\..\.. #
#                          \COMPONENTS\STACK\SEC\" -I "E:\Work                #
#                          Codes\ZigBee\Network\Projects\zstack\Samples\TestA #
#                          pp\CC2530DB\..\..\..\..\..\COMPONENTS\STACK\SAPI\" #
#                           -I "E:\Work Codes\ZigBee\Network\Projects\zstack\ #
#                          Samples\TestApp\CC2530DB\..\..\..\..\..\COMPONENTS #
#                          \STACK\SYS\" -I "E:\Work                           #
#                          Codes\ZigBee\Network\Projects\zstack\Samples\TestA #
#                          pp\CC2530DB\..\..\..\..\..\COMPONENTS\STACK\ZDO\"  #
#                          -I "E:\Work Codes\ZigBee\Network\Projects\zstack\S #
#                          amples\TestApp\CC2530DB\..\..\..\..\..\COMPONENTS\ #
#                          ZMAC\F8W\" -I "E:\Work Codes\ZigBee\Network\Projec #
#                          ts\zstack\Samples\TestApp\CC2530DB\..\..\..\..\..\ #
#                          COMPONENTS\ZMAC\" -I "E:\Work                      #
#                          Codes\ZigBee\Network\Projects\zstack\Samples\TestA #
#                          pp\CC2530DB\..\..\..\..\..\COMPONENTS\SERVICES\SAD #
#                          DR\" -I "E:\Work Codes\ZigBee\Network\Projects\zst #
#                          ack\Samples\TestApp\CC2530DB\..\..\..\..\..\COMPON #
#                          ENTS\SERVICES\SDATA\" -I "E:\Work                  #
#                          Codes\ZigBee\Network\Projects\zstack\Samples\TestA #
#                          pp\CC2530DB\..\..\..\..\..\COMPONENTS\MAC\INCLUDE\ #
#                          " -I "E:\Work Codes\ZigBee\Network\Projects\zstack #
#                          \Samples\TestApp\CC2530DB\..\..\..\..\..\COMPONENT #
#                          S\MAC\HIGH_LEVEL\" -I "E:\Work                     #
#                          Codes\ZigBee\Network\Projects\zstack\Samples\TestA #
#                          pp\CC2530DB\..\..\..\..\..\COMPONENTS\MAC\LOW_LEVE #
#                          L\srf04\" -I "E:\Work Codes\ZigBee\Network\Project #
#                          s\zstack\Samples\TestApp\CC2530DB\..\..\..\..\..\C #
#                          OMPONENTS\MAC\LOW_LEVEL\srf04\SINGLE_CHIP\" -Ohz   #
#                          --require_prototypes                               #
#    List file          =  E:\Work Codes\ZigBee\Network\Projects\zstack\Sampl #
#                          es\TestApp\CC2530DB\CoordinatorEB\List\ZDProfile.l #
#                          st                                                 #
#    Object file        =  E:\Work Codes\ZigBee\Network\Projects\zstack\Sampl #
#                          es\TestApp\CC2530DB\CoordinatorEB\Obj\ZDProfile.r5 #
#                          1                                                  #
#                                                                             #
#                                                                             #
###############################################################################

E:\Work Codes\ZigBee\Network\Components\stack\zdo\ZDProfile.c
      1          /**************************************************************************************************
      2            Filename:       ZDProfile.c
      3            Revised:        $Date: 2010-01-17 08:58:03 -0800 (Sun, 17 Jan 2010) $
      4            Revision:       $Revision: 21533 $
      5          
      6            Description:    This is the Zigbee Device Profile.
      7          
      8          
      9            Copyright 2004-2009 Texas Instruments Incorporated. All rights reserved.
     10          
     11            IMPORTANT: Your use of this Software is limited to those specific rights
     12            granted under the terms of a software license agreement between the user
     13            who downloaded the software, his/her employer (which must be your employer)
     14            and Texas Instruments Incorporated (the "License").  You may not use this
     15            Software unless you agree to abide by the terms of the License. The License
     16            limits your use, and you acknowledge, that the Software may not be modified,
     17            copied or distributed unless embedded on a Texas Instruments microcontroller
     18            or used solely and exclusively in conjunction with a Texas Instruments radio
     19            frequency transceiver, which is integrated into your product.  Other than for
     20            the foregoing purpose, you may not use, reproduce, copy, prepare derivative
     21            works of, modify, distribute, perform, display or sell this Software and/or
     22            its documentation for any purpose.
     23          
     24            YOU FURTHER ACKNOWLEDGE AND AGREE THAT THE SOFTWARE AND DOCUMENTATION ARE
     25            PROVIDED AS IS?WITHOUT WARRANTY OF ANY KIND, EITHER EXPRESS OR IMPLIED,
     26            INCLUDING WITHOUT LIMITATION, ANY WARRANTY OF MERCHANTABILITY, TITLE,
     27            NON-INFRINGEMENT AND FITNESS FOR A PARTICULAR PURPOSE. IN NO EVENT SHALL
     28            TEXAS INSTRUMENTS OR ITS LICENSORS BE LIABLE OR OBLIGATED UNDER CONTRACT,
     29            NEGLIGENCE, STRICT LIABILITY, CONTRIBUTION, BREACH OF WARRANTY, OR OTHER
     30            LEGAL EQUITABLE THEORY ANY DIRECT OR INDIRECT DAMAGES OR EXPENSES
     31            INCLUDING BUT NOT LIMITED TO ANY INCIDENTAL, SPECIAL, INDIRECT, PUNITIVE
     32            OR CONSEQUENTIAL DAMAGES, LOST PROFITS OR LOST DATA, COST OF PROCUREMENT
     33            OF SUBSTITUTE GOODS, TECHNOLOGY, SERVICES, OR ANY CLAIMS BY THIRD PARTIES
     34            (INCLUDING BUT NOT LIMITED TO ANY DEFENSE THEREOF), OR OTHER SIMILAR COSTS.
     35          
     36            Should you have any questions regarding your right to use this Software,
     37            contact Texas Instruments Incorporated at www.TI.com.
     38          **************************************************************************************************/
     39          
     40          /*********************************************************************
     41           * INCLUDES
     42           */
     43          #include "ZComdef.h"
     44          #include "OSAL.h"
     45          #include "AF.h"
     46          #include "NLMEDE.h"
     47          #include "nwk_util.h"
     48          #include "APS.h"
     49          
     50          #include "AddrMgr.h"
     51          #include "ZDConfig.h"
     52          #include "ZDProfile.h"
     53          #include "ZDObject.h"
     54          #include "ZDNwkMgr.h"
     55          
     56          #if defined( LCD_SUPPORTED )
     57            #include "OnBoard.h"
     58          #endif
     59          
     60          #include "nwk_util.h"
     61          
     62          #if defined( MT_ZDO_FUNC )
     63            #include "MT_ZDO.h"
     64          #endif
     65          
     66          /*********************************************************************
     67           * MACROS
     68           */
     69          
     70          #define ZADDR_TO_AFADDR( pZADDR, AFADDR ) {                            \
     71            (AFADDR).endPoint = ZDP_AF_ENDPOINT;                                 \
     72            (AFADDR).addrMode = (afAddrMode_t)(pZADDR)->addrMode;                \
     73            (AFADDR).addr.shortAddr = (pZADDR)->addr.shortAddr;                  \
     74          }
     75          
     76          #define FillAndSendBuffer( TRANSSEQ, ADDR, ID, LEN, BUF ) {     \
     77            afStatus_t stat;                                    \
     78            ZDP_TmpBuf = (BUF)+1;                               \
     79            stat = fillAndSend( (TRANSSEQ), (ADDR), (ID), (LEN) );          \
     80            osal_mem_free( (BUF) );                             \
     81            ZDP_TmpBuf = ZDP_Buf+1;                             \
     82            return stat;                                        \
     83          }
     84          
     85          #define FillAndSendTxOptions( TRANSSEQ, ADDR, ID, LEN, TxO ) {  \
     86            afStatus_t stat;                                    \
     87            ZDP_TxOptions = (TxO);                              \
     88            stat = fillAndSend( (TRANSSEQ), (ADDR), (ID), (LEN) );          \
     89            ZDP_TxOptions = AF_TX_OPTIONS_NONE;                 \
     90            return stat;                                        \
     91          }
     92          
     93          #define FillAndSendBufferTxOptions( TRANSSEQ, ADDR, ID, LEN, BUF, TxO ) { \
     94            afStatus_t stat;                                    \
     95            ZDP_TmpBuf = (BUF)+1;                               \
     96            ZDP_TxOptions = (TxO);                              \
     97            stat = fillAndSend( (TRANSSEQ), (ADDR), (ID), (LEN) );          \
     98            osal_mem_free( (BUF) );                             \
     99            ZDP_TmpBuf = ZDP_Buf+1;                             \
    100            ZDP_TxOptions = AF_TX_OPTIONS_NONE;                 \
    101            return stat;                                        \
    102          }
    103          
    104          /*********************************************************************
    105           * CONSTANTS
    106           */
    107          
    108          #define ZDP_BUF_SZ          80
    109          

   \                                 In  segment CODE_C, align 1
    110          CONST byte ZDP_AF_ENDPOINT = 0;
   \                     ZDP_AF_ENDPOINT:
   \   000000   00           DB 0
    111          
    112          /*********************************************************************
    113           * TYPEDEFS
    114           */
    115          typedef struct
    116          {
    117            void *next;
    118            uint8 taskID;
    119            uint16 clusterID;
    120          } ZDO_MsgCB_t;
    121          
    122          
    123          /*********************************************************************
    124           * GLOBAL VARIABLES
    125           */
    126          

   \                                 In  segment XDATA_Z, align 1, keep-with-next
    127          byte ZDP_TransID = 0;
   \                     ZDP_TransID:
   \   000000                DS 1
   \   000001                REQUIRE __INIT_XDATA_Z
    128          
    129          /*********************************************************************
    130           * EXTERNAL VARIABLES
    131           */
    132          
    133          extern endPointDesc_t ZDApp_epDesc;
    134          
    135          /*********************************************************************
    136           * EXTERNAL FUNCTIONS
    137           */
    138          
    139          /*********************************************************************
    140           * LOCAL FUNCTIONS
    141           */
    142          
    143          static afStatus_t fillAndSend( uint8 *transSeq, zAddrType_t *addr, cId_t clusterID, byte len );
    144          uint8 ZDO_SendMsgCBs( zdoIncomingMsg_t *inMsg );
    145          void zdpProcessAddrReq( zdoIncomingMsg_t *inMsg );
    146          
    147          /*********************************************************************
    148           * LOCAL VARIABLES
    149           */
    150          

   \                                 In  segment XDATA_Z, align 1, keep-with-next
    151          static uint8  ZDP_Buf[ ZDP_BUF_SZ ];
   \                     ZDP_Buf:
   \   000000                DS 80
   \   000050                REQUIRE __INIT_XDATA_Z

   \                                 In  segment XDATA_I, align 1, keep-with-next
    152          static uint8 *ZDP_TmpBuf = ZDP_Buf+1;
   \                     ZDP_TmpBuf:
   \   000000                DS 2
   \   000002                REQUIRE `?<Initializer for ZDP_TmpBuf>`
   \   000002                REQUIRE __INIT_XDATA_I

   \                                 In  segment XDATA_Z, align 1, keep-with-next
    153          static byte ZDP_TxOptions = AF_TX_OPTIONS_NONE;		// 0
   \                     ZDP_TxOptions:
   \   000000                DS 1
   \   000001                REQUIRE __INIT_XDATA_Z
    154          

   \                                 In  segment XDATA_Z, align 1, keep-with-next
    155          ZDO_MsgCB_t *zdoMsgCBs = (ZDO_MsgCB_t *)NULL;
   \                     zdoMsgCBs:
   \   000000                DS 2
   \   000002                REQUIRE __INIT_XDATA_Z
    156          
    157          /*********************************************************************
    158           * ZDO Message Processing table
    159           */
    160          
    161          typedef void (*pfnZDPMsgProcessor)( zdoIncomingMsg_t *inMsg );
    162          
    163          typedef struct
    164          {
    165            uint16                clusterID;
    166            pfnZDPMsgProcessor    pFn;
    167          } zdpMsgProcItem_t;
    168          
    169          // 下面数组列表分别列出了使用 ZDO_RegisterForZDOMsg(task_ID, task_rsq) 注册任务要响应的事件后，
    170          // 请求和响应的关系，一个请求对应一个处理函数指针

   \                                 In  segment CODE_C, align 1
    171          CONST zdpMsgProcItem_t zdpMsgProcs[] =
   \                     zdpMsgProcs:
   \   000000   0000         DW 0
   \   000002   ....         DW ??zdpProcessAddrReq?relay
   \   000004   1300         DW 19
   \   000006   ....         DW ??ZDO_ProcessDeviceAnnce?relay
   \   000008   0100         DW 1
   \   00000A   ....         DW ??zdpProcessAddrReq?relay
   \   00000C   0200         DW 2
   \   00000E   ....         DW ??ZDO_ProcessNodeDescReq?relay
   \   000010   0300         DW 3
   \   000012   ....         DW ??ZDO_ProcessPowerDescReq?relay
   \   000014   0400         DW 4
   \   000016   ....         DW ??ZDO_ProcessSimpleDescReq?relay
   \   000018   0500         DW 5
   \   00001A   ....         DW ??ZDO_ProcessActiveEPReq?relay
   \   00001C   0600         DW 6
   \   00001E   ....         DW ??ZDO_ProcessMatchDescReq?relay
   \   000020   FFFF         DW 65535
   \   000022   0000         DW 0H
    172          {
    173          #if ( RFD_RCVC_ALWAYS_ON==TRUE ) || ( ZG_BUILD_RTR_TYPE )
    174            // These aren't processed by sleeping end devices.
    175            { NWK_addr_req,           zdpProcessAddrReq },
    176            { Device_annce,           ZDO_ProcessDeviceAnnce },
    177          #endif
    178            { IEEE_addr_req,          zdpProcessAddrReq },
    179            { Node_Desc_req,          ZDO_ProcessNodeDescReq },
    180            { Power_Desc_req,         ZDO_ProcessPowerDescReq },
    181            { Simple_Desc_req,        ZDO_ProcessSimpleDescReq },
    182            { Active_EP_req,          ZDO_ProcessActiveEPReq },
    183            { Match_Desc_req,         ZDO_ProcessMatchDescReq },
    184          #if defined ( ZDO_MGMT_NWKDISC_RESPONSE )
    185            { Mgmt_NWK_Disc_req,      ZDO_ProcessMgmtNwkDiscReq },
    186          #endif
    187          #if defined ( ZDO_MGMT_LQI_RESPONSE ) && ( ZG_BUILD_RTR_TYPE )
    188            { Mgmt_Lqi_req,           ZDO_ProcessMgmtLqiReq },
    189          #endif
    190          #if defined ( ZDO_MGMT_RTG_RESPONSE ) && ( ZG_BUILD_RTR_TYPE )
    191            { Mgmt_Rtg_req,           ZDO_ProcessMgmtRtgReq },
    192          #endif
    193          #if defined ( ZDO_MGMT_BIND_RESPONSE ) && defined ( REFLECTOR )
    194            { Mgmt_Bind_req,          ZDO_ProcessMgmtBindReq },
    195          #endif
    196          #if defined ( ZDO_MGMT_JOINDIRECT_RESPONSE ) && ( ZG_BUILD_RTR_TYPE )
    197            { Mgmt_Direct_Join_req,   ZDO_ProcessMgmtDirectJoinReq },
    198          #endif
    199          #if defined ( ZDO_MGMT_LEAVE_RESPONSE )
    200            { Mgmt_Leave_req,         ZDO_ProcessMgmtLeaveReq },
    201          #endif
    202          #if defined ( ZDO_MGMT_PERMIT_JOIN_RESPONSE )  && ( ZG_BUILD_RTR_TYPE )
    203            { Mgmt_Permit_Join_req,   ZDO_ProcessMgmtPermitJoinReq },
    204          #endif
    205          #if defined ( ZDO_USERDESC_RESPONSE )
    206            { User_Desc_req,          ZDO_ProcessUserDescReq },
    207          #endif
    208          #if defined ( ZDO_USERDESCSET_RESPONSE )
    209            { User_Desc_set,          ZDO_ProcessUserDescSet },
    210          #endif
    211          #if defined ( ZDO_SERVERDISC_RESPONSE )
    212            { Server_Discovery_req,   ZDO_ProcessServerDiscReq },
    213          #endif
    214            {0xFFFF, NULL} // Last
    215          };
    216          
    217          /*********************************************************************
    218           * @fn          fillAndSend
    219           *
    220           * @brief       Combined to reduce space
    221           *
    222           * @param
    223           * @param
    224           *
    225           * @return      afStatus_t
    226           */

   \                                 In  segment BANKED_CODE, align 1, keep-with-next
    227          static afStatus_t fillAndSend( uint8 *transSeq, zAddrType_t *addr, cId_t clusterID, byte len )
   \                     fillAndSend:
    228          {
   \   000000   74F0         MOV     A,#-0x10
   \   000002   12....       LCALL   ?BANKED_ENTER_XDATA
   \   000005                ; Saved register size: 16
   \   000005                ; Auto size: 12
   \   000005   74F4         MOV     A,#-0xc
   \   000007   12....       LCALL   ?ALLOC_XSTACK8
   \   00000A   8A..         MOV     ?V0 + 2,R2
   \   00000C   8B..         MOV     ?V0 + 3,R3
   \   00000E   EC           MOV     A,R4
   \   00000F   FE           MOV     R6,A
   \   000010   ED           MOV     A,R5
   \   000011   FF           MOV     R7,A
   \   000012   89..         MOV     ?V0 + 6,R1
   \   000014   741C         MOV     A,#0x1c
   \   000016   12....       LCALL   ?XSTACK_DISP0_8
   \   000019   12....       LCALL   ??Subroutine112_0 & 0xFFFF
    229            afAddrType_t afAddr;
    230          
    231            osal_memset( &afAddr, 0, sizeof(afAddrType_t) );
   \                     ??CrossCallReturnLabel_198:
   \   00001C                ; Setup parameters for call to function osal_memset
   \   00001C   7C0C         MOV     R4,#0xc
   \   00001E   7D00         MOV     R5,#0x0
   \   000020   7900         MOV     R1,#0x0
   \   000022   85..82       MOV     DPL,?XSP + 0
   \   000025   85..83       MOV     DPH,?XSP + 1
   \   000028   AA82         MOV     R2,DPL
   \   00002A   AB83         MOV     R3,DPH
   \   00002C   12....       LCALL   ??osal_memset?relay
    232            ZADDR_TO_AFADDR( addr, afAddr );
   \   00002F   7409         MOV     A,#0x9
   \   000031   12....       LCALL   ?XSTACK_DISP0_8
   \   000034   E4           CLR     A
   \   000035   F0           MOVX    @DPTR,A
   \   000036   8E82         MOV     DPL,R6
   \   000038   8F83         MOV     DPH,R7
   \   00003A   A3           INC     DPTR
   \   00003B   A3           INC     DPTR
   \   00003C   A3           INC     DPTR
   \   00003D   A3           INC     DPTR
   \   00003E   A3           INC     DPTR
   \   00003F   A3           INC     DPTR
   \   000040   A3           INC     DPTR
   \   000041   A3           INC     DPTR
   \   000042   E0           MOVX    A,@DPTR
   \   000043   C0E0         PUSH    A
   \   000045   7408         MOV     A,#0x8
   \   000047   12....       LCALL   ?XSTACK_DISP0_8
   \   00004A   D0E0         POP     A
   \   00004C   F0           MOVX    @DPTR,A
   \   00004D   8E82         MOV     DPL,R6
   \   00004F   8F83         MOV     DPH,R7
   \   000051   12....       LCALL   ?Subroutine27 & 0xFFFF
   \                     ??CrossCallReturnLabel_25:
   \   000054   F0           MOVX    @DPTR,A
    233          
    234            *(ZDP_TmpBuf-1) = *transSeq;
   \   000055   90....       MOV     DPTR,#ZDP_TmpBuf
   \   000058   E0           MOVX    A,@DPTR
   \   000059   24FF         ADD     A,#-0x1
   \   00005B   F5..         MOV     ?V0 + 4,A
   \   00005D   A3           INC     DPTR
   \   00005E   E0           MOVX    A,@DPTR
   \   00005F   34FF         ADDC    A,#-0x1
   \   000061   F5..         MOV     ?V0 + 5,A
   \   000063   85..82       MOV     DPL,?V0 + 2
   \   000066   85..83       MOV     DPH,?V0 + 3
   \   000069   E0           MOVX    A,@DPTR
   \   00006A   85..82       MOV     DPL,?V0 + 4
   \   00006D   85..83       MOV     DPH,?V0 + 5
   \   000070   F0           MOVX    @DPTR,A
    235          
    236            return AF_DataRequest( &afAddr, &ZDApp_epDesc, clusterID,
    237                                     (uint16)(len+1), (uint8*)(ZDP_TmpBuf-1),
    238                                     transSeq, ZDP_TxOptions,  AF_DEFAULT_RADIUS );
   \   000071                ; Setup parameters for call to function AF_DataRequest
   \   000071   75..1E       MOV     ?V0 + 7,#0x1e
   \   000074   78..         MOV     R0,#?V0 + 7
   \   000076   12....       LCALL   ?PUSH_XSTACK_I_ONE
   \   000079   78..         MOV     R0,#?V0 + 2
   \   00007B   12....       LCALL   ?PUSH_XSTACK_I_TWO
   \   00007E   78..         MOV     R0,#?V0 + 4
   \   000080   12....       LCALL   ?PUSH_XSTACK_I_TWO
   \   000083   85....       MOV     ?V0 + 2,?V0 + 6
   \   000086   E5..         MOV     A,?V0 + 2
   \   000088   2401         ADD     A,#0x1
   \   00008A   F5..         MOV     ?V0 + 2,A
   \   00008C   E4           CLR     A
   \   00008D   3400         ADDC    A,#0x0
   \   00008F   F5..         MOV     ?V0 + 3,A
   \   000091   78..         MOV     R0,#?V0 + 2
   \   000093   12....       LCALL   ?PUSH_XSTACK_I_TWO
   \   000096   78..         MOV     R0,#?V0 + 0
   \   000098   12....       LCALL   ?PUSH_XSTACK_I_TWO
   \   00009B   90....       MOV     DPTR,#ZDP_TxOptions
   \   00009E   E0           MOVX    A,@DPTR
   \   00009F   F9           MOV     R1,A
   \   0000A0   7C..         MOV     R4,#ZDApp_epDesc & 0xff
   \   0000A2   7D..         MOV     R5,#(ZDApp_epDesc >> 8) & 0xff
   \   0000A4   7409         MOV     A,#0x9
   \   0000A6   12....       LCALL   ?XSTACK_DISP0_8
   \   0000A9   AA82         MOV     R2,DPL
   \   0000AB   AB83         MOV     R3,DPH
   \   0000AD   12....       LCALL   ??AF_DataRequest?relay
   \   0000B0   7409         MOV     A,#0x9
   \   0000B2   12....       LCALL   ?DEALLOC_XSTACK8
   \   0000B5   740C         MOV     A,#0xc
   \   0000B7                REQUIRE ?Subroutine0
   \   0000B7                ; // Fall through to label ?Subroutine0
    239          
    240          }

   \                                 In  segment BANKED_CODE, align 1, keep-with-next
   \                     ?Subroutine0:
   \   000000   12....       LCALL   ?DEALLOC_XSTACK8
   \   000003   7F08         MOV     R7,#0x8
   \   000005   02....       LJMP    ?BANKED_LEAVE_XDATA

   \                                 In  segment BANKED_CODE, align 1, keep-with-next
   \                     ?Subroutine27:
   \   000000   E0           MOVX    A,@DPTR
   \   000001   F8           MOV     R0,A
   \   000002   A3           INC     DPTR
   \   000003   E0           MOVX    A,@DPTR
   \   000004   F9           MOV     R1,A
   \   000005   85..82       MOV     DPL,?XSP + 0
   \   000008   85..83       MOV     DPH,?XSP + 1
   \   00000B   E8           MOV     A,R0
   \   00000C   F0           MOVX    @DPTR,A
   \   00000D   A3           INC     DPTR
   \   00000E   E9           MOV     A,R1
   \   00000F   22           RET

   \                                 In  segment BANKED_CODE, align 1, keep-with-next
   \                     ??Subroutine112_0:
   \   000000   E0           MOVX    A,@DPTR
   \   000001   F5..         MOV     ?V0 + 0,A
   \   000003   A3           INC     DPTR
   \   000004   E0           MOVX    A,@DPTR
   \   000005   F5..         MOV     ?V0 + 1,A
   \   000007   22           RET
    241          
    242          /*********************************************************************
    243           * @fn          ZDP_SendData
    244           *
    245           * @brief       This builds and send a request message that has
    246           *              NWKAddrOfInterest as its only parameter.
    247           *
    248           * @param       dstAddr - destination address
    249           * @param       cmd - clusterID
    250           * @param       dataLen - number of bytes of data
    251           * @param       data - pointer to the data
    252           * @param       SecurityEnable - Security Options
    253           *
    254           * @return      afStatus_t
    255           */

   \                                 In  segment BANKED_CODE, align 1, keep-with-next
    256          afStatus_t ZDP_SendData( uint8 *TransSeq, zAddrType_t *dstAddr, uint16 cmd,
   \                     ZDP_SendData:
    257                                  byte len, uint8 *buf, byte SecurityEnable )
    258          {
   \   000000   74F2         MOV     A,#-0xe
   \   000002   12....       LCALL   ?BANKED_ENTER_XDATA
   \   000005                ; Saved register size: 14
   \   000005                ; Auto size: 0
   \   000005   E9           MOV     A,R1
   \   000006   FE           MOV     R6,A
   \   000007   740E         MOV     A,#0xe
   \   000009   12....       LCALL   ?XSTACK_DISP0_8
   \   00000C   12....       LCALL   ??Subroutine107_0 & 0xFFFF
   \                     ??CrossCallReturnLabel_174:
   \   00000F   7410         MOV     A,#0x10
   \   000011   12....       LCALL   ?XSTACK_DISP0_8
   \   000014   12....       LCALL   ?Subroutine19 & 0xFFFF
   \                     ??CrossCallReturnLabel_10:
   \   000017   7412         MOV     A,#0x12
   \   000019   12....       LCALL   ?XSTACK_DISP0_8
   \   00001C   E0           MOVX    A,@DPTR
   \   00001D   F5..         MOV     ?V0 + 1,A
    259            uint8 *pBuf = ZDP_TmpBuf;
   \   00001F   12....       LCALL   ??Subroutine122_0 & 0xFFFF
    260            byte cnt = len;
   \                     ??CrossCallReturnLabel_282:
   \   000022   EE           MOV     A,R6
   \   000023   FF           MOV     R7,A
   \   000024   801F         SJMP    ??ZDP_SendData_0
    261          
    262            while ( cnt-- )
    263            {
    264              *pBuf++ = *buf++;
   \                     ??ZDP_SendData_1:
   \   000026   85..82       MOV     DPL,?V0 + 4
   \   000029   85..83       MOV     DPH,?V0 + 5
   \   00002C   12....       LCALL   ?Subroutine46 & 0xFFFF
    265            }
   \                     ??CrossCallReturnLabel_54:
   \   00002F   85..82       MOV     DPL,?V0 + 4
   \   000032   85..83       MOV     DPH,?V0 + 5
   \   000035   A3           INC     DPTR
   \   000036   8582..       MOV     ?V0 + 4,DPL
   \   000039   8583..       MOV     ?V0 + 5,DPH
   \   00003C   8882         MOV     DPL,R0
   \   00003E   8983         MOV     DPH,R1
   \   000040   A3           INC     DPTR
   \   000041   A882         MOV     R0,DPL
   \   000043   A983         MOV     R1,DPH
   \                     ??ZDP_SendData_0:
   \   000045   8F..         MOV     ?V0 + 0,R7
   \   000047   74FF         MOV     A,#-0x1
   \   000049   25..         ADD     A,?V0 + 0
   \   00004B   1F           DEC     R7
   \   00004C   04           INC     A
   \   00004D   70D7         JNZ     ??ZDP_SendData_1
    266          
    267            FillAndSendTxOptions( TransSeq, dstAddr, cmd, len,
    268                         (AF_DEFAULT_RADIUS | ((SecurityEnable) ? AF_EN_SECURITY : 0)) );
   \   00004F   E5..         MOV     A,?V0 + 1
   \   000051   6004         JZ      ??ZDP_SendData_2
   \   000053   7840         MOV     R0,#0x40
   \   000055   8002         SJMP    ??ZDP_SendData_3
   \                     ??ZDP_SendData_2:
   \   000057   7800         MOV     R0,#0x0
   \                     ??ZDP_SendData_3:
   \   000059   E8           MOV     A,R0
   \   00005A   441E         ORL     A,#0x1e
   \   00005C   90....       MOV     DPTR,#ZDP_TxOptions
   \   00005F   F0           MOVX    @DPTR,A
   \   000060                ; Setup parameters for call to function fillAndSend
   \   000060   78..         MOV     R0,#?V0 + 2
   \   000062   12....       LCALL   ?PUSH_XSTACK_I_TWO
   \   000065   EE           MOV     A,R6
   \   000066   F9           MOV     R1,A
   \   000067   12....       LCALL   ??Subroutine118_0 & 0xFFFF
   \                     ??CrossCallReturnLabel_233:
   \   00006A   12....       LCALL   ?DEALLOC_XSTACK8
   \   00006D   90....       MOV     DPTR,#ZDP_TxOptions
   \   000070   E4           CLR     A
   \   000071   F0           MOVX    @DPTR,A
   \   000072                REQUIRE ?Subroutine1
   \   000072                ; // Fall through to label ?Subroutine1
    269          }

   \                                 In  segment BANKED_CODE, align 1, keep-with-next
   \                     ?Subroutine1:
   \   000000   7F06         MOV     R7,#0x6
   \   000002   02....       LJMP    ?BANKED_LEAVE_XDATA

   \                                 In  segment BANKED_CODE, align 1, keep-with-next
   \                     ?Subroutine46:
   \   000000   E0           MOVX    A,@DPTR
   \   000001   8882         MOV     DPL,R0
   \   000003   8983         MOV     DPH,R1
   \   000005   F0           MOVX    @DPTR,A
   \   000006   22           RET

   \                                 In  segment BANKED_CODE, align 1, keep-with-next
   \                     ?Subroutine19:
   \   000000   E0           MOVX    A,@DPTR
   \   000001   F5..         MOV     ?V0 + 4,A
   \   000003   A3           INC     DPTR
   \   000004   E0           MOVX    A,@DPTR
   \   000005   F5..         MOV     ?V0 + 5,A
   \   000007   22           RET

   \                                 In  segment BANKED_CODE, align 1, keep-with-next
   \                     ??Subroutine107_0:
   \   000000   E0           MOVX    A,@DPTR
   \   000001   F5..         MOV     ?V0 + 2,A
   \   000003   A3           INC     DPTR
   \   000004   E0           MOVX    A,@DPTR
   \   000005   F5..         MOV     ?V0 + 3,A
   \   000007   22           RET

   \                                 In  segment BANKED_CODE, align 1, keep-with-next
   \                     ??Subroutine118_0:
   \   000000   12....       LCALL   ??fillAndSend?relay
   \   000003   7402         MOV     A,#0x2
   \   000005   22           RET

   \                                 In  segment BANKED_CODE, align 1, keep-with-next
   \                     ??Subroutine122_0:
   \   000000   90....       MOV     DPTR,#ZDP_TmpBuf
   \   000003                REQUIRE ??Subroutine123_0
   \   000003                ; // Fall through to label ??Subroutine123_0

   \                                 In  segment BANKED_CODE, align 1, keep-with-next
   \                     ??Subroutine123_0:
   \   000000   E0           MOVX    A,@DPTR
   \   000001   F8           MOV     R0,A
   \   000002   A3           INC     DPTR
   \   000003   E0           MOVX    A,@DPTR
   \   000004   F9           MOV     R1,A
   \   000005   22           RET
    270          
    271          /*********************************************************************
    272           * @fn          ZDP_NWKAddrOfInterestReq
    273           *
    274           * @brief       This builds and send a request message that has
    275           *              NWKAddrOfInterest as its only parameter.
    276           *
    277           * @param       dstAddr - destination address
    278           * @param       nwkAddr - 16 bit address
    279           * @param       SecurityEnable - Security Options
    280           *
    281           * @return      afStatus_t
    282           */

   \                                 In  segment BANKED_CODE, align 1, keep-with-next
    283          afStatus_t ZDP_NWKAddrOfInterestReq( zAddrType_t *dstAddr, uint16 nwkAddr,
   \                     ZDP_NWKAddrOfInterestReq:
    284                                               byte cmd, byte SecurityEnable )
    285          {
   \   000000   74F6         MOV     A,#-0xa
   \   000002   12....       LCALL   ?BANKED_ENTER_XDATA
   \   000005                ; Saved register size: 10
   \   000005                ; Auto size: 0
   \   000005   E9           MOV     A,R1
   \   000006   FE           MOV     R6,A
    286            (void)SecurityEnable;  // Intentionally unreferenced parameter
    287          
    288            ZDP_TmpBuf[0] = LO_UINT16( nwkAddr );
   \   000007   12....       LCALL   ?Subroutine16 & 0xFFFF
    289            ZDP_TmpBuf[1] = HI_UINT16( nwkAddr );
    290          
    291            return fillAndSend( &ZDP_TransID, dstAddr, cmd, 2 );
   \                     ??CrossCallReturnLabel_6:
   \   00000A                ; Setup parameters for call to function fillAndSend
   \   00000A   8E..         MOV     ?V0 + 0,R6
   \   00000C   02....       LJMP    ?Subroutine2 & 0xFFFF
    292          }

   \                                 In  segment BANKED_CODE, align 1, keep-with-next
   \                     ?Subroutine2:
   \   000000   75..00       MOV     ?V0 + 1,#0x0
   \   000003   78..         MOV     R0,#?V0 + 0
   \   000005   12....       LCALL   ?PUSH_XSTACK_I_TWO
   \   000008   7902         MOV     R1,#0x2
   \   00000A                REQUIRE ??Subroutine90_0
   \   00000A                ; // Fall through to label ??Subroutine90_0

   \                                 In  segment BANKED_CODE, align 1, keep-with-next
   \                     ??Subroutine90_0:
   \   000000   EA           MOV     A,R2
   \   000001   FC           MOV     R4,A
   \   000002   EB           MOV     A,R3
   \   000003   FD           MOV     R5,A
   \   000004   7A..         MOV     R2,#ZDP_TransID & 0xff
   \   000006   7B..         MOV     R3,#(ZDP_TransID >> 8) & 0xff
   \   000008                REQUIRE ??Subroutine91_0
   \   000008                ; // Fall through to label ??Subroutine91_0

   \                                 In  segment BANKED_CODE, align 1, keep-with-next
   \                     ??Subroutine91_0:
   \   000000   12....       LCALL   ??Subroutine118_0 & 0xFFFF
   \                     ??CrossCallReturnLabel_234:
   \   000003                REQUIRE ??Subroutine92_0
   \   000003                ; // Fall through to label ??Subroutine92_0

   \                                 In  segment BANKED_CODE, align 1, keep-with-next
   \                     ??Subroutine92_0:
   \   000000   12....       LCALL   ?DEALLOC_XSTACK8
   \   000003   7F02         MOV     R7,#0x2
   \   000005   02....       LJMP    ?BANKED_LEAVE_XDATA

   \                                 In  segment BANKED_CODE, align 1, keep-with-next
   \                     ?Subroutine16:
   \   000000   90....       MOV     DPTR,#ZDP_TmpBuf
   \   000003   12....       LCALL   ?Subroutine83 & 0xFFFF
   \                     ??CrossCallReturnLabel_149:
   \   000006   EC           MOV     A,R4
   \   000007   F0           MOVX    @DPTR,A
   \   000008   12....       LCALL   ?Subroutine81 & 0xFFFF
   \                     ??CrossCallReturnLabel_125:
   \   00000B   ED           MOV     A,R5
   \   00000C   F0           MOVX    @DPTR,A
   \   00000D   22           RET

   \                                 In  segment BANKED_CODE, align 1, keep-with-next
   \                     ?Subroutine81:
   \   000000   90....       MOV     DPTR,#ZDP_TmpBuf
   \   000003   12....       LCALL   ?Subroutine87 & 0xFFFF
   \                     ??CrossCallReturnLabel_151:
   \   000006   A3           INC     DPTR
   \   000007   22           RET

   \                                 In  segment BANKED_CODE, align 1, keep-with-next
   \                     ?Subroutine83:
   \   000000   12....       LCALL   ?Subroutine87 & 0xFFFF
   \                     ??CrossCallReturnLabel_152:
   \   000003   22           RET

   \                                 In  segment BANKED_CODE, align 1, keep-with-next
   \                     ?Subroutine87:
   \   000000   E0           MOVX    A,@DPTR
   \   000001   F8           MOV     R0,A
   \   000002   A3           INC     DPTR
   \   000003   E0           MOVX    A,@DPTR
   \   000004   F583         MOV     DPH,A
   \   000006   8882         MOV     DPL,R0
   \   000008   22           RET
    293          
    294          /*********************************************************************
    295           * Address Requests
    296           */
    297          
    298          /*********************************************************************
    299           * @fn          ZDP_NwkAddrReq
    300           *
    301           * @brief       This builds and send a NWK_addr_req message.  This
    302           *              function sends a broadcast message looking for a 16
    303           *              bit address with a 64 bit address as bait.
    304           *
    305           * @param       IEEEAddress - looking for this device
    306           * @param       SecurityEnable - Security Options
    307           *
    308           * @return      afStatus_t
    309           */

   \                                 In  segment BANKED_CODE, align 1, keep-with-next
    310          afStatus_t ZDP_NwkAddrReq( uint8 *IEEEAddress, byte ReqType,
   \                     ZDP_NwkAddrReq:
    311                                     byte StartIndex, byte SecurityEnable )
    312          {
   \   000000   74F2         MOV     A,#-0xe
   \   000002   12....       LCALL   ?BANKED_ENTER_XDATA
   \   000005                ; Saved register size: 14
   \   000005                ; Auto size: 9
   \   000005   74F7         MOV     A,#-0x9
   \   000007   12....       LCALL   ?ALLOC_XSTACK8
   \   00000A   EA           MOV     A,R2
   \   00000B   FE           MOV     R6,A
   \   00000C   EB           MOV     A,R3
   \   00000D   FF           MOV     R7,A
   \   00000E   89..         MOV     ?V0 + 2,R1
   \   000010   8C..         MOV     ?V0 + 3,R4
    313            uint8 *pBuf = ZDP_TmpBuf;
   \   000012   12....       LCALL   ?Subroutine10 & 0xFFFF
    314            byte len = Z_EXTADDR_LEN + 1 + 1;  // IEEEAddress + ReqType + StartIndex.
    315            zAddrType_t dstAddr;
    316          
    317            (void)SecurityEnable;  // Intentionally unreferenced parameter
    318          
    319            if ( osal_ExtAddrEqual( saveExtAddr, IEEEAddress ) == FALSE )
   \                     ??CrossCallReturnLabel_207:
   \   000015                ; Setup parameters for call to function sAddrExtCmp
   \   000015   EE           MOV     A,R6
   \   000016   FC           MOV     R4,A
   \   000017   EF           MOV     A,R7
   \   000018   FD           MOV     R5,A
   \   000019   7A..         MOV     R2,#saveExtAddr & 0xff
   \   00001B   7B..         MOV     R3,#(saveExtAddr >> 8) & 0xff
   \   00001D   12....       LCALL   ??sAddrExtCmp?relay
   \   000020   E9           MOV     A,R1
   \   000021   7012         JNZ     ??ZDP_NwkAddrReq_0
    320            {
    321              dstAddr.addrMode = AddrBroadcast;
   \   000023   7408         MOV     A,#0x8
   \   000025   12....       LCALL   ?XSTACK_DISP0_8
   \   000028   740F         MOV     A,#0xf
   \   00002A   12....       LCALL   ?Subroutine57 & 0xFFFF
    322              dstAddr.addr.shortAddr = NWK_BROADCAST_SHORTADDR_DEVRXON;
    323            }
   \                     ??CrossCallReturnLabel_77:
   \   00002D   74FD         MOV     A,#-0x3
   \   00002F   F0           MOVX    @DPTR,A
   \   000030   A3           INC     DPTR
   \   000031   74FF         MOV     A,#-0x1
   \   000033   800E         SJMP    ??CrossCallReturnLabel_26
    324            else
    325            {
    326              dstAddr.addrMode = Addr16Bit;
   \                     ??ZDP_NwkAddrReq_0:
   \   000035   7408         MOV     A,#0x8
   \   000037   12....       LCALL   ?XSTACK_DISP0_8
   \   00003A   7402         MOV     A,#0x2
   \   00003C   F0           MOVX    @DPTR,A
    327              dstAddr.addr.shortAddr = ZDAppNwkAddr.addr.shortAddr;
   \   00003D   90....       MOV     DPTR,#ZDAppNwkAddr
   \   000040   12....       LCALL   ?Subroutine27 & 0xFFFF
    328            }
   \                     ??CrossCallReturnLabel_26:
   \   000043   F0           MOVX    @DPTR,A
    329          
    330            pBuf = osal_cpyExtAddr( pBuf, IEEEAddress );
   \   000044                ; Setup parameters for call to function sAddrExtCpy
   \   000044   EE           MOV     A,R6
   \   000045   FC           MOV     R4,A
   \   000046   EF           MOV     A,R7
   \   000047   FD           MOV     R5,A
   \   000048   AA..         MOV     R2,?V0 + 0
   \   00004A   AB..         MOV     R3,?V0 + 1
   \   00004C   12....       LCALL   ?Subroutine73 & 0xFFFF
    331          
    332            *pBuf++ = ReqType;
   \                     ??CrossCallReturnLabel_100:
   \   00004F   E5..         MOV     A,?V0 + 2
   \   000051   F0           MOVX    @DPTR,A
   \   000052   A3           INC     DPTR
    333            *pBuf++ = StartIndex;
   \   000053   E5..         MOV     A,?V0 + 3
   \   000055   F0           MOVX    @DPTR,A
    334          
    335            return fillAndSend( &ZDP_TransID, &dstAddr, NWK_addr_req, len );
   \   000056                ; Setup parameters for call to function fillAndSend
   \   000056   E4           CLR     A
   \   000057   F5..         MOV     ?V0 + 0,A
   \   000059   F5..         MOV     ?V0 + 1,A
   \   00005B   78..         MOV     R0,#?V0 + 0
   \   00005D   12....       LCALL   ?PUSH_XSTACK_I_TWO
   \   000060   790A         MOV     R1,#0xa
   \   000062   7402         MOV     A,#0x2
   \   000064   12....       LCALL   ?XSTACK_DISP0_8
   \   000067   12....       LCALL   ?Subroutine65 & 0xFFFF
   \                     ??CrossCallReturnLabel_223:
   \   00006A   12....       LCALL   ?DEALLOC_XSTACK8
   \   00006D   7409         MOV     A,#0x9
   \   00006F   12....       LCALL   ?DEALLOC_XSTACK8
   \   000072   02....       LJMP    ?Subroutine1 & 0xFFFF
    336          }

   \                                 In  segment BANKED_CODE, align 1, keep-with-next
   \                     ?Subroutine57:
   \   000000   F0           MOVX    @DPTR,A
   \   000001                ; Setup parameters for call to function ZDO_SendMsgCBs
   \   000001   85..82       MOV     DPL,?XSP + 0
   \   000004   85..83       MOV     DPH,?XSP + 1
   \   000007   22           RET

   \                                 In  segment BANKED_CODE, align 1, keep-with-next
   \                     ?Subroutine73:
   \   000000   12....       LCALL   ??sAddrExtCpy?relay
   \   000003   8A82         MOV     DPL,R2
   \   000005   8B83         MOV     DPH,R3
   \   000007   22           RET

   \                                 In  segment BANKED_CODE, align 1, keep-with-next
   \                     ?Subroutine10:
   \   000000   90....       MOV     DPTR,#ZDP_TmpBuf
   \   000003                REQUIRE ??Subroutine112_0
   \   000003                ; // Fall through to label ??Subroutine112_0

   \                                 In  segment BANKED_CODE, align 1, keep-with-next
   \                     ?Subroutine65:
   \   000000   AC82         MOV     R4,DPL
   \   000002   AD83         MOV     R5,DPH
   \   000004                REQUIRE ??Subroutine117_0
   \   000004                ; // Fall through to label ??Subroutine117_0

   \                                 In  segment BANKED_CODE, align 1, keep-with-next
   \                     ??Subroutine117_0:
   \   000000   7A..         MOV     R2,#ZDP_TransID & 0xff
   \   000002   7B..         MOV     R3,#(ZDP_TransID >> 8) & 0xff
   \   000004                REQUIRE ??Subroutine118_0
   \   000004                ; // Fall through to label ??Subroutine118_0
    337          
    338          /*********************************************************************
    339           * @fn          ZDP_IEEEAddrReq
    340           *
    341           * @brief       This builds and send a IEEE_addr_req message.  This
    342           *              function sends a unicast message looking for a 64
    343           *              bit IEEE address with a 16 bit address as bait.
    344           *
    345           * @param       ReqType - ZDP_IEEEADDR_REQTYPE_SINGLE or
    346           *                        ZDP_IEEEADDR_REQTYPE_EXTENDED
    347           * @param       SecurityEnable - Security Options
    348           *
    349           * @return      afStatus_t
    350           */

   \                                 In  segment BANKED_CODE, align 1, keep-with-next
    351          afStatus_t ZDP_IEEEAddrReq( uint16 shortAddr, byte ReqType,
   \                     ZDP_IEEEAddrReq:
    352                                      byte StartIndex, byte SecurityEnable )
    353          {
   \   000000   74F6         MOV     A,#-0xa
   \   000002   12....       LCALL   ?BANKED_ENTER_XDATA
   \   000005                ; Saved register size: 10
   \   000005                ; Auto size: 9
   \   000005   74F7         MOV     A,#-0x9
   \   000007   12....       LCALL   ?ALLOC_XSTACK8
   \   00000A   E9           MOV     A,R1
   \   00000B   FE           MOV     R6,A
   \   00000C   EC           MOV     A,R4
   \   00000D   FF           MOV     R7,A
    354            uint8 *pBuf = ZDP_TmpBuf;
   \   00000E   12....       LCALL   ??Subroutine122_0 & 0xFFFF
    355            byte len = 2 + 1 + 1;  // shortAddr + ReqType + StartIndex.
    356            zAddrType_t dstAddr;
    357          
    358            (void)SecurityEnable;  // Intentionally unreferenced parameter
    359          
    360            dstAddr.addrMode = (afAddrMode_t)Addr16Bit;
   \                     ??CrossCallReturnLabel_283:
   \   000011   7408         MOV     A,#0x8
   \   000013   12....       LCALL   ?XSTACK_DISP0_8
   \   000016   7402         MOV     A,#0x2
   \   000018   12....       LCALL   ?Subroutine57 & 0xFFFF
    361            dstAddr.addr.shortAddr = shortAddr;
   \                     ??CrossCallReturnLabel_78:
   \   00001B   EA           MOV     A,R2
   \   00001C   12....       LCALL   ??Subroutine119_0 & 0xFFFF
    362          
    363            *pBuf++ = LO_UINT16( shortAddr );
   \                     ??CrossCallReturnLabel_249:
   \   00001F   12....       LCALL   ?Subroutine63 & 0xFFFF
    364            *pBuf++ = HI_UINT16( shortAddr );
   \                     ??CrossCallReturnLabel_247:
   \   000022   A3           INC     DPTR
    365          
    366            *pBuf++ = ReqType;
   \   000023   EE           MOV     A,R6
   \   000024   F0           MOVX    @DPTR,A
   \   000025   A3           INC     DPTR
    367            *pBuf++ = StartIndex;
   \   000026   EF           MOV     A,R7
   \   000027   F0           MOVX    @DPTR,A
    368          
    369            return fillAndSend( &ZDP_TransID, &dstAddr, IEEE_addr_req, len );
   \   000028                ; Setup parameters for call to function fillAndSend
   \   000028   75..01       MOV     ?V0 + 0,#0x1
   \   00002B   75..00       MOV     ?V0 + 1,#0x0
   \   00002E   78..         MOV     R0,#?V0 + 0
   \   000030   12....       LCALL   ?PUSH_XSTACK_I_TWO
   \   000033   7904         MOV     R1,#0x4
   \   000035                REQUIRE ?Subroutine8
   \   000035                ; // Fall through to label ?Subroutine8
    370          }

   \                                 In  segment BANKED_CODE, align 1, keep-with-next
   \                     ?Subroutine8:
   \   000000   7402         MOV     A,#0x2
   \   000002   12....       LCALL   ?XSTACK_DISP0_8
   \   000005   12....       LCALL   ?Subroutine65 & 0xFFFF
   \                     ??CrossCallReturnLabel_224:
   \   000008   12....       LCALL   ?DEALLOC_XSTACK8
   \   00000B                REQUIRE ??Subroutine89_0
   \   00000B                ; // Fall through to label ??Subroutine89_0

   \                                 In  segment BANKED_CODE, align 1, keep-with-next
   \                     ??Subroutine89_0:
   \   000000   7409         MOV     A,#0x9
   \   000002   80..         SJMP    ??Subroutine92_0

   \                                 In  segment BANKED_CODE, align 1, keep-with-next
   \                     ?Subroutine63:
   \   000000   EA           MOV     A,R2
   \   000001   8882         MOV     DPL,R0
   \   000003   8983         MOV     DPH,R1
   \   000005                REQUIRE ??Subroutine119_0
   \   000005                ; // Fall through to label ??Subroutine119_0

   \                                 In  segment BANKED_CODE, align 1, keep-with-next
   \                     ??Subroutine119_0:
   \   000000   F0           MOVX    @DPTR,A
   \   000001   A3           INC     DPTR
   \   000002   EB           MOV     A,R3
   \   000003   F0           MOVX    @DPTR,A
   \   000004   22           RET
    371          
    372          /*********************************************************************
    373           * @fn          ZDP_MatchDescReq
    374           *
    375           * @brief       This builds and send a Match_Desc_req message.  This
    376           *              function sends a broadcast or unicast message
    377           *              requesting the list of endpoint/interfaces that
    378           *              match profile ID and cluster IDs.
    379           *
    380           * @param       dstAddr - destination address
    381           * @param       nwkAddr - network address of interest
    382           * @param       ProfileID - Profile ID
    383           * @param       NumInClusters - number of input clusters
    384           * @param       InClusterList - input cluster ID list
    385           * @param       NumOutClusters - number of output clusters
    386           * @param       OutClusterList - output cluster ID list
    387           * @param       SecurityEnable - Security Options
    388           *
    389           * @return      afStatus_t
    390           */

   \                                 In  segment BANKED_CODE, align 1, keep-with-next
    391          afStatus_t ZDP_MatchDescReq( zAddrType_t *dstAddr, uint16 nwkAddr,
   \                     ZDP_MatchDescReq:
    392                                          uint16 ProfileID,
    393                                          byte NumInClusters, cId_t *InClusterList,
    394                                          byte NumOutClusters, cId_t *OutClusterList,
    395                                          byte SecurityEnable )
    396          {
   \   000000   74EE         MOV     A,#-0x12
   \   000002   12....       LCALL   ?BANKED_ENTER_XDATA
   \   000005                ; Saved register size: 18
   \   000005                ; Auto size: 0
   \   000005   E9           MOV     A,R1
   \   000006   FE           MOV     R6,A
   \   000007   7412         MOV     A,#0x12
   \   000009   12....       LCALL   ?XSTACK_DISP0_8
   \   00000C   12....       LCALL   ??Subroutine112_0 & 0xFFFF
   \                     ??CrossCallReturnLabel_199:
   \   00000F   7414         MOV     A,#0x14
   \   000011   12....       LCALL   ?XSTACK_DISP0_8
   \   000014   12....       LCALL   ??Subroutine123_0 & 0xFFFF
   \                     ??CrossCallReturnLabel_270:
   \   000017   88..         MOV     ?V0 + 2,R0
   \   000019   89..         MOV     ?V0 + 3,R1
   \   00001B   7416         MOV     A,#0x16
   \   00001D   12....       LCALL   ?XSTACK_DISP0_8
   \   000020   E0           MOVX    A,@DPTR
   \   000021   FF           MOV     R7,A
   \   000022   7417         MOV     A,#0x17
   \   000024   12....       LCALL   ?XSTACK_DISP0_8
   \   000027   12....       LCALL   ??Subroutine123_0 & 0xFFFF
   \                     ??CrossCallReturnLabel_271:
   \   00002A   88..         MOV     ?V0 + 6,R0
   \   00002C   89..         MOV     ?V0 + 7,R1
    397            uint8 *pBuf = ZDP_TmpBuf;
   \   00002E   12....       LCALL   ??Subroutine122_0 & 0xFFFF
    398            // nwkAddr+ProfileID+NumInClusters+NumOutClusters.
    399            byte i, len = 2 + 2 + 1 + 1;  // nwkAddr+ProfileID+NumInClusters+NumOutClusters.
    400          
    401            (void)SecurityEnable;  // Intentionally unreferenced parameter
    402          
    403            len += (NumInClusters + NumOutClusters) * sizeof(uint16);
   \                     ??CrossCallReturnLabel_284:
   \   000031   EE           MOV     A,R6
   \   000032   2F           ADD     A,R7
   \   000033   C3           CLR     C
   \   000034   33           RLC     A
   \   000035   2406         ADD     A,#0x6
   \   000037   F5..         MOV     ?V0 + 4,A
    404          
    405            if ( len >= ZDP_BUF_SZ-1 )
   \   000039   C3           CLR     C
   \   00003A   944F         SUBB    A,#0x4f
   \   00003C   4005         JC      ??ZDP_MatchDescReq_0
    406            {
    407              return afStatus_MEM_FAIL;
   \   00003E   7910         MOV     R1,#0x10
   \   000040   02....       LJMP    ??ZDP_MatchDescReq_1 & 0xFFFF
    408            }
    409          
    410            // The spec changed in Zigbee 2007 (2.4.3.1.7.1) to not allow sending
    411            // this command to 0xFFFF.  So, here we will filter this and replace 
    412            // with 0xFFFD to only send to devices with RX ON.  This includes the 
    413            // network address of interest.
    414            if ( ((dstAddr->addrMode == AddrBroadcast) || (dstAddr->addrMode == Addr16Bit))
    415                && (dstAddr->addr.shortAddr == NWK_BROADCAST_SHORTADDR_DEVALL) )
   \                     ??ZDP_MatchDescReq_0:
   \   000043   8A82         MOV     DPL,R2
   \   000045   8B83         MOV     DPH,R3
   \   000047   A3           INC     DPTR
   \   000048   A3           INC     DPTR
   \   000049   A3           INC     DPTR
   \   00004A   A3           INC     DPTR
   \   00004B   A3           INC     DPTR
   \   00004C   A3           INC     DPTR
   \   00004D   A3           INC     DPTR
   \   00004E   A3           INC     DPTR
   \   00004F   E0           MOVX    A,@DPTR
   \   000050   F5..         MOV     ?V0 + 5,A
   \   000052   740F         MOV     A,#0xf
   \   000054   65..         XRL     A,?V0 + 5
   \   000056   6006         JZ      ??ZDP_MatchDescReq_2
   \   000058   7402         MOV     A,#0x2
   \   00005A   65..         XRL     A,?V0 + 5
   \   00005C   7018         JNZ     ??ZDP_MatchDescReq_3
   \                     ??ZDP_MatchDescReq_2:
   \   00005E   8A82         MOV     DPL,R2
   \   000060   8B83         MOV     DPH,R3
   \   000062   E0           MOVX    A,@DPTR
   \   000063   F4           CPL     A
   \   000064   7003         JNZ     ??ZDP_MatchDescReq_4
   \   000066   A3           INC     DPTR
   \   000067   E0           MOVX    A,@DPTR
   \   000068   F4           CPL     A
   \                     ??ZDP_MatchDescReq_4:
   \   000069   700B         JNZ     ??ZDP_MatchDescReq_3
    416            {
    417              dstAddr->addr.shortAddr = NWK_BROADCAST_SHORTADDR_DEVRXON;	// 0xFFFD
   \   00006B   8A82         MOV     DPL,R2
   \   00006D   8B83         MOV     DPH,R3
   \   00006F   74FD         MOV     A,#-0x3
   \   000071   F0           MOVX    @DPTR,A
   \   000072   A3           INC     DPTR
   \   000073   74FF         MOV     A,#-0x1
   \   000075   F0           MOVX    @DPTR,A
    418            }
    419            if ( nwkAddr == NWK_BROADCAST_SHORTADDR_DEVALL )
   \                     ??ZDP_MatchDescReq_3:
   \   000076   74FF         MOV     A,#-0x1
   \   000078   6C           XRL     A,R4
   \   000079   7003         JNZ     ??ZDP_MatchDescReq_5
   \   00007B   74FF         MOV     A,#-0x1
   \   00007D   6D           XRL     A,R5
   \                     ??ZDP_MatchDescReq_5:
   \   00007E   7004         JNZ     ??ZDP_MatchDescReq_6
    420            {
    421              nwkAddr = NWK_BROADCAST_SHORTADDR_DEVRXON;
   \   000080   7CFD         MOV     R4,#-0x3
   \   000082   7DFF         MOV     R5,#-0x1
    422            }
    423            
    424            *pBuf++ = LO_UINT16( nwkAddr );   // NWKAddrOfInterest
   \                     ??ZDP_MatchDescReq_6:
   \   000084   EC           MOV     A,R4
   \   000085   8882         MOV     DPL,R0
   \   000087   8983         MOV     DPH,R1
   \   000089   12....       LCALL   ?Subroutine55 & 0xFFFF
    425            *pBuf++ = HI_UINT16( nwkAddr );
    426          
    427            *pBuf++ = LO_UINT16( ProfileID );   // Profile ID
    428            *pBuf++ = HI_UINT16( ProfileID );
   \                     ??CrossCallReturnLabel_118:
   \   00008C   E5..         MOV     A,?V0 + 1
   \   00008E   F0           MOVX    @DPTR,A
   \   00008F   A3           INC     DPTR
    429          
    430            *pBuf++ = NumInClusters; // Input cluster list
   \   000090   EE           MOV     A,R6
   \   000091   12....       LCALL   ??Subroutine103_0 & 0xFFFF
    431            if ( NumInClusters )
   \                     ??CrossCallReturnLabel_153:
   \   000094   6017         JZ      ??ZDP_MatchDescReq_7
    432            {
    433              for (i=0; i<NumInClusters; ++i)  {
   \   000096   75..00       MOV     ?V0 + 0,#0x0
    434                *pBuf++ = LO_UINT16( InClusterList[i] );
   \                     ??ZDP_MatchDescReq_8:
   \   000099   E5..         MOV     A,?V0 + 0
   \   00009B   C3           CLR     C
   \   00009C   33           RLC     A
   \   00009D   FC           MOV     R4,A
   \   00009E   E4           CLR     A
   \   00009F   33           RLC     A
   \   0000A0   FD           MOV     R5,A
   \   0000A1   E5..         MOV     A,?V0 + 2
   \   0000A3   2C           ADD     A,R4
   \   0000A4   FC           MOV     R4,A
   \   0000A5   E5..         MOV     A,?V0 + 3
   \   0000A7   12....       LCALL   ?Subroutine11 & 0xFFFF
    435                *pBuf++ = HI_UINT16( InClusterList[i] );
    436              }
    437            }
   \                     ??CrossCallReturnLabel_0:
   \   0000AA   9E           SUBB    A,R6
   \   0000AB   40EC         JC      ??ZDP_MatchDescReq_8
    438          
    439            *pBuf++ = NumOutClusters; // Output cluster list
   \                     ??ZDP_MatchDescReq_7:
   \   0000AD   EF           MOV     A,R7
   \   0000AE   12....       LCALL   ?Subroutine50 & 0xFFFF
    440            if ( NumOutClusters )
   \                     ??CrossCallReturnLabel_157:
   \   0000B1   6017         JZ      ??ZDP_MatchDescReq_9
    441            {
    442              for (i=0; i<NumOutClusters; ++i)  {
   \   0000B3   75..00       MOV     ?V0 + 0,#0x0
    443                *pBuf++ = LO_UINT16( OutClusterList[i] );
   \                     ??ZDP_MatchDescReq_10:
   \   0000B6   E5..         MOV     A,?V0 + 0
   \   0000B8   C3           CLR     C
   \   0000B9   33           RLC     A
   \   0000BA   FC           MOV     R4,A
   \   0000BB   E4           CLR     A
   \   0000BC   33           RLC     A
   \   0000BD   FD           MOV     R5,A
   \   0000BE   E5..         MOV     A,?V0 + 6
   \   0000C0   2C           ADD     A,R4
   \   0000C1   FC           MOV     R4,A
   \   0000C2   E5..         MOV     A,?V0 + 7
   \   0000C4   12....       LCALL   ?Subroutine11 & 0xFFFF
    444                *pBuf++ = HI_UINT16( OutClusterList[i] );
    445              }
    446            }
   \                     ??CrossCallReturnLabel_1:
   \   0000C7   9F           SUBB    A,R7
   \   0000C8   40EC         JC      ??ZDP_MatchDescReq_10
    447          
    448            return fillAndSend( &ZDP_TransID, dstAddr, Match_Desc_req, len );
   \                     ??ZDP_MatchDescReq_9:
   \   0000CA                ; Setup parameters for call to function fillAndSend
   \   0000CA   75..06       MOV     ?V0 + 0,#0x6
   \   0000CD   75..00       MOV     ?V0 + 1,#0x0
   \   0000D0   78..         MOV     R0,#?V0 + 0
   \   0000D2   12....       LCALL   ?PUSH_XSTACK_I_TWO
   \   0000D5   A9..         MOV     R1,?V0 + 4
   \   0000D7   EA           MOV     A,R2
   \   0000D8   FC           MOV     R4,A
   \   0000D9   EB           MOV     A,R3
   \   0000DA   FD           MOV     R5,A
   \   0000DB   12....       LCALL   ??Subroutine117_0 & 0xFFFF
   \                     ??CrossCallReturnLabel_226:
   \   0000DE   12....       LCALL   ?DEALLOC_XSTACK8
   \                     ??ZDP_MatchDescReq_1:
   \   0000E1   02....       LJMP    ??Subroutine102_0 & 0xFFFF
    449          }

   \                                 In  segment BANKED_CODE, align 1, keep-with-next
   \                     ?Subroutine55:
   \   000000   F0           MOVX    @DPTR,A
   \   000001   A3           INC     DPTR
   \   000002   ED           MOV     A,R5
   \   000003                REQUIRE ??Subroutine93_0
   \   000003                ; // Fall through to label ??Subroutine93_0

   \                                 In  segment BANKED_CODE, align 1, keep-with-next
   \                     ??Subroutine93_0:
   \   000000   F0           MOVX    @DPTR,A
   \   000001   A3           INC     DPTR
   \   000002   E5..         MOV     A,?V0 + 0
   \   000004   F0           MOVX    @DPTR,A
   \   000005   A3           INC     DPTR
   \   000006   22           RET

   \                                 In  segment BANKED_CODE, align 1, keep-with-next
   \                     ?Subroutine11:
   \   000000   3D           ADDC    A,R5
   \   000001   FD           MOV     R5,A
   \   000002   8C82         MOV     DPL,R4
   \   000004   8D83         MOV     DPH,R5
   \   000006   12....       LCALL   ?Subroutine76 & 0xFFFF
   \                     ??CrossCallReturnLabel_159:
   \   000009   12....       LCALL   ?Subroutine78 & 0xFFFF
   \                     ??CrossCallReturnLabel_221:
   \   00000C   05..         INC     ?V0 + 0
   \   00000E   E5..         MOV     A,?V0 + 0
   \   000010   C3           CLR     C
   \   000011   22           RET

   \                                 In  segment BANKED_CODE, align 1, keep-with-next
   \                     ?Subroutine76:
   \   000000   E0           MOVX    A,@DPTR
   \   000001   8882         MOV     DPL,R0
   \   000003   8983         MOV     DPH,R1
   \   000005                REQUIRE ??Subroutine99_0
   \   000005                ; // Fall through to label ??Subroutine99_0

   \                                 In  segment BANKED_CODE, align 1, keep-with-next
   \                     ??Subroutine99_0:
   \   000000   F0           MOVX    @DPTR,A
   \   000001   A3           INC     DPTR
   \   000002   A882         MOV     R0,DPL
   \   000004   A983         MOV     R1,DPH
   \   000006   22           RET

   \                                 In  segment BANKED_CODE, align 1, keep-with-next
   \                     ??Subroutine102_0:
   \   000000   7F0A         MOV     R7,#0xa
   \   000002   02....       LJMP    ?BANKED_LEAVE_XDATA

   \                                 In  segment BANKED_CODE, align 1, keep-with-next
   \                     ?Subroutine50:
   \   000000   8882         MOV     DPL,R0
   \   000002   8983         MOV     DPH,R1
   \   000004                REQUIRE ??Subroutine103_0
   \   000004                ; // Fall through to label ??Subroutine103_0

   \                                 In  segment BANKED_CODE, align 1, keep-with-next
   \                     ??Subroutine103_0:
   \   000000   12....       LCALL   ??Subroutine99_0 & 0xFFFF
   \                     ??CrossCallReturnLabel_162:
   \   000003   22           RET

   \                                 In  segment BANKED_CODE, align 1, keep-with-next
   \                     ?Subroutine78:
   \   000000   8C82         MOV     DPL,R4
   \   000002   8D83         MOV     DPH,R5
   \   000004                REQUIRE ??Subroutine114_0
   \   000004                ; // Fall through to label ??Subroutine114_0

   \                                 In  segment BANKED_CODE, align 1, keep-with-next
   \                     ??Subroutine114_0:
   \   000000   A3           INC     DPTR
   \   000001                REQUIRE ??Subroutine115_0
   \   000001                ; // Fall through to label ??Subroutine115_0

   \                                 In  segment BANKED_CODE, align 1, keep-with-next
   \                     ??Subroutine115_0:
   \   000000   E0           MOVX    A,@DPTR
   \   000001                REQUIRE ??Subroutine116_0
   \   000001                ; // Fall through to label ??Subroutine116_0

   \                                 In  segment BANKED_CODE, align 1, keep-with-next
   \                     ??Subroutine116_0:
   \   000000   8882         MOV     DPL,R0
   \   000002   8983         MOV     DPH,R1
   \   000004   F0           MOVX    @DPTR,A
   \   000005   A3           INC     DPTR
   \   000006   08           INC     R0
   \   000007   A983         MOV     R1,DPH
   \   000009   22           RET
    450          
    451          /*********************************************************************
    452           * @fn          ZDP_SimpleDescReq
    453           *
    454           * @brief       This builds and send a NWK_Simple_Desc_req
    455           *              message.  This function sends unicast message to the
    456           *              destination device.
    457           *
    458           * @param       dstAddr - destination address
    459           * @param       nwkAddr - 16 bit address
    460           * @param       epIntf - endpoint/interface
    461           * @param       SecurityEnable - Security Options
    462           *
    463           * @return      afStatus_t
    464           */

   \                                 In  segment BANKED_CODE, align 1, keep-with-next
    465          afStatus_t ZDP_SimpleDescReq( zAddrType_t *dstAddr, uint16 nwkAddr,
   \                     ZDP_SimpleDescReq:
    466                                              byte endPoint, byte SecurityEnable )
    467          
    468          {
   \   000000   74F6         MOV     A,#-0xa
   \   000002   12....       LCALL   ?BANKED_ENTER_XDATA
   \   000005                ; Saved register size: 10
   \   000005                ; Auto size: 0
    469            (void)SecurityEnable;  // Intentionally unreferenced parameter
    470          
    471            ZDP_TmpBuf[0] = LO_UINT16( nwkAddr );
   \   000005   12....       LCALL   ?Subroutine16 & 0xFFFF
    472            ZDP_TmpBuf[1] = HI_UINT16( nwkAddr );
    473            ZDP_TmpBuf[2] = endPoint;
   \                     ??CrossCallReturnLabel_7:
   \   000008   12....       LCALL   ?Subroutine30 & 0xFFFF
    474          
    475            return fillAndSend( &ZDP_TransID, dstAddr, Simple_Desc_req, 3 );
   \                     ??CrossCallReturnLabel_33:
   \   00000B                ; Setup parameters for call to function fillAndSend
   \   00000B   75..04       MOV     ?V0 + 0,#0x4
   \   00000E   75..00       MOV     ?V0 + 1,#0x0
   \   000011   78..         MOV     R0,#?V0 + 0
   \   000013   12....       LCALL   ?PUSH_XSTACK_I_TWO
   \   000016   7903         MOV     R1,#0x3
   \   000018   02....       LJMP    ??Subroutine90_0 & 0xFFFF
    476          }

   \                                 In  segment BANKED_CODE, align 1, keep-with-next
   \                     ?Subroutine30:
   \   000000   12....       LCALL   ?Subroutine81 & 0xFFFF
   \                     ??CrossCallReturnLabel_127:
   \   000003   A3           INC     DPTR
   \   000004   E9           MOV     A,R1
   \   000005   F0           MOVX    @DPTR,A
   \   000006   22           RET
    477          
    478          /*********************************************************************
    479           * @fn          ZDP_UserDescSet
    480           *
    481           * @brief       This builds and send a User_Desc_set message to set
    482           *              the user descriptor.  This function sends unicast
    483           *              message to the destination device.
    484           *
    485           * @param       dstAddr - destination address
    486           * @param       nwkAddr - 16 bit address
    487           * @param       UserDescriptor - user descriptor
    488           * @param       SecurityEnable - Security Options
    489           *
    490           * @return      afStatus_t
    491           */

   \                                 In  segment BANKED_CODE, align 1, keep-with-next
    492          afStatus_t ZDP_UserDescSet( zAddrType_t *dstAddr, uint16 nwkAddr,
   \                     ZDP_UserDescSet:
    493                                    UserDescriptorFormat_t *UserDescriptor,
    494                                    byte SecurityEnable )
    495          {
   \   000000   74ED         MOV     A,#-0x13
   \   000002   12....       LCALL   ?BANKED_ENTER_XDATA
   \   000005                ; Saved register size: 19
   \   000005                ; Auto size: 0
   \   000005   8A..         MOV     ?V0 + 2,R2
   \   000007   8B..         MOV     ?V0 + 3,R3
   \   000009   7413         MOV     A,#0x13
   \   00000B   12....       LCALL   ?XSTACK_DISP0_8
   \   00000E   12....       LCALL   ?Subroutine29 & 0xFFFF
   \                     ??CrossCallReturnLabel_30:
   \   000011   FA           MOV     R2,A
   \   000012   E9           MOV     A,R1
   \   000013   FB           MOV     R3,A
    496            uint8 *pBuf = ZDP_TmpBuf;
   \   000014   90....       MOV     DPTR,#ZDP_TmpBuf
   \   000017   12....       LCALL   ?Subroutine19 & 0xFFFF
    497            byte len = (UserDescriptor->len < AF_MAX_USER_DESCRIPTOR_LEN) ?
    498                        UserDescriptor->len : AF_MAX_USER_DESCRIPTOR_LEN;
   \                     ??CrossCallReturnLabel_11:
   \   00001A   8A82         MOV     DPL,R2
   \   00001C   8B83         MOV     DPH,R3
   \   00001E   E0           MOVX    A,@DPTR
   \   00001F   F8           MOV     R0,A
   \   000020   C3           CLR     C
   \   000021   9410         SUBB    A,#0x10
   \   000023   5004         JNC     ??ZDP_UserDescSet_0
   \   000025   88..         MOV     ?V0 + 0,R0
   \   000027   8003         SJMP    ??ZDP_UserDescSet_1
   \                     ??ZDP_UserDescSet_0:
   \   000029   75..10       MOV     ?V0 + 0,#0x10
    499            byte addrLen = 2;
    500          
    501            (void)SecurityEnable;  // Intentionally unreferenced parameter
    502          
    503            *pBuf++ = LO_UINT16( nwkAddr );
   \                     ??ZDP_UserDescSet_1:
   \   00002C   EC           MOV     A,R4
   \   00002D   85..82       MOV     DPL,?V0 + 4
   \   000030   85..83       MOV     DPH,?V0 + 5
   \   000033   12....       LCALL   ?Subroutine55 & 0xFFFF
    504            *pBuf++ = HI_UINT16( nwkAddr );
    505          
    506            *pBuf++ = len;
   \                     ??CrossCallReturnLabel_119:
   \   000036   8582..       MOV     ?V0 + 4,DPL
   \   000039   8583..       MOV     ?V0 + 5,DPH
    507            addrLen = 3;
    508          
    509            pBuf = osal_memcpy( pBuf, UserDescriptor->desc, len );
    510            osal_memset( pBuf, AF_USER_DESCRIPTOR_FILL, AF_MAX_USER_DESCRIPTOR_LEN-len );
   \   00003C                ; Setup parameters for call to function osal_memset
   \   00003C   F5..         MOV     ?V0 + 6,A
   \   00003E   7410         MOV     A,#0x10
   \   000040   C3           CLR     C
   \   000041   95..         SUBB    A,?V0 + 6
   \   000043   FC           MOV     R4,A
   \   000044   95E0         SUBB    A,0xE0 /* A   */
   \   000046   FD           MOV     R5,A
   \   000047   7920         MOV     R1,#0x20
   \   000049   E9           MOV     A,R1
   \   00004A   C0E0         PUSH    A
   \   00004C   EC           MOV     A,R4
   \   00004D   FE           MOV     R6,A
   \   00004E   ED           MOV     A,R5
   \   00004F   FF           MOV     R7,A
   \   000050                ; Setup parameters for call to function osal_memcpy
   \   000050   8A82         MOV     DPL,R2
   \   000052   8B83         MOV     DPH,R3
   \   000054   A3           INC     DPTR
   \   000055   A982         MOV     R1,DPL
   \   000057   AA83         MOV     R2,DPH
   \   000059   89..         MOV     ?V0 + 8,R1
   \   00005B   8A..         MOV     ?V0 + 9,R2
   \   00005D   75..00       MOV     ?V0 + 10,#0x0
   \   000060   78..         MOV     R0,#?V0 + 8
   \   000062   12....       LCALL   ?PUSH_XSTACK_I_THREE
   \   000065   AC..         MOV     R4,?V0 + 6
   \   000067   7D00         MOV     R5,#0x0
   \   000069   AA..         MOV     R2,?V0 + 4
   \   00006B   AB..         MOV     R3,?V0 + 5
   \   00006D   12....       LCALL   ??Subroutine100_0 & 0xFFFF
   \                     ??CrossCallReturnLabel_143:
   \   000070   12....       LCALL   ?DEALLOC_XSTACK8
   \   000073   EE           MOV     A,R6
   \   000074   FC           MOV     R4,A
   \   000075   EF           MOV     A,R7
   \   000076   FD           MOV     R5,A
   \   000077   D0E0         POP     A
   \   000079   F9           MOV     R1,A
   \   00007A   12....       LCALL   ??osal_memset?relay
    511          
    512            return fillAndSend( &ZDP_TransID, dstAddr, User_Desc_set, (AF_MAX_USER_DESCRIPTOR_LEN + addrLen) );
   \   00007D                ; Setup parameters for call to function fillAndSend
   \   00007D   75..14       MOV     ?V0 + 4,#0x14
   \   000080   75..00       MOV     ?V0 + 5,#0x0
   \   000083   78..         MOV     R0,#?V0 + 4
   \   000085   12....       LCALL   ?PUSH_XSTACK_I_TWO
   \   000088   7913         MOV     R1,#0x13
   \   00008A   AC..         MOV     R4,?V0 + 2
   \   00008C   AD..         MOV     R5,?V0 + 3
   \   00008E   12....       LCALL   ??Subroutine117_0 & 0xFFFF
   \                     ??CrossCallReturnLabel_227:
   \   000091   12....       LCALL   ?DEALLOC_XSTACK8
   \   000094   7F0B         MOV     R7,#0xb
   \   000096   02....       LJMP    ?BANKED_LEAVE_XDATA
    513          }

   \                                 In  segment BANKED_CODE, align 1, keep-with-next
   \                     ?Subroutine29:
   \   000000   E0           MOVX    A,@DPTR
   \   000001   F8           MOV     R0,A
   \   000002   A3           INC     DPTR
   \   000003   E0           MOVX    A,@DPTR
   \   000004   F9           MOV     R1,A
   \   000005   E8           MOV     A,R0
   \   000006   22           RET

   \                                 In  segment BANKED_CODE, align 1, keep-with-next
   \                     ??Subroutine100_0:
   \   000000   12....       LCALL   ??osal_memcpy?relay
   \   000003   7403         MOV     A,#0x3
   \   000005   22           RET
    514          
    515          /*********************************************************************
    516           * @fn          ZDP_ServerDiscReq
    517           *
    518           * @brief       Build and send a Server_Discovery_req request message.
    519           *
    520           * @param       serverMask - 16-bit bit-mask of server services being sought.
    521           * @param       SecurityEnable - Security Options
    522           *
    523           * @return      afStatus_t
    524           */

   \                                 In  segment BANKED_CODE, align 1, keep-with-next
    525          afStatus_t ZDP_ServerDiscReq( uint16 serverMask, byte SecurityEnable )
   \                     ZDP_ServerDiscReq:
    526          {
   \   000000   74F6         MOV     A,#-0xa
   \   000002   12....       LCALL   ?BANKED_ENTER_XDATA
   \   000005                ; Saved register size: 10
   \   000005                ; Auto size: 9
   \   000005   74F7         MOV     A,#-0x9
   \   000007   12....       LCALL   ?ALLOC_XSTACK8
   \   00000A   12....       LCALL   ?Subroutine44 & 0xFFFF
    527            uint8 *pBuf = ZDP_TmpBuf;
    528            zAddrType_t dstAddr;
    529          
    530            dstAddr.addrMode = AddrBroadcast;
   \                     ??CrossCallReturnLabel_268:
   \   00000D   7408         MOV     A,#0x8
   \   00000F   12....       LCALL   ?XSTACK_DISP0_8
   \   000012   12....       LCALL   ?Subroutine53 & 0xFFFF
    531            dstAddr.addr.shortAddr = NWK_BROADCAST_SHORTADDR_DEVRXON;
    532          
    533            *pBuf++ = LO_UINT16( serverMask );
   \                     ??CrossCallReturnLabel_71:
   \   000015   12....       LCALL   ?Subroutine63 & 0xFFFF
    534            *pBuf = HI_UINT16( serverMask );
    535          
    536            FillAndSendTxOptions( &ZDP_TransID, &dstAddr, Server_Discovery_req, 2,
    537                       ((SecurityEnable) ? AF_EN_SECURITY : AF_TX_OPTIONS_NONE) );
   \                     ??CrossCallReturnLabel_248:
   \   000018   EE           MOV     A,R6
   \   000019   90....       MOV     DPTR,#ZDP_TxOptions
   \   00001C   6004         JZ      ??ZDP_ServerDiscReq_0
   \   00001E   7440         MOV     A,#0x40
   \   000020   8001         SJMP    ??ZDP_ServerDiscReq_1
   \                     ??ZDP_ServerDiscReq_0:
   \   000022   E4           CLR     A
   \                     ??ZDP_ServerDiscReq_1:
   \   000023   F0           MOVX    @DPTR,A
   \   000024                ; Setup parameters for call to function fillAndSend
   \   000024   75..15       MOV     ?V0 + 0,#0x15
   \   000027   75..00       MOV     ?V0 + 1,#0x0
   \   00002A   78..         MOV     R0,#?V0 + 0
   \   00002C   12....       LCALL   ?PUSH_XSTACK_I_TWO
   \   00002F   7902         MOV     R1,#0x2
   \   000031   E9           MOV     A,R1
   \   000032   12....       LCALL   ?XSTACK_DISP0_8
   \   000035   12....       LCALL   ?Subroutine65 & 0xFFFF
   \                     ??CrossCallReturnLabel_225:
   \   000038   12....       LCALL   ?DEALLOC_XSTACK8
   \   00003B   90....       MOV     DPTR,#ZDP_TxOptions
   \   00003E   E4           CLR     A
   \   00003F   F0           MOVX    @DPTR,A
   \   000040   02....       LJMP    ??Subroutine89_0 & 0xFFFF
    538          }

   \                                 In  segment BANKED_CODE, align 1, keep-with-next
   \                     ?Subroutine53:
   \   000000   740F         MOV     A,#0xf
   \   000002   F0           MOVX    @DPTR,A
   \   000003   85..82       MOV     DPL,?XSP + 0
   \   000006   85..83       MOV     DPH,?XSP + 1
   \   000009   74FD         MOV     A,#-0x3
   \   00000B   F0           MOVX    @DPTR,A
   \   00000C   A3           INC     DPTR
   \   00000D   74FF         MOV     A,#-0x1
   \   00000F   F0           MOVX    @DPTR,A
   \   000010   22           RET

   \                                 In  segment BANKED_CODE, align 1, keep-with-next
   \                     ?Subroutine44:
   \   000000   E9           MOV     A,R1
   \   000001   FE           MOV     R6,A
   \   000002                REQUIRE ??Subroutine122_0
   \   000002                ; // Fall through to label ??Subroutine122_0
    539          
    540          /*********************************************************************
    541           * @fn          ZDP_DeviceAnnce
    542           *
    543           * @brief       This builds and send a Device_Annce message.  This
    544           *              function sends a broadcast message.
    545           *
    546           * @param       nwkAddr - 16 bit address of the device
    547           * @param       IEEEAddr - 64 bit address of the device
    548           * @param       capabilities - device capabilities.  This field is only
    549           *                 sent for v1.1 networks.
    550           * @param       SecurityEnable - Security Options
    551           *
    552           * @return      afStatus_t
    553           */

   \                                 In  segment BANKED_CODE, align 1, keep-with-next
    554          afStatus_t ZDP_DeviceAnnce( uint16 nwkAddr, uint8 *IEEEAddr,
   \                     ZDP_DeviceAnnce:
    555                                        byte capabilities, byte SecurityEnable )
    556          {
   \   000000   74F6         MOV     A,#-0xa
   \   000002   12....       LCALL   ?BANKED_ENTER_XDATA
   \   000005                ; Saved register size: 10
   \   000005                ; Auto size: 9
   \   000005   74F7         MOV     A,#-0x9
   \   000007   12....       LCALL   ?ALLOC_XSTACK8
   \   00000A   E9           MOV     A,R1
   \   00000B   FE           MOV     R6,A
    557            zAddrType_t dstAddr;
    558            uint8 len;
    559          
    560            (void)SecurityEnable;  // Intentionally unreferenced parameter
    561          
    562            dstAddr.addrMode = (afAddrMode_t)AddrBroadcast;
   \   00000C   7408         MOV     A,#0x8
   \   00000E   12....       LCALL   ?XSTACK_DISP0_8
   \   000011   12....       LCALL   ?Subroutine53 & 0xFFFF
    563            dstAddr.addr.shortAddr = NWK_BROADCAST_SHORTADDR_DEVRXON;
    564          
    565            ZDP_TmpBuf[0] = LO_UINT16( nwkAddr );
   \                     ??CrossCallReturnLabel_72:
   \   000014   12....       LCALL   ?Subroutine32 & 0xFFFF
   \                     ??CrossCallReturnLabel_146:
   \   000017   EA           MOV     A,R2
   \   000018   12....       LCALL   ?Subroutine31 & 0xFFFF
    566            ZDP_TmpBuf[1] = HI_UINT16( nwkAddr );
   \                     ??CrossCallReturnLabel_122:
   \   00001B   EB           MOV     A,R3
   \   00001C   F0           MOVX    @DPTR,A
    567            osal_cpyExtAddr( &ZDP_TmpBuf[2], IEEEAddr );
   \   00001D                ; Setup parameters for call to function sAddrExtCpy
   \   00001D   90....       MOV     DPTR,#ZDP_TmpBuf
   \   000020   E0           MOVX    A,@DPTR
   \   000021   2402         ADD     A,#0x2
   \   000023   FA           MOV     R2,A
   \   000024   A3           INC     DPTR
   \   000025   E0           MOVX    A,@DPTR
   \   000026   3400         ADDC    A,#0x0
   \   000028   12....       LCALL   ?Subroutine24 & 0xFFFF
    568            len = 2 + Z_EXTADDR_LEN;
    569          
    570            ZDP_TmpBuf[10] = capabilities;
   \                     ??CrossCallReturnLabel_19:
   \   00002B   A3           INC     DPTR
   \   00002C   A3           INC     DPTR
   \   00002D   EE           MOV     A,R6
   \   00002E   F0           MOVX    @DPTR,A
    571            len++;
    572          
    573            return fillAndSend( &ZDP_TransID, &dstAddr, Device_annce, len );
   \   00002F                ; Setup parameters for call to function fillAndSend
   \   00002F   75..13       MOV     ?V0 + 0,#0x13
   \   000032   75..00       MOV     ?V0 + 1,#0x0
   \   000035   78..         MOV     R0,#?V0 + 0
   \   000037   12....       LCALL   ?PUSH_XSTACK_I_TWO
   \   00003A   790B         MOV     R1,#0xb
   \   00003C   02....       LJMP    ?Subroutine8 & 0xFFFF
    574          }

   \                                 In  segment BANKED_CODE, align 1, keep-with-next
   \                     ?Subroutine31:
   \   000000   F0           MOVX    @DPTR,A
   \   000001                REQUIRE ??Subroutine94_0
   \   000001                ; // Fall through to label ??Subroutine94_0

   \                                 In  segment BANKED_CODE, align 1, keep-with-next
   \                     ??Subroutine94_0:
   \   000000   12....       LCALL   ?Subroutine81 & 0xFFFF
   \                     ??CrossCallReturnLabel_128:
   \   000003   22           RET

   \                                 In  segment BANKED_CODE, align 1, keep-with-next
   \                     ?Subroutine24:
   \   000000   FB           MOV     R3,A
   \   000001   12....       LCALL   ??sAddrExtCpy?relay
   \   000004   12....       LCALL   ?Subroutine81 & 0xFFFF
   \                     ??CrossCallReturnLabel_126:
   \   000007   A3           INC     DPTR
   \   000008   A3           INC     DPTR
   \   000009   A3           INC     DPTR
   \   00000A   A3           INC     DPTR
   \   00000B   A3           INC     DPTR
   \   00000C   A3           INC     DPTR
   \   00000D   A3           INC     DPTR
   \   00000E   22           RET

   \                                 In  segment BANKED_CODE, align 1, keep-with-next
   \                     ?Subroutine32:
   \   000000   90....       MOV     DPTR,#ZDP_TmpBuf
   \   000003                REQUIRE ??Subroutine101_0
   \   000003                ; // Fall through to label ??Subroutine101_0

   \                                 In  segment BANKED_CODE, align 1, keep-with-next
   \                     ??Subroutine101_0:
   \   000000   12....       LCALL   ?Subroutine83 & 0xFFFF
   \                     ??CrossCallReturnLabel_150:
   \   000003   22           RET
    575          
    576          /*********************************************************************
    577           * Address Responses
    578           */
    579          
    580          /*********************************************************************
    581           * @fn      zdpProcessAddrReq
    582           *
    583           * @brief   Process an incoming NWK_addr_req or IEEE_addr_req message and then
    584           *          build and send a corresponding NWK_addr_rsp or IEEE_addr_rsp msg.
    585           *
    586           * @param   inMsg - incoming message
    587           *
    588           * @return  none
    589           */

   \                                 In  segment BANKED_CODE, align 1, keep-with-next
    590          void zdpProcessAddrReq( zdoIncomingMsg_t *inMsg )
   \                     zdpProcessAddrReq:
    591          {
   \   000000   74EA         MOV     A,#-0x16
   \   000002   12....       LCALL   ?BANKED_ENTER_XDATA
   \   000005                ; Saved register size: 22
   \   000005                ; Auto size: 14
   \   000005   74F2         MOV     A,#-0xe
   \   000007   12....       LCALL   ?ALLOC_XSTACK8
   \   00000A   8A..         MOV     ?V0 + 8,R2
   \   00000C   8B..         MOV     ?V0 + 9,R3
    592            associated_devices_t *pAssoc;
    593            uint8 reqType;
    594            uint16 aoi = INVALID_NODE_ADDR;
   \   00000E   75..FE       MOV     ?V0 + 2,#-0x2
   \   000011   75..FF       MOV     ?V0 + 3,#-0x1
    595            uint8 *ieee = NULL;
   \   000014   75..00       MOV     ?V0 + 0,#0x0
   \   000017   75..00       MOV     ?V0 + 1,#0x0
    596          
    597            reqType = inMsg->asdu[(inMsg->clusterID == NWK_addr_req) ? Z_EXTADDR_LEN : sizeof( uint16 ) ];
   \   00001A   EA           MOV     A,R2
   \   00001B   240C         ADD     A,#0xc
   \   00001D   F5..         MOV     ?V0 + 10,A
   \   00001F   EB           MOV     A,R3
   \   000020   3400         ADDC    A,#0x0
   \   000022   F5..         MOV     ?V0 + 11,A
   \   000024   85..82       MOV     DPL,?V0 + 10
   \   000027   F583         MOV     DPH,A
   \   000029   12....       LCALL   ??Subroutine98_0 & 0xFFFF
   \                     ??CrossCallReturnLabel_132:
   \   00002C   EA           MOV     A,R2
   \   00002D   4B           ORL     A,R3
   \   00002E   7004         JNZ     ??zdpProcessAddrReq_0
   \   000030   7C08         MOV     R4,#0x8
   \   000032   8002         SJMP    ??zdpProcessAddrReq_1
   \                     ??zdpProcessAddrReq_0:
   \   000034   7C02         MOV     R4,#0x2
   \                     ??zdpProcessAddrReq_1:
   \   000036   E5..         MOV     A,?V0 + 8
   \   000038   2413         ADD     A,#0x13
   \   00003A   F5..         MOV     ?V0 + 12,A
   \   00003C   E5..         MOV     A,?V0 + 9
   \   00003E   3400         ADDC    A,#0x0
   \   000040   F5..         MOV     ?V0 + 13,A
   \   000042   85..82       MOV     DPL,?V0 + 12
   \   000045   F583         MOV     DPH,A
   \   000047   12....       LCALL   ?Subroutine29 & 0xFFFF
   \                     ??CrossCallReturnLabel_31:
   \   00004A   2C           ADD     A,R4
   \   00004B   F582         MOV     DPL,A
   \   00004D   E9           MOV     A,R1
   \   00004E   12....       LCALL   ??Subroutine121_0 & 0xFFFF
   \                     ??CrossCallReturnLabel_261:
   \   000051   F5..         MOV     ?V0 + 4,A
    598          
    599            if ( inMsg->clusterID == NWK_addr_req )
   \   000053   EA           MOV     A,R2
   \   000054   4B           ORL     A,R3
   \   000055   704A         JNZ     ??zdpProcessAddrReq_2
    600          
    601            {
    602              ieee = inMsg->asdu;
   \   000057   88..         MOV     ?V0 + 0,R0
   \   000059   89..         MOV     ?V0 + 1,R1
    603          
    604              if ( osal_ExtAddrEqual( saveExtAddr, ieee ) )
   \   00005B                ; Setup parameters for call to function sAddrExtCmp
   \   00005B   AC..         MOV     R4,?V0 + 0
   \   00005D   AD..         MOV     R5,?V0 + 1
   \   00005F   7A..         MOV     R2,#saveExtAddr & 0xff
   \   000061   7B..         MOV     R3,#(saveExtAddr >> 8) & 0xff
   \   000063   12....       LCALL   ??sAddrExtCmp?relay
   \   000066   E9           MOV     A,R1
   \   000067   6006         JZ      ??zdpProcessAddrReq_3
    605              {
    606                aoi = ZDAppNwkAddr.addr.shortAddr;
   \   000069   12....       LCALL   ?Subroutine13 & 0xFFFF
    607              }
   \                     ??CrossCallReturnLabel_179:
   \   00006C   02....       LJMP    ??zdpProcessAddrReq_4 & 0xFFFF
    608              // Handle response for sleeping end devices
    609              else if ( (ZSTACK_ROUTER_BUILD)
    610                && (((pAssoc = AssocGetWithExt( ieee )) != NULL)
    611                       && (pAssoc->nodeRelation == CHILD_RFD)) )
   \                     ??zdpProcessAddrReq_3:
   \   00006F                ; Setup parameters for call to function AssocGetWithExt
   \   00006F   AA..         MOV     R2,?V0 + 0
   \   000071   AB..         MOV     R3,?V0 + 1
   \   000073   12....       LCALL   ??AssocGetWithExt?relay
   \   000076   EA           MOV     A,R2
   \   000077   F8           MOV     R0,A
   \   000078   EB           MOV     A,R3
   \   000079   F9           MOV     R1,A
   \   00007A   EA           MOV     A,R2
   \   00007B   4B           ORL     A,R3
   \   00007C   7003         JNZ     $+5
   \   00007E   02....       LJMP    ??zdpProcessAddrReq_5 & 0xFFFF
   \   000081   8882         MOV     DPL,R0
   \   000083   8983         MOV     DPH,R1
   \   000085   A3           INC     DPTR
   \   000086   A3           INC     DPTR
   \   000087   A3           INC     DPTR
   \   000088   A3           INC     DPTR
   \   000089   E0           MOVX    A,@DPTR
   \   00008A   6401         XRL     A,#0x1
   \   00008C   6003         JZ      $+5
   \   00008E   02....       LJMP    ??zdpProcessAddrReq_5 & 0xFFFF
    612              {
    613                aoi = pAssoc->shortAddr;
   \   000091   8882         MOV     DPL,R0
   \   000093   8983         MOV     DPH,R1
   \   000095   12....       LCALL   ??Subroutine107_0 & 0xFFFF
    614                if ( reqType != ZDP_ADDR_REQTYPE_SINGLE )
   \                     ??CrossCallReturnLabel_175:
   \   000098   E5..         MOV     A,?V0 + 4
   \   00009A   607B         JZ      ??zdpProcessAddrReq_4
    615                  reqType = 0xFF; // Force Invalid
   \                     ??zdpProcessAddrReq_6:
   \   00009C   75..FF       MOV     ?V0 + 4,#-0x1
   \   00009F   8076         SJMP    ??zdpProcessAddrReq_4
    616              }
    617            }
    618            else  // if ( inMsg->clusterID == IEEE_addr_req )
    619            {
    620              aoi = BUILD_UINT16( inMsg->asdu[0], inMsg->asdu[1] );
   \                     ??zdpProcessAddrReq_2:
   \   0000A1   8882         MOV     DPL,R0
   \   0000A3   8983         MOV     DPH,R1
   \   0000A5   E0           MOVX    A,@DPTR
   \   0000A6   FA           MOV     R2,A
   \   0000A7   A3           INC     DPTR
   \   0000A8   E0           MOVX    A,@DPTR
   \   0000A9   F9           MOV     R1,A
   \   0000AA   EA           MOV     A,R2
   \   0000AB   2400         ADD     A,#0x0
   \   0000AD   F5..         MOV     ?V0 + 2,A
   \   0000AF   E4           CLR     A
   \   0000B0   39           ADDC    A,R1
   \   0000B1   F5..         MOV     ?V0 + 3,A
    621          
    622              if ( aoi == ZDAppNwkAddr.addr.shortAddr )
   \   0000B3   90....       MOV     DPTR,#ZDAppNwkAddr
   \   0000B6   E0           MOVX    A,@DPTR
   \   0000B7   65..         XRL     A,?V0 + 2
   \   0000B9   7004         JNZ     ??zdpProcessAddrReq_7
   \   0000BB   A3           INC     DPTR
   \   0000BC   E0           MOVX    A,@DPTR
   \   0000BD   65..         XRL     A,?V0 + 3
   \                     ??zdpProcessAddrReq_7:
   \   0000BF   7008         JNZ     ??zdpProcessAddrReq_8
    623              {
    624                ieee = saveExtAddr;
   \   0000C1   75....       MOV     ?V0 + 0,#saveExtAddr & 0xff
   \   0000C4   75....       MOV     ?V0 + 1,#(saveExtAddr >> 8) & 0xff
   \   0000C7   804E         SJMP    ??zdpProcessAddrReq_4
    625              }
    626              else if ( (ZSTACK_ROUTER_BUILD)
    627                && (((pAssoc = AssocGetWithShort( aoi )) != NULL)
    628                       && (pAssoc->nodeRelation == CHILD_RFD)) )
   \                     ??zdpProcessAddrReq_8:
   \   0000C9                ; Setup parameters for call to function AssocGetWithShort
   \   0000C9   AB..         MOV     R3,?V0 + 3
   \   0000CB   12....       LCALL   ??AssocGetWithShort?relay
   \   0000CE   EA           MOV     A,R2
   \   0000CF   F8           MOV     R0,A
   \   0000D0   EB           MOV     A,R3
   \   0000D1   F9           MOV     R1,A
   \   0000D2   EA           MOV     A,R2
   \   0000D3   4B           ORL     A,R3
   \   0000D4   6041         JZ      ??zdpProcessAddrReq_4
   \   0000D6   8882         MOV     DPL,R0
   \   0000D8   8983         MOV     DPH,R1
   \   0000DA   A3           INC     DPTR
   \   0000DB   A3           INC     DPTR
   \   0000DC   A3           INC     DPTR
   \   0000DD   A3           INC     DPTR
   \   0000DE   E0           MOVX    A,@DPTR
   \   0000DF   6401         XRL     A,#0x1
   \   0000E1   7034         JNZ     ??zdpProcessAddrReq_4
    629              {
    630                AddrMgrEntry_t addrEntry;
    631                addrEntry.user = ADDRMGR_USER_DEFAULT;
   \   0000E3   7401         MOV     A,#0x1
   \   0000E5   12....       LCALL   ?XSTACK_DISP0_8
   \   0000E8   E4           CLR     A
   \   0000E9   12....       LCALL   ?Subroutine60 & 0xFFFF
    632                addrEntry.index = pAssoc->addrIdx;
   \                     ??CrossCallReturnLabel_83:
   \   0000EC   A3           INC     DPTR
   \   0000ED   A3           INC     DPTR
   \   0000EE   12....       LCALL   ??Subroutine123_0 & 0xFFFF
   \                     ??CrossCallReturnLabel_272:
   \   0000F1   740C         MOV     A,#0xc
   \   0000F3   12....       LCALL   ?XSTACK_DISP0_8
   \   0000F6   12....       LCALL   ??Subroutine125_0 & 0xFFFF
    633                if ( AddrMgrEntryGet( &addrEntry ) )
   \                     ??CrossCallReturnLabel_297:
   \   0000F9                ; Setup parameters for call to function AddrMgrEntryGet
   \   0000F9   7401         MOV     A,#0x1
   \   0000FB   12....       LCALL   ?XSTACK_DISP0_8
   \   0000FE   AA82         MOV     R2,DPL
   \   000100   AB83         MOV     R3,DPH
   \   000102   12....       LCALL   ??AddrMgrEntryGet?relay
   \   000105   E9           MOV     A,R1
   \   000106   600B         JZ      ??zdpProcessAddrReq_9
    634                {
    635                  ieee = addrEntry.extAddr;
   \   000108   7404         MOV     A,#0x4
   \   00010A   12....       LCALL   ?XSTACK_DISP0_8
   \   00010D   8582..       MOV     ?V0 + 0,DPL
   \   000110   8583..       MOV     ?V0 + 1,DPH
    636                }
    637          
    638                if ( reqType != ZDP_ADDR_REQTYPE_SINGLE )
   \                     ??zdpProcessAddrReq_9:
   \   000113   E5..         MOV     A,?V0 + 4
   \   000115   7085         JNZ     ??zdpProcessAddrReq_6
    639                  reqType = 0xFF; // Force Invalid
    640              }
    641            }
    642          
    643            if ( ((aoi != INVALID_NODE_ADDR) && (ieee != NULL)) || (inMsg->wasBroadcast == FALSE) )
   \                     ??zdpProcessAddrReq_4:
   \   000117   74FE         MOV     A,#-0x2
   \   000119   65..         XRL     A,?V0 + 2
   \   00011B   7004         JNZ     ??zdpProcessAddrReq_10
   \   00011D   74FF         MOV     A,#-0x1
   \   00011F   65..         XRL     A,?V0 + 3
   \                     ??zdpProcessAddrReq_10:
   \   000121   6006         JZ      ??zdpProcessAddrReq_5
   \   000123   E5..         MOV     A,?V0 + 0
   \   000125   45..         ORL     A,?V0 + 1
   \   000127   7010         JNZ     ??zdpProcessAddrReq_11
   \                     ??zdpProcessAddrReq_5:
   \   000129   E5..         MOV     A,?V0 + 8
   \   00012B   240B         ADD     A,#0xb
   \   00012D   F582         MOV     DPL,A
   \   00012F   E5..         MOV     A,?V0 + 9
   \   000131   12....       LCALL   ??Subroutine121_0 & 0xFFFF
   \                     ??CrossCallReturnLabel_262:
   \   000134   6003         JZ      $+5
   \   000136   02....       LJMP    ??zdpProcessAddrReq_12 & 0xFFFF
    644            {
    645              uint8 stat;
    646              uint8 *pBuf = ZDP_TmpBuf;
   \                     ??zdpProcessAddrReq_11:
   \   000139   12....       LCALL   ?Subroutine23 & 0xFFFF
    647              // Status + IEEE-Addr + Nwk-Addr.
    648              uint8 len = 1 + Z_EXTADDR_LEN + 2;
   \                     ??CrossCallReturnLabel_259:
   \   00013C   75..0B       MOV     ?V0 + 5,#0xb
    649              
    650              // If aoi and iee are both setup, we found results
    651              if ( (aoi != INVALID_NODE_ADDR) && (ieee != NULL) )
   \   00013F   74FE         MOV     A,#-0x2
   \   000141   65..         XRL     A,?V0 + 2
   \   000143   7004         JNZ     ??zdpProcessAddrReq_13
   \   000145   74FF         MOV     A,#-0x1
   \   000147   65..         XRL     A,?V0 + 3
   \                     ??zdpProcessAddrReq_13:
   \   000149   601A         JZ      ??zdpProcessAddrReq_14
   \   00014B   E5..         MOV     A,?V0 + 0
   \   00014D   45..         ORL     A,?V0 + 1
   \   00014F   6014         JZ      ??zdpProcessAddrReq_14
    652              {
    653                stat = ((reqType == ZDP_ADDR_REQTYPE_SINGLE) || (reqType == ZDP_ADDR_REQTYPE_EXTENDED)) 
    654                              ? ZDP_SUCCESS : ZDP_INVALID_REQTYPE;
   \   000151   E5..         MOV     A,?V0 + 4
   \   000153   6006         JZ      ??zdpProcessAddrReq_15
   \   000155   7401         MOV     A,#0x1
   \   000157   65..         XRL     A,?V0 + 4
   \   000159   7005         JNZ     ??zdpProcessAddrReq_16
   \                     ??zdpProcessAddrReq_15:
   \   00015B   75..00       MOV     ?V0 + 6,#0x0
   \   00015E   801F         SJMP    ??zdpProcessAddrReq_17
   \                     ??zdpProcessAddrReq_16:
   \   000160   75..80       MOV     ?V0 + 6,#-0x80
   \   000163   801A         SJMP    ??zdpProcessAddrReq_17
    655              }
    656              else 
    657              {
    658                // not found and the req was unicast to this device
    659                stat = ZDP_DEVICE_NOT_FOUND;
   \                     ??zdpProcessAddrReq_14:
   \   000165   75..81       MOV     ?V0 + 6,#-0x7f
    660                
    661                // Fill in the missing field with this device's address
    662                if ( inMsg->clusterID == NWK_addr_req )
   \   000168   85..82       MOV     DPL,?V0 + 10
   \   00016B   85..83       MOV     DPH,?V0 + 11
   \   00016E   12....       LCALL   ?Subroutine29 & 0xFFFF
   \                     ??CrossCallReturnLabel_32:
   \   000171   49           ORL     A,R1
   \   000172   7005         JNZ     ??zdpProcessAddrReq_18
    663                {
    664                  aoi = ZDAppNwkAddr.addr.shortAddr;
   \   000174   12....       LCALL   ?Subroutine13 & 0xFFFF
    665                }
   \                     ??CrossCallReturnLabel_180:
   \   000177   8006         SJMP    ??zdpProcessAddrReq_17
    666                else
    667                {
    668                  ieee = saveExtAddr;
   \                     ??zdpProcessAddrReq_18:
   \   000179   75....       MOV     ?V0 + 0,#saveExtAddr & 0xff
   \   00017C   75....       MOV     ?V0 + 1,#(saveExtAddr >> 8) & 0xff
    669                }
    670              }
    671          
    672              *pBuf++ = stat;
   \                     ??zdpProcessAddrReq_17:
   \   00017F   8E82         MOV     DPL,R6
   \   000181   8F83         MOV     DPH,R7
   \   000183   E5..         MOV     A,?V0 + 6
   \   000185   F0           MOVX    @DPTR,A
   \   000186   A3           INC     DPTR
    673          
    674              pBuf = osal_cpyExtAddr( pBuf, ieee );
   \   000187                ; Setup parameters for call to function sAddrExtCpy
   \   000187   AC..         MOV     R4,?V0 + 0
   \   000189   AD..         MOV     R5,?V0 + 1
   \   00018B   AA82         MOV     R2,DPL
   \   00018D   AB83         MOV     R3,DPH
   \   00018F   12....       LCALL   ??sAddrExtCpy?relay
   \   000192   8A..         MOV     ?V0 + 0,R2
   \   000194   8B..         MOV     ?V0 + 1,R3
   \   000196   AE..         MOV     R6,?V0 + 0
   \   000198   AF..         MOV     R7,?V0 + 1
    675          
    676              *pBuf++ = LO_UINT16( aoi );
   \   00019A   8E82         MOV     DPL,R6
   \   00019C   8F83         MOV     DPH,R7
   \   00019E   E5..         MOV     A,?V0 + 2
   \   0001A0   F0           MOVX    @DPTR,A
   \   0001A1   A3           INC     DPTR
    677              *pBuf++ = HI_UINT16( aoi );
   \   0001A2   E5..         MOV     A,?V0 + 3
   \   0001A4   12....       LCALL   ??Subroutine104_0 & 0xFFFF
    678          
    679              if ( ZSTACK_ROUTER_BUILD )
    680              {
    681                if ( (reqType == ZDP_ADDR_REQTYPE_EXTENDED) && (aoi == ZDAppNwkAddr.addr.shortAddr)
    682                     && (stat == ZDP_SUCCESS) )
   \                     ??CrossCallReturnLabel_165:
   \   0001A7   7401         MOV     A,#0x1
   \   0001A9   65..         XRL     A,?V0 + 4
   \   0001AB   6003         JZ      $+5
   \   0001AD   02....       LJMP    ??zdpProcessAddrReq_19 & 0xFFFF
   \   0001B0   90....       MOV     DPTR,#ZDAppNwkAddr
   \   0001B3   E0           MOVX    A,@DPTR
   \   0001B4   65..         XRL     A,?V0 + 2
   \   0001B6   7004         JNZ     ??zdpProcessAddrReq_20
   \   0001B8   A3           INC     DPTR
   \   0001B9   E0           MOVX    A,@DPTR
   \   0001BA   65..         XRL     A,?V0 + 3
   \                     ??zdpProcessAddrReq_20:
   \   0001BC   6003         JZ      $+5
   \   0001BE   02....       LJMP    ??zdpProcessAddrReq_19 & 0xFFFF
   \   0001C1   E5..         MOV     A,?V0 + 6
   \   0001C3   6003         JZ      $+5
   \   0001C5   02....       LJMP    ??zdpProcessAddrReq_19 & 0xFFFF
    683                {
    684                  uint8  cnt = 0;
   \   0001C8   85..82       MOV     DPL,?XSP + 0
   \   0001CB   85..83       MOV     DPH,?XSP + 1
   \   0001CE   E4           CLR     A
   \   0001CF   F0           MOVX    @DPTR,A
    685                  uint16 *list = AssocMakeList( &cnt );
   \   0001D0                ; Setup parameters for call to function AssocMakeList
   \   0001D0   AA82         MOV     R2,DPL
   \   0001D2   AB83         MOV     R3,DPH
   \   0001D4   12....       LCALL   ??AssocMakeList?relay
    686          
    687                  if ( list != NULL )
   \   0001D7   8E82         MOV     DPL,R6
   \   0001D9   8F83         MOV     DPH,R7
   \   0001DB   A3           INC     DPTR
   \   0001DC   A983         MOV     R1,DPH
   \   0001DE   EA           MOV     A,R2
   \   0001DF   4B           ORL     A,R3
   \   0001E0   7003         JNZ     $+5
   \   0001E2   02....       LJMP    ??zdpProcessAddrReq_21 & 0xFFFF
    688                  {
    689                    byte idx = inMsg->asdu[(((inMsg->clusterID == NWK_addr_req) ? Z_EXTADDR_LEN : sizeof( uint16 )) + 1)];
   \   0001E5   85..82       MOV     DPL,?V0 + 10
   \   0001E8   85..83       MOV     DPH,?V0 + 11
   \   0001EB   12....       LCALL   ?Subroutine47 & 0xFFFF
   \                     ??CrossCallReturnLabel_57:
   \   0001EE   EC           MOV     A,R4
   \   0001EF   4D           ORL     A,R5
   \   0001F0   7004         JNZ     ??zdpProcessAddrReq_22
   \   0001F2   7C08         MOV     R4,#0x8
   \   0001F4   8002         SJMP    ??zdpProcessAddrReq_23
   \                     ??zdpProcessAddrReq_22:
   \   0001F6   7C02         MOV     R4,#0x2
   \                     ??zdpProcessAddrReq_23:
   \   0001F8   85..82       MOV     DPL,?V0 + 12
   \   0001FB   85..83       MOV     DPH,?V0 + 13
   \   0001FE   E0           MOVX    A,@DPTR
   \   0001FF   2C           ADD     A,R4
   \   000200   F5..         MOV     ?V0 + 0,A
   \   000202   A3           INC     DPTR
   \   000203   E0           MOVX    A,@DPTR
   \   000204   3400         ADDC    A,#0x0
   \   000206   85..82       MOV     DPL,?V0 + 0
   \   000209   F583         MOV     DPH,A
   \   00020B   A3           INC     DPTR
   \   00020C   E0           MOVX    A,@DPTR
   \   00020D   F5..         MOV     ?V0 + 0,A
    690                    uint16 *pList = list + idx;
   \   00020F   C3           CLR     C
   \   000210   33           RLC     A
   \   000211   FC           MOV     R4,A
   \   000212   E4           CLR     A
   \   000213   33           RLC     A
   \   000214   FD           MOV     R5,A
   \   000215   EA           MOV     A,R2
   \   000216   2C           ADD     A,R4
   \   000217   FC           MOV     R4,A
   \   000218   EB           MOV     A,R3
   \   000219   3D           ADDC    A,R5
   \   00021A   FD           MOV     R5,A
    691          
    692                    // NumAssocDev field is only present on success.
    693                    if ( cnt > idx )
   \   00021B   85..82       MOV     DPL,?XSP + 0
   \   00021E   85..83       MOV     DPH,?XSP + 1
   \   000221   E0           MOVX    A,@DPTR
   \   000222   F5..         MOV     ?V0 + 1,A
   \   000224   E5..         MOV     A,?V0 + 0
   \   000226   C3           CLR     C
   \   000227   95..         SUBB    A,?V0 + 1
   \   000229   500D         JNC     ??zdpProcessAddrReq_24
    694                    {
    695                      cnt -= idx;
   \   00022B   E0           MOVX    A,@DPTR
   \   00022C   C3           CLR     C
   \   00022D   95..         SUBB    A,?V0 + 0
   \   00022F   F0           MOVX    @DPTR,A
    696                      len += (cnt * sizeof( uint16 ));
   \   000230   C3           CLR     C
   \   000231   33           RLC     A
   \   000232   240B         ADD     A,#0xb
   \   000234   F5..         MOV     ?V0 + 5,A
   \   000236   8002         SJMP    ??zdpProcessAddrReq_25
    697                    }
    698                    else
    699                    {
    700                      cnt = 0;
   \                     ??zdpProcessAddrReq_24:
   \   000238   E4           CLR     A
   \   000239   F0           MOVX    @DPTR,A
    701                    }
    702                    *pBuf++ = cnt;
   \                     ??zdpProcessAddrReq_25:
   \   00023A   12....       LCALL   ??Subroutine110_0 & 0xFFFF
   \                     ??CrossCallReturnLabel_186:
   \   00023D   0E           INC     R6
   \   00023E   E9           MOV     A,R1
   \   00023F   FF           MOV     R7,A
    703                    len++;
    704          
    705                    // StartIndex field is only present if NumAssocDev field is non-zero.
    706                    *pBuf++ = idx;
   \   000240   8E82         MOV     DPL,R6
   \   000242   8F83         MOV     DPH,R7
   \   000244   E5..         MOV     A,?V0 + 0
   \   000246   F0           MOVX    @DPTR,A
   \   000247   A3           INC     DPTR
   \   000248   0E           INC     R6
   \   000249   AF83         MOV     R7,DPH
    707                    len++;
   \   00024B   05..         INC     ?V0 + 5
   \   00024D   05..         INC     ?V0 + 5
   \   00024F   8024         SJMP    ??zdpProcessAddrReq_26
    708          
    709                    while ( cnt != 0 )
    710                    {
    711                      *pBuf++ = LO_UINT16( *pList );
   \                     ??zdpProcessAddrReq_27:
   \   000251   8C82         MOV     DPL,R4
   \   000253   8D83         MOV     DPH,R5
   \   000255   12....       LCALL   ?Subroutine37 & 0xFFFF
    712                      *pBuf++ = HI_UINT16( *pList );
   \                     ??CrossCallReturnLabel_41:
   \   000258   8C82         MOV     DPL,R4
   \   00025A   8D83         MOV     DPH,R5
   \   00025C   12....       LCALL   ??Subroutine109_0 & 0xFFFF
   \                     ??CrossCallReturnLabel_189:
   \   00025F   A3           INC     DPTR
   \   000260   0E           INC     R6
   \   000261   AF83         MOV     R7,DPH
    713                      pList++;
   \   000263   EC           MOV     A,R4
   \   000264   2402         ADD     A,#0x2
   \   000266   0C           INC     R4
   \   000267   0C           INC     R4
   \   000268   ED           MOV     A,R5
   \   000269   3400         ADDC    A,#0x0
   \   00026B   FD           MOV     R5,A
    714                      cnt--;
   \   00026C   85..82       MOV     DPL,?XSP + 0
   \   00026F   85..83       MOV     DPH,?XSP + 1
   \   000272   E0           MOVX    A,@DPTR
   \   000273   14           DEC     A
   \   000274   F0           MOVX    @DPTR,A
    715                    }
   \                     ??zdpProcessAddrReq_26:
   \   000275   85..82       MOV     DPL,?XSP + 0
   \   000278   85..83       MOV     DPH,?XSP + 1
   \   00027B   E0           MOVX    A,@DPTR
   \   00027C   70D3         JNZ     ??zdpProcessAddrReq_27
    716          
    717                    osal_mem_free( (uint8 *)list );
   \   00027E                ; Setup parameters for call to function osal_mem_free
   \   00027E   12....       LCALL   ??osal_mem_free?relay
   \   000281   8009         SJMP    ??zdpProcessAddrReq_19
    718                  }
    719                  else
    720                  {
    721                    // NumAssocDev field is only present on success.
    722                    *pBuf++ = 0;
   \                     ??zdpProcessAddrReq_21:
   \   000283   8E82         MOV     DPL,R6
   \   000285   8F83         MOV     DPH,R7
   \   000287   E4           CLR     A
   \   000288   F0           MOVX    @DPTR,A
    723                    len++;
   \   000289   75..0C       MOV     ?V0 + 5,#0xc
    724                  }
    725                }
    726              }
    727          
    728              ZDP_TxOptions = AF_MSG_ACK_REQUEST;
   \                     ??zdpProcessAddrReq_19:
   \   00028C   90....       MOV     DPTR,#ZDP_TxOptions
   \   00028F   7410         MOV     A,#0x10
   \   000291   F0           MOVX    @DPTR,A
    729              fillAndSend( &(inMsg->TransSeq), &(inMsg->srcAddr), (cId_t)(inMsg->clusterID | ZDO_RESPONSE_BIT), len );
   \   000292                ; Setup parameters for call to function fillAndSend
   \   000292   85..82       MOV     DPL,?V0 + 10
   \   000295   85..83       MOV     DPH,?V0 + 11
   \   000298   E0           MOVX    A,@DPTR
   \   000299   F5..         MOV     ?V0 + 0,A
   \   00029B   A3           INC     DPTR
   \   00029C   E0           MOVX    A,@DPTR
   \   00029D   4480         ORL     A,#0x80
   \   00029F   F5..         MOV     ?V0 + 1,A
   \   0002A1   78..         MOV     R0,#?V0 + 0
   \   0002A3   12....       LCALL   ?PUSH_XSTACK_I_TWO
   \   0002A6   A9..         MOV     R1,?V0 + 5
   \   0002A8   E5..         MOV     A,?V0 + 8
   \   0002AA   2402         ADD     A,#0x2
   \   0002AC   FC           MOV     R4,A
   \   0002AD   E5..         MOV     A,?V0 + 9
   \   0002AF   3400         ADDC    A,#0x0
   \   0002B1   FD           MOV     R5,A
   \   0002B2   E5..         MOV     A,?V0 + 8
   \   0002B4   240F         ADD     A,#0xf
   \   0002B6   FA           MOV     R2,A
   \   0002B7   E5..         MOV     A,?V0 + 9
   \   0002B9   3400         ADDC    A,#0x0
   \   0002BB   FB           MOV     R3,A
   \   0002BC   12....       LCALL   ??Subroutine118_0 & 0xFFFF
   \                     ??CrossCallReturnLabel_235:
   \   0002BF   12....       LCALL   ?DEALLOC_XSTACK8
    730              ZDP_TxOptions = AF_TX_OPTIONS_NONE;
   \   0002C2   90....       MOV     DPTR,#ZDP_TxOptions
   \   0002C5   E4           CLR     A
   \   0002C6   F0           MOVX    @DPTR,A
    731            }
    732          }
   \                     ??zdpProcessAddrReq_12:
   \   0002C7   740E         MOV     A,#0xe
   \   0002C9   80..         SJMP    ??Subroutine95_0

   \                                 In  segment BANKED_CODE, align 1, keep-with-next
   \                     ??Subroutine95_0:
   \   000000   12....       LCALL   ?DEALLOC_XSTACK8
   \   000003                REQUIRE ??Subroutine96_0
   \   000003                ; // Fall through to label ??Subroutine96_0

   \                                 In  segment BANKED_CODE, align 1, keep-with-next
   \                     ??Subroutine96_0:
   \   000000   7F0E         MOV     R7,#0xe
   \   000002   02....       LJMP    ?BANKED_LEAVE_XDATA

   \                                 In  segment BANKED_CODE, align 1, keep-with-next
   \                     ??Subroutine98_0:
   \   000000   E0           MOVX    A,@DPTR
   \   000001   FA           MOV     R2,A
   \   000002   A3           INC     DPTR
   \   000003   E0           MOVX    A,@DPTR
   \   000004   FB           MOV     R3,A
   \   000005   22           RET

   \                                 In  segment BANKED_CODE, align 1, keep-with-next
   \                     ?Subroutine47:
   \   000000   E0           MOVX    A,@DPTR
   \   000001   FC           MOV     R4,A
   \   000002   A3           INC     DPTR
   \   000003   E0           MOVX    A,@DPTR
   \   000004   FD           MOV     R5,A
   \   000005   22           RET

   \                                 In  segment BANKED_CODE, align 1, keep-with-next
   \                     ??Subroutine104_0:
   \   000000   12....       LCALL   ??Subroutine105_0 & 0xFFFF
   \                     ??CrossCallReturnLabel_170:
   \   000003   22           RET

   \                                 In  segment BANKED_CODE, align 1, keep-with-next
   \                     ?Subroutine37:
   \   000000   12....       LCALL   ?Subroutine79 & 0xFFFF
   \                     ??CrossCallReturnLabel_169:
   \   000003   22           RET

   \                                 In  segment BANKED_CODE, align 1, keep-with-next
   \                     ?Subroutine79:
   \   000000   E0           MOVX    A,@DPTR
   \   000001   8E82         MOV     DPL,R6
   \   000003   8F83         MOV     DPH,R7
   \   000005                REQUIRE ??Subroutine105_0
   \   000005                ; // Fall through to label ??Subroutine105_0

   \                                 In  segment BANKED_CODE, align 1, keep-with-next
   \                     ??Subroutine105_0:
   \   000000   F0           MOVX    @DPTR,A
   \   000001   A3           INC     DPTR
   \   000002   AE82         MOV     R6,DPL
   \   000004   AF83         MOV     R7,DPH
   \   000006   22           RET

   \                                 In  segment BANKED_CODE, align 1, keep-with-next
   \                     ?Subroutine13:
   \   000000   90....       MOV     DPTR,#ZDAppNwkAddr
   \   000003                REQUIRE ??Subroutine107_0
   \   000003                ; // Fall through to label ??Subroutine107_0

   \                                 In  segment BANKED_CODE, align 1, keep-with-next
   \                     ??Subroutine109_0:
   \   000000   A3           INC     DPTR
   \   000001                REQUIRE ??Subroutine110_0
   \   000001                ; // Fall through to label ??Subroutine110_0

   \                                 In  segment BANKED_CODE, align 1, keep-with-next
   \                     ??Subroutine110_0:
   \   000000   E0           MOVX    A,@DPTR
   \   000001   8E82         MOV     DPL,R6
   \   000003   8F83         MOV     DPH,R7
   \   000005   F0           MOVX    @DPTR,A
   \   000006   22           RET

   \                                 In  segment BANKED_CODE, align 1, keep-with-next
   \                     ?Subroutine23:
   \   000000   90....       MOV     DPTR,#ZDP_TmpBuf
   \   000003                REQUIRE ??Subroutine120_0
   \   000003                ; // Fall through to label ??Subroutine120_0

   \                                 In  segment BANKED_CODE, align 1, keep-with-next
   \                     ??Subroutine120_0:
   \   000000   E0           MOVX    A,@DPTR
   \   000001   FE           MOV     R6,A
   \   000002   A3           INC     DPTR
   \   000003   E0           MOVX    A,@DPTR
   \   000004   FF           MOV     R7,A
   \   000005   22           RET

   \                                 In  segment BANKED_CODE, align 1, keep-with-next
   \                     ?Subroutine60:
   \   000000   F0           MOVX    @DPTR,A
   \   000001   8882         MOV     DPL,R0
   \   000003   8983         MOV     DPH,R1
   \   000005   22           RET

   \                                 In  segment BANKED_CODE, align 1, keep-with-next
   \                     ??Subroutine121_0:
   \   000000   3400         ADDC    A,#0x0
   \   000002   F583         MOV     DPH,A
   \   000004   E0           MOVX    A,@DPTR
   \   000005   22           RET

   \                                 In  segment BANKED_CODE, align 1, keep-with-next
   \                     ??Subroutine125_0:
   \   000000   E8           MOV     A,R0
   \   000001   F0           MOVX    @DPTR,A
   \   000002   A3           INC     DPTR
   \   000003   E9           MOV     A,R1
   \   000004   F0           MOVX    @DPTR,A
   \   000005   22           RET
    733          
    734          /*********************************************************************
    735           * @fn          ZDP_NodeDescMsg
    736           *
    737           * @brief       Builds and sends a Node Descriptor message, unicast to the
    738           *              specified device.
    739           *
    740           * @param       inMsg - incoming message
    741           * @param       nwkAddr - 16 bit network address for device
    742           * @param       pNodeDesc - pointer to the node descriptor
    743           *
    744           * @return      afStatus_t
    745           */

   \                                 In  segment BANKED_CODE, align 1, keep-with-next
    746          afStatus_t ZDP_NodeDescMsg( zdoIncomingMsg_t *inMsg,
   \                     ZDP_NodeDescMsg:
    747                                     uint16 nwkAddr, NodeDescriptorFormat_t *pNodeDesc )
    748          {
   \   000000   74F6         MOV     A,#-0xa
   \   000002   12....       LCALL   ?BANKED_ENTER_XDATA
   \   000005                ; Saved register size: 10
   \   000005                ; Auto size: 0
   \   000005   740A         MOV     A,#0xa
   \   000007   12....       LCALL   ?XSTACK_DISP0_8
   \   00000A   12....       LCALL   ??Subroutine120_0 & 0xFFFF
    749            uint8 *pBuf = ZDP_TmpBuf;
   \                     ??CrossCallReturnLabel_253:
   \   00000D   12....       LCALL   ??Subroutine122_0 & 0xFFFF
    750            byte len;
    751          
    752            len = 1 + 2 + 13;  // Status + nwkAddr + Node descriptor
    753          
    754            *pBuf++ = ZDP_SUCCESS;
   \                     ??CrossCallReturnLabel_285:
   \   000010   8882         MOV     DPL,R0
   \   000012   8983         MOV     DPH,R1
   \   000014   12....       LCALL   ?Subroutine59 & 0xFFFF
    755          
    756            *pBuf++ = LO_UINT16( nwkAddr );
    757            *pBuf++ = HI_UINT16( nwkAddr );
   \                     ??CrossCallReturnLabel_80:
   \   000017   12....       LCALL   ??Subroutine103_0 & 0xFFFF
    758          
    759            *pBuf++ = (byte)((pNodeDesc->ComplexDescAvail << 3) |
    760                               (pNodeDesc->UserDescAvail << 4) |
    761                               (pNodeDesc->LogicalType & 0x07));
   \                     ??CrossCallReturnLabel_154:
   \   00001A   8E82         MOV     DPL,R6
   \   00001C   8F83         MOV     DPH,R7
   \   00001E   E0           MOVX    A,@DPTR
   \   00001F   541F         ANL     A,#0x1f
   \   000021   12....       LCALL   ?Subroutine77 & 0xFFFF
    762          
    763            *pBuf++ = (byte)((pNodeDesc->FrequencyBand << 3) | (pNodeDesc->APSFlags & 0x07));
   \                     ??CrossCallReturnLabel_107:
   \   000024   12....       LCALL   ?Subroutine25 & 0xFFFF
    764            *pBuf++ = pNodeDesc->CapabilityFlags;
   \                     ??CrossCallReturnLabel_21:
   \   000027   12....       LCALL   ?Subroutine25 & 0xFFFF
    765            *pBuf++ = pNodeDesc->ManufacturerCode[0];
   \                     ??CrossCallReturnLabel_22:
   \   00002A   A3           INC     DPTR
   \   00002B   12....       LCALL   ?Subroutine21 & 0xFFFF
    766            *pBuf++ = pNodeDesc->ManufacturerCode[1];
   \                     ??CrossCallReturnLabel_15:
   \   00002E   12....       LCALL   ?Subroutine21 & 0xFFFF
    767            *pBuf++ = pNodeDesc->MaxBufferSize;
   \                     ??CrossCallReturnLabel_16:
   \   000031   A3           INC     DPTR
   \   000032   12....       LCALL   ?Subroutine18 & 0xFFFF
    768            *pBuf++ = pNodeDesc->MaxInTransferSize[0];
   \                     ??CrossCallReturnLabel_8:
   \   000035   12....       LCALL   ?Subroutine18 & 0xFFFF
    769            *pBuf++ = pNodeDesc->MaxInTransferSize[1];
   \                     ??CrossCallReturnLabel_9:
   \   000038   12....       LCALL   ?Subroutine20 & 0xFFFF
    770          
    771            *pBuf++ = LO_UINT16( pNodeDesc->ServerMask );
   \                     ??CrossCallReturnLabel_129:
   \   00003B   2408         ADD     A,#0x8
   \   00003D   FC           MOV     R4,A
   \   00003E   EF           MOV     A,R7
   \   00003F   12....       LCALL   ?Subroutine15 & 0xFFFF
    772            *pBuf++ = HI_UINT16( pNodeDesc->ServerMask );
    773            *pBuf++ = pNodeDesc->MaxOutTransferSize[0];
   \                     ??CrossCallReturnLabel_4:
   \   000042   8E82         MOV     DPL,R6
   \   000044   8F83         MOV     DPH,R7
   \   000046   A3           INC     DPTR
   \   000047   A3           INC     DPTR
   \   000048   A3           INC     DPTR
   \   000049   A3           INC     DPTR
   \   00004A   A3           INC     DPTR
   \   00004B   A3           INC     DPTR
   \   00004C   A3           INC     DPTR
   \   00004D   A3           INC     DPTR
   \   00004E   A3           INC     DPTR
   \   00004F   12....       LCALL   ?Subroutine20 & 0xFFFF
    774            *pBuf++ = pNodeDesc->MaxOutTransferSize[1];
   \                     ??CrossCallReturnLabel_130:
   \   000052   240B         ADD     A,#0xb
   \   000054   12....       LCALL   ?Subroutine70 & 0xFFFF
   \                     ??CrossCallReturnLabel_291:
   \   000057   12....       LCALL   ??Subroutine97_0 & 0xFFFF
    775            *pBuf = pNodeDesc->DescriptorCapability;
   \                     ??CrossCallReturnLabel_131:
   \   00005A   240C         ADD     A,#0xc
   \   00005C   12....       LCALL   ?Subroutine70 & 0xFFFF
   \                     ??CrossCallReturnLabel_292:
   \   00005F   12....       LCALL   ?Subroutine46 & 0xFFFF
    776          
    777            return fillAndSend( &(inMsg->TransSeq), &(inMsg->srcAddr), Node_Desc_rsp, len );
   \                     ??CrossCallReturnLabel_55:
   \   000062                ; Setup parameters for call to function fillAndSend
   \   000062   75..02       MOV     ?V0 + 0,#0x2
   \   000065   75..80       MOV     ?V0 + 1,#-0x80
   \   000068   78..         MOV     R0,#?V0 + 0
   \   00006A   12....       LCALL   ?PUSH_XSTACK_I_TWO
   \   00006D   7910         MOV     R1,#0x10
   \   00006F   EA           MOV     A,R2
   \   000070   2402         ADD     A,#0x2
   \   000072   FC           MOV     R4,A
   \   000073   EB           MOV     A,R3
   \   000074   3400         ADDC    A,#0x0
   \   000076   FD           MOV     R5,A
   \   000077   EA           MOV     A,R2
   \   000078   240F         ADD     A,#0xf
   \   00007A   FA           MOV     R2,A
   \   00007B   EB           MOV     A,R3
   \   00007C                REQUIRE ?Subroutine9
   \   00007C                ; // Fall through to label ?Subroutine9
    778          }

   \                                 In  segment BANKED_CODE, align 1, keep-with-next
   \                     ?Subroutine9:
   \   000000   3400         ADDC    A,#0x0
   \   000002   FB           MOV     R3,A
   \   000003   02....       LJMP    ??Subroutine91_0 & 0xFFFF

   \                                 In  segment BANKED_CODE, align 1, keep-with-next
   \                     ?Subroutine25:
   \   000000   E0           MOVX    A,@DPTR
   \   000001   12....       LCALL   ?Subroutine77 & 0xFFFF
   \                     ??CrossCallReturnLabel_108:
   \   000004   A3           INC     DPTR
   \   000005   22           RET

   \                                 In  segment BANKED_CODE, align 1, keep-with-next
   \                     ?Subroutine77:
   \   000000   12....       LCALL   ?Subroutine86 & 0xFFFF
   \                     ??CrossCallReturnLabel_114:
   \   000003   22           RET

   \                                 In  segment BANKED_CODE, align 1, keep-with-next
   \                     ?Subroutine86:
   \   000000   8882         MOV     DPL,R0
   \   000002   8983         MOV     DPH,R1
   \   000004   F0           MOVX    @DPTR,A
   \   000005   A3           INC     DPTR
   \   000006   08           INC     R0
   \   000007   A983         MOV     R1,DPH
   \   000009   8E82         MOV     DPL,R6
   \   00000B   8F83         MOV     DPH,R7
   \   00000D   A3           INC     DPTR
   \   00000E   22           RET

   \                                 In  segment BANKED_CODE, align 1, keep-with-next
   \                     ?Subroutine21:
   \   000000   12....       LCALL   ?Subroutine75 & 0xFFFF
   \                     ??CrossCallReturnLabel_105:
   \   000003   22           RET

   \                                 In  segment BANKED_CODE, align 1, keep-with-next
   \                     ?Subroutine75:
   \   000000   E0           MOVX    A,@DPTR
   \   000001   12....       LCALL   ?Subroutine86 & 0xFFFF
   \                     ??CrossCallReturnLabel_115:
   \   000004   A3           INC     DPTR
   \   000005   A3           INC     DPTR
   \   000006   A3           INC     DPTR
   \   000007   22           RET

   \                                 In  segment BANKED_CODE, align 1, keep-with-next
   \                     ?Subroutine20:
   \   000000   A3           INC     DPTR
   \   000001                REQUIRE ??Subroutine97_0
   \   000001                ; // Fall through to label ??Subroutine97_0

   \                                 In  segment BANKED_CODE, align 1, keep-with-next
   \                     ??Subroutine97_0:
   \   000000   12....       LCALL   ??Subroutine115_0 & 0xFFFF
   \                     ??CrossCallReturnLabel_217:
   \   000003   EE           MOV     A,R6
   \   000004   22           RET

   \                                 In  segment BANKED_CODE, align 1, keep-with-next
   \                     ?Subroutine18:
   \   000000   12....       LCALL   ?Subroutine75 & 0xFFFF
   \                     ??CrossCallReturnLabel_106:
   \   000003   A3           INC     DPTR
   \   000004   A3           INC     DPTR
   \   000005   22           RET

   \                                 In  segment BANKED_CODE, align 1, keep-with-next
   \                     ?Subroutine59:
   \   000000   E4           CLR     A
   \   000001   F0           MOVX    @DPTR,A
   \   000002   A3           INC     DPTR
   \   000003   EC           MOV     A,R4
   \   000004   F0           MOVX    @DPTR,A
   \   000005   A3           INC     DPTR
   \   000006   ED           MOV     A,R5
   \   000007   22           RET

   \                                 In  segment BANKED_CODE, align 1, keep-with-next
   \                     ?Subroutine15:
   \   000000   3400         ADDC    A,#0x0
   \   000002   FD           MOV     R5,A
   \   000003   8C82         MOV     DPL,R4
   \   000005   8D83         MOV     DPH,R5
   \   000007   12....       LCALL   ??Subroutine115_0 & 0xFFFF
   \                     ??CrossCallReturnLabel_216:
   \   00000A   12....       LCALL   ?Subroutine78 & 0xFFFF
   \                     ??CrossCallReturnLabel_222:
   \   00000D   22           RET

   \                                 In  segment BANKED_CODE, align 1, keep-with-next
   \                     ?Subroutine70:
   \   000000   F582         MOV     DPL,A
   \   000002   EF           MOV     A,R7
   \   000003                REQUIRE ??Subroutine124_0
   \   000003                ; // Fall through to label ??Subroutine124_0

   \                                 In  segment BANKED_CODE, align 1, keep-with-next
   \                     ??Subroutine124_0:
   \   000000   3400         ADDC    A,#0x0
   \   000002   F583         MOV     DPH,A
   \   000004   22           RET
    779          
    780          /*********************************************************************
    781           * @fn          ZDP_PowerDescMsg
    782           *
    783           * @brief       Builds and sends a Power Descriptor message, unicast to the
    784           *              specified device.
    785           *
    786           * @param       inMsg - incoming message (request)
    787           * @param       nwkAddr - 16 bit network address for device
    788           * @param       pPowerDesc - pointer to the node descriptor
    789           *
    790           * @return      afStatus_t
    791           */

   \                                 In  segment BANKED_CODE, align 1, keep-with-next
    792          afStatus_t ZDP_PowerDescMsg( zdoIncomingMsg_t *inMsg,
   \                     ZDP_PowerDescMsg:
    793                               uint16 nwkAddr, NodePowerDescriptorFormat_t *pPowerDesc )
    794          {
   \   000000   74F6         MOV     A,#-0xa
   \   000002   12....       LCALL   ?BANKED_ENTER_XDATA
   \   000005                ; Saved register size: 10
   \   000005                ; Auto size: 0
   \   000005   EA           MOV     A,R2
   \   000006   FE           MOV     R6,A
   \   000007   EB           MOV     A,R3
   \   000008   FF           MOV     R7,A
   \   000009   740A         MOV     A,#0xa
   \   00000B   12....       LCALL   ?XSTACK_DISP0_8
   \   00000E   12....       LCALL   ??Subroutine123_0 & 0xFFFF
    795            uint8 *pBuf = ZDP_TmpBuf;
   \                     ??CrossCallReturnLabel_273:
   \   000011   12....       LCALL   ?Subroutine43 & 0xFFFF
    796            byte len = 1 + 2 + 2;  // Status + nwkAddr + Node Power descriptor.
    797          
    798            *pBuf++ = ZDP_SUCCESS;
   \                     ??CrossCallReturnLabel_135:
   \   000014   8A82         MOV     DPL,R2
   \   000016   8B83         MOV     DPH,R3
   \   000018   12....       LCALL   ?Subroutine59 & 0xFFFF
    799          
    800            *pBuf++ = LO_UINT16( nwkAddr );
    801            *pBuf++ = HI_UINT16( nwkAddr );
   \                     ??CrossCallReturnLabel_81:
   \   00001B   12....       LCALL   ?Subroutine51 & 0xFFFF
    802          
    803            *pBuf++ = (byte)((pPowerDesc->AvailablePowerSources << 4)
    804                              | (pPowerDesc->PowerMode & 0x0F));
   \                     ??CrossCallReturnLabel_65:
   \   00001E   12....       LCALL   ?Subroutine28 & 0xFFFF
    805            *pBuf++ = (byte)((pPowerDesc->CurrentPowerSourceLevel << 4)
    806                              | (pPowerDesc->CurrentPowerSource & 0x0F));
   \                     ??CrossCallReturnLabel_27:
   \   000021   12....       LCALL   ??Subroutine112_0 & 0xFFFF
   \                     ??CrossCallReturnLabel_200:
   \   000024   540F         ANL     A,#0xf
   \   000026   F9           MOV     R1,A
   \   000027   740C         MOV     A,#0xc
   \   000029   78..         MOV     R0,#?V0 + 0
   \   00002B   12....       LCALL   ?US_SHR
   \   00002E   E5..         MOV     A,?V0 + 0
   \   000030   C4           SWAP    A
   \   000031   49           ORL     A,R1
   \   000032   8A82         MOV     DPL,R2
   \   000034   8B83         MOV     DPH,R3
   \   000036   F0           MOVX    @DPTR,A
    807          
    808            return fillAndSend( &(inMsg->TransSeq), &(inMsg->srcAddr), Power_Desc_rsp, len );
   \   000037                ; Setup parameters for call to function fillAndSend
   \   000037   75..03       MOV     ?V0 + 0,#0x3
   \   00003A   75..80       MOV     ?V0 + 1,#-0x80
   \   00003D   78..         MOV     R0,#?V0 + 0
   \   00003F   12....       LCALL   ?PUSH_XSTACK_I_TWO
   \   000042   7905         MOV     R1,#0x5
   \   000044   EE           MOV     A,R6
   \   000045   2402         ADD     A,#0x2
   \   000047   FC           MOV     R4,A
   \   000048   EF           MOV     A,R7
   \   000049   3400         ADDC    A,#0x0
   \   00004B   FD           MOV     R5,A
   \   00004C   EE           MOV     A,R6
   \   00004D   240F         ADD     A,#0xf
   \   00004F   FA           MOV     R2,A
   \   000050   EF           MOV     A,R7
   \   000051   02....       LJMP    ?Subroutine9 & 0xFFFF
    809          }

   \                                 In  segment BANKED_CODE, align 1, keep-with-next
   \                     ?Subroutine43:
   \   000000   90....       MOV     DPTR,#ZDP_TmpBuf
   \   000003                REQUIRE ??Subroutine98_0
   \   000003                ; // Fall through to label ??Subroutine98_0

   \                                 In  segment BANKED_CODE, align 1, keep-with-next
   \                     ?Subroutine51:
   \   000000   F0           MOVX    @DPTR,A
   \   000001   A3           INC     DPTR
   \   000002   AA82         MOV     R2,DPL
   \   000004   AB83         MOV     R3,DPH
   \   000006   22           RET

   \                                 In  segment BANKED_CODE, align 1, keep-with-next
   \                     ?Subroutine80:
   \   000000   12....       LCALL   ?Subroutine88 & 0xFFFF
   \                     ??CrossCallReturnLabel_117:
   \   000003   AB83         MOV     R3,DPH
   \   000005   22           RET

   \                                 In  segment BANKED_CODE, align 1, keep-with-next
   \                     ?Subroutine88:
   \   000000   E0           MOVX    A,@DPTR
   \   000001   8A82         MOV     DPL,R2
   \   000003   8B83         MOV     DPH,R3
   \   000005   F0           MOVX    @DPTR,A
   \   000006   A3           INC     DPTR
   \   000007   0A           INC     R2
   \   000008   22           RET

   \                                 In  segment BANKED_CODE, align 1, keep-with-next
   \                     ?Subroutine28:
   \   000000   8882         MOV     DPL,R0
   \   000002   8983         MOV     DPH,R1
   \   000004   12....       LCALL   ?Subroutine80 & 0xFFFF
   \                     ??CrossCallReturnLabel_109:
   \   000007   8882         MOV     DPL,R0
   \   000009   8983         MOV     DPH,R1
   \   00000B   22           RET
    810          
    811          /*********************************************************************
    812           * @fn          ZDP_SimpleDescMsg
    813           *
    814           * @brief       Builds and sends a Simple Descriptor message, unicast to the
    815           *              specified device.
    816           *
    817           * @param       inMsg - incoming message (request)
    818           * @param       Status - message status (ZDP_SUCCESS or other)
    819           * @param       pSimpleDesc - pointer to the node descriptor
    820           *
    821           * @return      afStatus_t
    822           */

   \                                 In  segment BANKED_CODE, align 1, keep-with-next
    823          afStatus_t ZDP_SimpleDescMsg( zdoIncomingMsg_t *inMsg, byte Status,
   \                     ZDP_SimpleDescMsg:
    824                                        SimpleDescriptionFormat_t *pSimpleDesc )
    825          {
   \   000000   74EC         MOV     A,#-0x14
   \   000002   12....       LCALL   ?BANKED_ENTER_XDATA
   \   000005                ; Saved register size: 20
   \   000005                ; Auto size: 0
   \   000005   8A..         MOV     ?V0 + 0,R2
   \   000007   8B..         MOV     ?V0 + 1,R3
   \   000009   12....       LCALL   ?Subroutine44 & 0xFFFF
    826            uint8 *pBuf = ZDP_TmpBuf;
    827            uint8 i, len;
    828          
    829            if ( Status == ZDP_SUCCESS && pSimpleDesc )
   \                     ??CrossCallReturnLabel_269:
   \   00000C   EC           MOV     A,R4
   \   00000D   2409         ADD     A,#0x9
   \   00000F   FA           MOV     R2,A
   \   000010   ED           MOV     A,R5
   \   000011   3400         ADDC    A,#0x0
   \   000013   FB           MOV     R3,A
   \   000014   8A..         MOV     ?V0 + 4,R2
   \   000016   8B..         MOV     ?V0 + 5,R3
   \   000018   EC           MOV     A,R4
   \   000019   2406         ADD     A,#0x6
   \   00001B   1A           DEC     R2
   \   00001C   1A           DEC     R2
   \   00001D   1A           DEC     R2
   \   00001E   ED           MOV     A,R5
   \   00001F   3400         ADDC    A,#0x0
   \   000021   FB           MOV     R3,A
   \   000022   8A..         MOV     ?V0 + 6,R2
   \   000024   8B..         MOV     ?V0 + 7,R3
   \   000026   EE           MOV     A,R6
   \   000027   7029         JNZ     ??ZDP_SimpleDescMsg_0
   \   000029   EC           MOV     A,R4
   \   00002A   4D           ORL     A,R5
   \   00002B   6025         JZ      ??ZDP_SimpleDescMsg_0
    830            {
    831              // Status + NWKAddrOfInterest + desc length + empty simple descriptor.
    832              len = 1 + 2 + 1 + 8;
    833              len += (pSimpleDesc->AppNumInClusters + pSimpleDesc->AppNumOutClusters) * sizeof ( uint16 );
   \   00002D   85..82       MOV     DPL,?V0 + 4
   \   000030   85..83       MOV     DPH,?V0 + 5
   \   000033   C082         PUSH    DPL
   \   000035   C083         PUSH    DPH
   \   000037   8A82         MOV     DPL,R2
   \   000039   8B83         MOV     DPH,R3
   \   00003B   E0           MOVX    A,@DPTR
   \   00003C   D083         POP     DPH
   \   00003E   D082         POP     DPL
   \   000040   FA           MOV     R2,A
   \   000041   E0           MOVX    A,@DPTR
   \   000042   2A           ADD     A,R2
   \   000043   C3           CLR     C
   \   000044   33           RLC     A
   \   000045   240C         ADD     A,#0xc
   \   000047   FA           MOV     R2,A
    834            }
    835            else
    836            {
    837              len = 1 + 2 + 1; // Status + desc length
    838            }
    839            if ( len >= ZDP_BUF_SZ-1 )
   \   000048   C3           CLR     C
   \   000049   944F         SUBB    A,#0x4f
   \   00004B   4007         JC      ??ZDP_SimpleDescMsg_1
    840            {
    841              return afStatus_MEM_FAIL;
   \   00004D   7910         MOV     R1,#0x10
   \   00004F   02....       LJMP    ??ZDP_SimpleDescMsg_2 & 0xFFFF
    842            }
   \                     ??ZDP_SimpleDescMsg_0:
   \   000052   7A04         MOV     R2,#0x4
    843          
    844            *pBuf++ = Status;
   \                     ??ZDP_SimpleDescMsg_1:
   \   000054   EE           MOV     A,R6
   \   000055   12....       LCALL   ?Subroutine50 & 0xFFFF
    845          
    846            *pBuf++ = LO_UINT16( ZDAppNwkAddr.addr.shortAddr );
   \                     ??CrossCallReturnLabel_158:
   \   000058   90....       MOV     DPTR,#ZDAppNwkAddr
   \   00005B   12....       LCALL   ??Subroutine113_0 & 0xFFFF
    847            *pBuf++ = HI_UINT16( ZDAppNwkAddr.addr.shortAddr );
   \                     ??CrossCallReturnLabel_209:
   \   00005E   90....       MOV     DPTR,#ZDAppNwkAddr + 1
   \   000061   12....       LCALL   ?Subroutine46 & 0xFFFF
   \                     ??CrossCallReturnLabel_56:
   \   000064   A3           INC     DPTR
    848          
    849            if ( len > 4 )
   \   000065   EA           MOV     A,R2
   \   000066   C3           CLR     C
   \   000067   9405         SUBB    A,#0x5
   \   000069   5003         JNC     $+5
   \   00006B   02....       LJMP    ??ZDP_SimpleDescMsg_3 & 0xFFFF
    850            {
    851              *pBuf++ = len - 4;   // Simple descriptor length
   \   00006E   74FC         MOV     A,#-0x4
   \   000070   2A           ADD     A,R2
   \   000071   F0           MOVX    @DPTR,A
   \   000072   A3           INC     DPTR
   \   000073   08           INC     R0
   \   000074   08           INC     R0
   \   000075   A983         MOV     R1,DPH
    852          
    853              *pBuf++ = pSimpleDesc->EndPoint;
   \   000077   8C82         MOV     DPL,R4
   \   000079   8D83         MOV     DPH,R5
   \   00007B   12....       LCALL   ??Subroutine113_0 & 0xFFFF
    854              *pBuf++ = LO_UINT16( pSimpleDesc->AppProfId );
   \                     ??CrossCallReturnLabel_210:
   \   00007E   8C82         MOV     DPL,R4
   \   000080   8D83         MOV     DPH,R5
   \   000082   A3           INC     DPTR
   \   000083   8582..       MOV     ?V0 + 2,DPL
   \   000086   8583..       MOV     ?V0 + 3,DPH
   \   000089   12....       LCALL   ?Subroutine14 & 0xFFFF
    855              *pBuf++ = HI_UINT16( pSimpleDesc->AppProfId );
    856              *pBuf++ = LO_UINT16( pSimpleDesc->AppDeviceId );
   \                     ??CrossCallReturnLabel_2:
   \   00008C   EC           MOV     A,R4
   \   00008D   2403         ADD     A,#0x3
   \   00008F   F5..         MOV     ?V0 + 2,A
   \   000091   ED           MOV     A,R5
   \   000092   3400         ADDC    A,#0x0
   \   000094   F5..         MOV     ?V0 + 3,A
   \   000096   85..82       MOV     DPL,?V0 + 2
   \   000099   F583         MOV     DPH,A
   \   00009B   12....       LCALL   ?Subroutine14 & 0xFFFF
    857              *pBuf++ = HI_UINT16( pSimpleDesc->AppDeviceId );
    858          
    859              *pBuf++ = (byte)(pSimpleDesc->AppDevVer << 4);
   \                     ??CrossCallReturnLabel_3:
   \   00009E   8C82         MOV     DPL,R4
   \   0000A0   8D83         MOV     DPH,R5
   \   0000A2   A3           INC     DPTR
   \   0000A3   A3           INC     DPTR
   \   0000A4   A3           INC     DPTR
   \   0000A5   A3           INC     DPTR
   \   0000A6   A3           INC     DPTR
   \   0000A7   E0           MOVX    A,@DPTR
   \   0000A8   C4           SWAP    A
   \   0000A9   54F0         ANL     A,#0xf0
   \   0000AB   12....       LCALL   ??Subroutine116_0 & 0xFFFF
    860          
    861              *pBuf++ = pSimpleDesc->AppNumInClusters;
   \                     ??CrossCallReturnLabel_214:
   \   0000AE   85..82       MOV     DPL,?V0 + 6
   \   0000B1   8B83         MOV     DPH,R3
   \   0000B3   12....       LCALL   ??Subroutine113_0 & 0xFFFF
    862              if ( pSimpleDesc->AppNumInClusters )
   \                     ??CrossCallReturnLabel_211:
   \   0000B6   85..82       MOV     DPL,?V0 + 6
   \   0000B9   8B83         MOV     DPH,R3
   \   0000BB   E0           MOVX    A,@DPTR
   \   0000BC   6033         JZ      ??ZDP_SimpleDescMsg_4
    863              {
    864                for (i=0; i<pSimpleDesc->AppNumInClusters; ++i)
   \   0000BE   7B00         MOV     R3,#0x0
   \   0000C0   EC           MOV     A,R4
   \   0000C1   2407         ADD     A,#0x7
   \   0000C3   F5..         MOV     ?V0 + 2,A
   \   0000C5   ED           MOV     A,R5
   \   0000C6   3400         ADDC    A,#0x0
   \   0000C8   85....       MOV     ?V0 + 8,?V0 + 2
   \   0000CB   F5..         MOV     ?V0 + 9,A
   \   0000CD   8015         SJMP    ??CrossCallReturnLabel_37
    865                {
    866                  *pBuf++ = LO_UINT16( pSimpleDesc->pAppInClusterList[i] );
   \                     ??ZDP_SimpleDescMsg_5:
   \   0000CF   EB           MOV     A,R3
   \   0000D0   C3           CLR     C
   \   0000D1   33           RLC     A
   \   0000D2   F5..         MOV     ?V0 + 2,A
   \   0000D4   E4           CLR     A
   \   0000D5   33           RLC     A
   \   0000D6   F5..         MOV     ?V0 + 3,A
   \   0000D8   12....       LCALL   ?Subroutine33 & 0xFFFF
   \                     ??CrossCallReturnLabel_35:
   \   0000DB   12....       LCALL   ?Subroutine36 & 0xFFFF
    867                  *pBuf++ = HI_UINT16( pSimpleDesc->pAppInClusterList[i] );
   \                     ??CrossCallReturnLabel_39:
   \   0000DE   12....       LCALL   ?Subroutine33 & 0xFFFF
    868                }
   \                     ??CrossCallReturnLabel_36:
   \   0000E1   12....       LCALL   ?Subroutine34 & 0xFFFF
   \                     ??CrossCallReturnLabel_37:
   \   0000E4   85..82       MOV     DPL,?V0 + 6
   \   0000E7   85..83       MOV     DPH,?V0 + 7
   \   0000EA   E0           MOVX    A,@DPTR
   \   0000EB   FF           MOV     R7,A
   \   0000EC   EB           MOV     A,R3
   \   0000ED   C3           CLR     C
   \   0000EE   9F           SUBB    A,R7
   \   0000EF   40DE         JC      ??ZDP_SimpleDescMsg_5
    869              }
    870          
    871              *pBuf++ = pSimpleDesc->AppNumOutClusters;
   \                     ??ZDP_SimpleDescMsg_4:
   \   0000F1   85..82       MOV     DPL,?V0 + 4
   \   0000F4   85..83       MOV     DPH,?V0 + 5
   \   0000F7   12....       LCALL   ?Subroutine36 & 0xFFFF
    872              if ( pSimpleDesc->AppNumOutClusters )
   \                     ??CrossCallReturnLabel_40:
   \   0000FA   85..82       MOV     DPL,?V0 + 4
   \   0000FD   85..83       MOV     DPH,?V0 + 5
   \   000100   E0           MOVX    A,@DPTR
   \   000101   6038         JZ      ??ZDP_SimpleDescMsg_6
    873              {
    874                for (i=0; i<pSimpleDesc->AppNumOutClusters; ++i)
   \   000103   7B00         MOV     R3,#0x0
   \   000105   EC           MOV     A,R4
   \   000106   240A         ADD     A,#0xa
   \   000108   FC           MOV     R4,A
   \   000109   ED           MOV     A,R5
   \   00010A   3400         ADDC    A,#0x0
   \   00010C   FD           MOV     R5,A
   \   00010D   8C..         MOV     ?V0 + 2,R4
   \   00010F   8D..         MOV     ?V0 + 3,R5
   \                     ??ZDP_SimpleDescMsg_7:
   \   000111   85..82       MOV     DPL,?V0 + 4
   \   000114   85..83       MOV     DPH,?V0 + 5
   \   000117   E0           MOVX    A,@DPTR
   \   000118   FC           MOV     R4,A
   \   000119   EB           MOV     A,R3
   \   00011A   C3           CLR     C
   \   00011B   9C           SUBB    A,R4
   \   00011C   501D         JNC     ??ZDP_SimpleDescMsg_6
    875                {
    876                  *pBuf++ = LO_UINT16( pSimpleDesc->pAppOutClusterList[i] );
   \   00011E   EB           MOV     A,R3
   \   00011F   C3           CLR     C
   \   000120   33           RLC     A
   \   000121   FC           MOV     R4,A
   \   000122   E4           CLR     A
   \   000123   33           RLC     A
   \   000124   FD           MOV     R5,A
   \   000125   85..82       MOV     DPL,?V0 + 2
   \   000128   85..83       MOV     DPH,?V0 + 3
   \   00012B   12....       LCALL   ?Subroutine45 & 0xFFFF
    877                  *pBuf++ = HI_UINT16( pSimpleDesc->pAppOutClusterList[i] );
    878                }
    879              }
    880            }
   \                     ??CrossCallReturnLabel_52:
   \   00012E   12....       LCALL   ?Subroutine22 & 0xFFFF
   \                     ??CrossCallReturnLabel_17:
   \   000131   12....       LCALL   ?Subroutine45 & 0xFFFF
   \                     ??CrossCallReturnLabel_53:
   \   000134   12....       LCALL   ?Subroutine34 & 0xFFFF
   \                     ??CrossCallReturnLabel_38:
   \   000137   80D8         SJMP    ??ZDP_SimpleDescMsg_7
    881          
    882            else
    883            {
    884              *pBuf = 0; // Description Length = 0;
   \                     ??ZDP_SimpleDescMsg_3:
   \   000139   E4           CLR     A
   \   00013A   F0           MOVX    @DPTR,A
    885            }
    886          
    887            return fillAndSend( &(inMsg->TransSeq), &(inMsg->srcAddr), Simple_Desc_rsp, len );
   \                     ??ZDP_SimpleDescMsg_6:
   \   00013B                ; Setup parameters for call to function fillAndSend
   \   00013B   75..04       MOV     ?V0 + 2,#0x4
   \   00013E   75..80       MOV     ?V0 + 3,#-0x80
   \   000141   78..         MOV     R0,#?V0 + 2
   \   000143   12....       LCALL   ?PUSH_XSTACK_I_TWO
   \   000146   EA           MOV     A,R2
   \   000147   F9           MOV     R1,A
   \   000148   E5..         MOV     A,?V0 + 0
   \   00014A   2402         ADD     A,#0x2
   \   00014C   FC           MOV     R4,A
   \   00014D   E5..         MOV     A,?V0 + 1
   \   00014F   3400         ADDC    A,#0x0
   \   000151   FD           MOV     R5,A
   \   000152   E5..         MOV     A,?V0 + 0
   \   000154   240F         ADD     A,#0xf
   \   000156   FA           MOV     R2,A
   \   000157   E5..         MOV     A,?V0 + 1
   \   000159   3400         ADDC    A,#0x0
   \   00015B   FB           MOV     R3,A
   \   00015C   12....       LCALL   ??Subroutine118_0 & 0xFFFF
   \                     ??CrossCallReturnLabel_236:
   \   00015F   12....       LCALL   ?DEALLOC_XSTACK8
   \                     ??ZDP_SimpleDescMsg_2:
   \   000162                REQUIRE ?Subroutine5
   \   000162                ; // Fall through to label ?Subroutine5
    888          }

   \                                 In  segment BANKED_CODE, align 1, keep-with-next
   \                     ?Subroutine5:
   \   000000   7F0C         MOV     R7,#0xc
   \   000002   02....       LJMP    ?BANKED_LEAVE_XDATA

   \                                 In  segment BANKED_CODE, align 1, keep-with-next
   \                     ?Subroutine45:
   \   000000   E0           MOVX    A,@DPTR
   \   000001   2C           ADD     A,R4
   \   000002   FF           MOV     R7,A
   \   000003   A3           INC     DPTR
   \   000004   E0           MOVX    A,@DPTR
   \   000005   3D           ADDC    A,R5
   \   000006   8F82         MOV     DPL,R7
   \   000008   F583         MOV     DPH,A
   \   00000A   22           RET

   \                                 In  segment BANKED_CODE, align 1, keep-with-next
   \                     ?Subroutine36:
   \   000000   12....       LCALL   ?Subroutine76 & 0xFFFF
   \                     ??CrossCallReturnLabel_161:
   \   000003   22           RET

   \                                 In  segment BANKED_CODE, align 1, keep-with-next
   \                     ?Subroutine34:
   \   000000   12....       LCALL   ??Subroutine114_0 & 0xFFFF
   \                     ??CrossCallReturnLabel_220:
   \   000003   0B           INC     R3
   \   000004   22           RET

   \                                 In  segment BANKED_CODE, align 1, keep-with-next
   \                     ?Subroutine33:
   \   000000   85..82       MOV     DPL,?V0 + 8
   \   000003   85..83       MOV     DPH,?V0 + 9
   \   000006   E0           MOVX    A,@DPTR
   \   000007   25..         ADD     A,?V0 + 2
   \   000009   FF           MOV     R7,A
   \   00000A   A3           INC     DPTR
   \   00000B   E0           MOVX    A,@DPTR
   \   00000C   35..         ADDC    A,?V0 + 3
   \   00000E   8F82         MOV     DPL,R7
   \   000010   F583         MOV     DPH,A
   \   000012   22           RET

   \                                 In  segment BANKED_CODE, align 1, keep-with-next
   \                     ?Subroutine14:
   \   000000   12....       LCALL   ??Subroutine115_0 & 0xFFFF
   \                     ??CrossCallReturnLabel_215:
   \   000003   85..82       MOV     DPL,?V0 + 2
   \   000006   85..83       MOV     DPH,?V0 + 3
   \   000009   12....       LCALL   ??Subroutine114_0 & 0xFFFF
   \                     ??CrossCallReturnLabel_219:
   \   00000C   22           RET

   \                                 In  segment BANKED_CODE, align 1, keep-with-next
   \                     ??Subroutine113_0:
   \   000000   12....       LCALL   ??Subroutine115_0 & 0xFFFF
   \                     ??CrossCallReturnLabel_218:
   \   000003   22           RET

   \                                 In  segment BANKED_CODE, align 1, keep-with-next
   \                     ?Subroutine22:
   \   000000   12....       LCALL   ?Subroutine76 & 0xFFFF
   \                     ??CrossCallReturnLabel_160:
   \   000003   85..82       MOV     DPL,?V0 + 2
   \   000006   85..83       MOV     DPH,?V0 + 3
   \   000009   22           RET
    889          
    890          /*********************************************************************
    891           * @fn          ZDP_EPRsp
    892           *
    893           * @brief       This builds and send an endpoint list. Used in
    894           *              Active_EP_rsp and Match_Desc_Rsp
    895           *              message.  This function sends unicast message to the
    896           *              requesting device.
    897           *
    898           * @param       MsgType - either Active_EP_rsp or Match_Desc_Rsp
    899           * @param       dstAddr - destination address
    900           * @param       Status - message status (ZDP_SUCCESS or other)
    901           * @param       nwkAddr - Device's short address that this response describes
    902           * @param       Count - number of endpoint/interfaces in list
    903           * @param       pEPIntfList - Array of Endpoint/Interfaces
    904           * @param       SecurityEnable - Security Options
    905           *
    906           * @return      afStatus_t
    907           */

   \                                 In  segment BANKED_CODE, align 1, keep-with-next
    908          afStatus_t ZDP_EPRsp( uint16 MsgType, byte TransSeq, zAddrType_t *dstAddr,
   \                     ZDP_EPRsp:
    909                                  byte Status, uint16 nwkAddr, byte Count,
    910                                  uint8 *pEPList,
    911                                  byte SecurityEnable )
    912          {
   \   000000   74EE         MOV     A,#-0x12
   \   000002   12....       LCALL   ?BANKED_ENTER_XDATA
   \   000005                ; Saved register size: 18
   \   000005                ; Auto size: 1
   \   000005   74FF         MOV     A,#-0x1
   \   000007   12....       LCALL   ?ALLOC_XSTACK8
   \   00000A   E9           MOV     A,R1
   \   00000B   85..82       MOV     DPL,?XSP + 0
   \   00000E   85..83       MOV     DPH,?XSP + 1
   \   000011   F0           MOVX    @DPTR,A
   \   000012   EA           MOV     A,R2
   \   000013   FE           MOV     R6,A
   \   000014   EB           MOV     A,R3
   \   000015   FF           MOV     R7,A
   \   000016   8C..         MOV     ?V0 + 2,R4
   \   000018   8D..         MOV     ?V0 + 3,R5
   \   00001A   7413         MOV     A,#0x13
   \   00001C   12....       LCALL   ?XSTACK_DISP0_8
   \   00001F   E0           MOVX    A,@DPTR
   \   000020   FC           MOV     R4,A
   \   000021   7414         MOV     A,#0x14
   \   000023   12....       LCALL   ?XSTACK_DISP0_8
   \   000026   12....       LCALL   ??Subroutine123_0 & 0xFFFF
   \                     ??CrossCallReturnLabel_274:
   \   000029   7416         MOV     A,#0x16
   \   00002B   12....       LCALL   ?XSTACK_DISP0_8
   \   00002E   E0           MOVX    A,@DPTR
   \   00002F   F5..         MOV     ?V0 + 8,A
   \   000031   7417         MOV     A,#0x17
   \   000033   12....       LCALL   ?XSTACK_DISP0_8
   \   000036   12....       LCALL   ?Subroutine19 & 0xFFFF
    913            uint8 *pBuf = ZDP_TmpBuf;
   \                     ??CrossCallReturnLabel_12:
   \   000039   12....       LCALL   ?Subroutine43 & 0xFFFF
    914            byte len = 1 + 2 + 1;  // Status + nwkAddr + endpoint/interface count.
   \                     ??CrossCallReturnLabel_136:
   \   00003C   75..04       MOV     ?V0 + 0,#0x4
    915            byte txOptions;
    916          
    917            (void)SecurityEnable;  // Intentionally unreferenced parameter
    918          
    919            if ( MsgType == Match_Desc_rsp )
   \   00003F   7406         MOV     A,#0x6
   \   000041   6E           XRL     A,R6
   \   000042   7003         JNZ     ??ZDP_EPRsp_0
   \   000044   7480         MOV     A,#-0x80
   \   000046   6F           XRL     A,R7
   \                     ??ZDP_EPRsp_0:
   \   000047   7005         JNZ     ??ZDP_EPRsp_1
    920              txOptions = AF_MSG_ACK_REQUEST;
   \   000049   75..10       MOV     ?V0 + 1,#0x10
   \   00004C   8003         SJMP    ??ZDP_EPRsp_2
    921            else
    922              txOptions = 0;
   \                     ??ZDP_EPRsp_1:
   \   00004E   75..00       MOV     ?V0 + 1,#0x0
    923          
    924              *pBuf++ = Status;
   \                     ??ZDP_EPRsp_2:
   \   000051   EC           MOV     A,R4
   \   000052   8A82         MOV     DPL,R2
   \   000054   8B83         MOV     DPH,R3
   \   000056   12....       LCALL   ?Subroutine64 & 0xFFFF
    925            *pBuf++ = LO_UINT16( nwkAddr );
    926            *pBuf++ = HI_UINT16( nwkAddr );
   \                     ??CrossCallReturnLabel_295:
   \   000059   A3           INC     DPTR
    927          
    928            *pBuf++ = Count;   // Endpoint/Interface count
   \   00005A   E5..         MOV     A,?V0 + 8
   \   00005C   12....       LCALL   ?Subroutine51 & 0xFFFF
    929          
    930            if ( Count )
   \                     ??CrossCallReturnLabel_66:
   \   00005F   6016         JZ      ??ZDP_EPRsp_3
    931            {
    932              len += Count;
   \   000061   7404         MOV     A,#0x4
   \   000063   25..         ADD     A,?V0 + 8
   \   000065   F5..         MOV     ?V0 + 0,A
    933              osal_memcpy( pBuf, pEPList, Count );
   \   000067                ; Setup parameters for call to function osal_memcpy
   \   000067   75..00       MOV     ?V0 + 6,#0x0
   \   00006A   78..         MOV     R0,#?V0 + 4
   \   00006C   12....       LCALL   ?PUSH_XSTACK_I_THREE
   \   00006F   AC..         MOV     R4,?V0 + 8
   \   000071   12....       LCALL   ?Subroutine72 & 0xFFFF
    934            }
   \                     ??CrossCallReturnLabel_139:
   \   000074   12....       LCALL   ?DEALLOC_XSTACK8
    935          
    936            FillAndSendTxOptions( &TransSeq, dstAddr, MsgType, len, txOptions );
   \                     ??ZDP_EPRsp_3:
   \   000077   E5..         MOV     A,?V0 + 1
   \   000079   90....       MOV     DPTR,#ZDP_TxOptions
   \   00007C   F0           MOVX    @DPTR,A
   \   00007D                ; Setup parameters for call to function fillAndSend
   \   00007D   8E..         MOV     ?V0 + 4,R6
   \   00007F   8F..         MOV     ?V0 + 5,R7
   \   000081   78..         MOV     R0,#?V0 + 4
   \   000083   12....       LCALL   ?PUSH_XSTACK_I_TWO
   \   000086   A9..         MOV     R1,?V0 + 0
   \   000088   AC..         MOV     R4,?V0 + 2
   \   00008A   AD..         MOV     R5,?V0 + 3
   \   00008C   7402         MOV     A,#0x2
   \   00008E   12....       LCALL   ?XSTACK_DISP0_8
   \   000091   AA82         MOV     R2,DPL
   \   000093   AB83         MOV     R3,DPH
   \   000095   12....       LCALL   ??Subroutine118_0 & 0xFFFF
   \                     ??CrossCallReturnLabel_237:
   \   000098   12....       LCALL   ?DEALLOC_XSTACK8
   \   00009B   90....       MOV     DPTR,#ZDP_TxOptions
   \   00009E   E4           CLR     A
   \   00009F   F0           MOVX    @DPTR,A
   \   0000A0   04           INC     A
   \   0000A1   02....       LJMP    ?Subroutine3 & 0xFFFF
    937          }

   \                                 In  segment BANKED_CODE, align 1, keep-with-next
   \                     ?Subroutine72:
   \   000000   7D00         MOV     R5,#0x0
   \   000002                REQUIRE ??Subroutine100_0
   \   000002                ; // Fall through to label ??Subroutine100_0

   \                                 In  segment BANKED_CODE, align 1, keep-with-next
   \                     ?Subroutine3:
   \   000000   12....       LCALL   ?DEALLOC_XSTACK8
   \   000003                REQUIRE ??Subroutine102_0
   \   000003                ; // Fall through to label ??Subroutine102_0

   \                                 In  segment BANKED_CODE, align 1, keep-with-next
   \                     ?Subroutine64:
   \   000000   F0           MOVX    @DPTR,A
   \   000001   A3           INC     DPTR
   \   000002                REQUIRE ??Subroutine125_0
   \   000002                ; // Fall through to label ??Subroutine125_0
    938          
    939          /*********************************************************************
    940           * @fn          ZDP_UserDescRsp
    941           *
    942           * @brief       Build and send the User Decriptor Response.
    943           *
    944           *
    945           * @param       dstAddr - destination address
    946           * @param       nwkAddrOfInterest -
    947           * @param       userDesc -
    948           * @param       SecurityEnable - Security Options
    949           *
    950           * @return      ZStatus_t
    951           */

   \                                 In  segment BANKED_CODE, align 1, keep-with-next
    952          ZStatus_t ZDP_UserDescRsp( byte TransSeq, zAddrType_t *dstAddr,
   \                     ZDP_UserDescRsp:
    953                          uint16 nwkAddrOfInterest, UserDescriptorFormat_t *userDesc,
    954                          byte SecurityEnable )
    955          {
   \   000000   74EE         MOV     A,#-0x12
   \   000002   12....       LCALL   ?BANKED_ENTER_XDATA
   \   000005                ; Saved register size: 18
   \   000005                ; Auto size: 1
   \   000005   74FF         MOV     A,#-0x1
   \   000007   12....       LCALL   ?ALLOC_XSTACK8
   \   00000A   E9           MOV     A,R1
   \   00000B   85..82       MOV     DPL,?XSP + 0
   \   00000E   85..83       MOV     DPH,?XSP + 1
   \   000011   F0           MOVX    @DPTR,A
   \   000012   EA           MOV     A,R2
   \   000013   FE           MOV     R6,A
   \   000014   EB           MOV     A,R3
   \   000015   FF           MOV     R7,A
   \   000016   7413         MOV     A,#0x13
   \   000018   12....       LCALL   ?XSTACK_DISP0_8
   \   00001B   12....       LCALL   ??Subroutine123_0 & 0xFFFF
   \                     ??CrossCallReturnLabel_275:
   \   00001E   88..         MOV     ?V0 + 8,R0
   \   000020   89..         MOV     ?V0 + 9,R1
    956            uint8 *pBuf = ZDP_TmpBuf;
   \   000022   12....       LCALL   ?Subroutine10 & 0xFFFF
    957            byte len = 1 + 2 + 1;  // Status + nwkAddr + descriptor length.
    958          
    959            (void)SecurityEnable;  // Intentionally unreferenced parameter
    960          
    961            len += userDesc->len;
   \                     ??CrossCallReturnLabel_208:
   \   000025   8882         MOV     DPL,R0
   \   000027   8983         MOV     DPH,R1
   \   000029   E0           MOVX    A,@DPTR
   \   00002A   2404         ADD     A,#0x4
   \   00002C   F5..         MOV     ?V0 + 2,A
    962          
    963            *pBuf++ = ZSUCCESS;
   \   00002E   85..82       MOV     DPL,?V0 + 0
   \   000031   85..83       MOV     DPH,?V0 + 1
   \   000034   12....       LCALL   ?Subroutine59 & 0xFFFF
    964          
    965            *pBuf++ = LO_UINT16( nwkAddrOfInterest );
    966            *pBuf++ = HI_UINT16( nwkAddrOfInterest );
   \                     ??CrossCallReturnLabel_82:
   \   000037   12....       LCALL   ?Subroutine56 & 0xFFFF
    967          
    968            *pBuf++ = userDesc->len;
   \                     ??CrossCallReturnLabel_75:
   \   00003A   E0           MOVX    A,@DPTR
   \   00003B   85..82       MOV     DPL,?V0 + 0
   \   00003E   85..83       MOV     DPH,?V0 + 1
   \   000041   12....       LCALL   ?Subroutine56 & 0xFFFF
    969            osal_memcpy( pBuf, userDesc->desc, userDesc->len );
   \                     ??CrossCallReturnLabel_76:
   \   000044   A3           INC     DPTR
   \   000045   A982         MOV     R1,DPL
   \   000047   AA83         MOV     R2,DPH
   \   000049   89..         MOV     ?V0 + 4,R1
   \   00004B   8A..         MOV     ?V0 + 5,R2
   \   00004D   75..00       MOV     ?V0 + 6,#0x0
   \   000050   78..         MOV     R0,#?V0 + 4
   \   000052   12....       LCALL   ?PUSH_XSTACK_I_THREE
   \   000055   85..82       MOV     DPL,?V0 + 8
   \   000058   85..83       MOV     DPH,?V0 + 9
   \   00005B   E0           MOVX    A,@DPTR
   \   00005C   FC           MOV     R4,A
   \   00005D   7D00         MOV     R5,#0x0
   \   00005F   AA..         MOV     R2,?V0 + 0
   \   000061   AB..         MOV     R3,?V0 + 1
   \   000063   12....       LCALL   ??Subroutine100_0 & 0xFFFF
   \                     ??CrossCallReturnLabel_144:
   \   000066   12....       LCALL   ?DEALLOC_XSTACK8
    970          
    971            return (ZStatus_t)fillAndSend( &TransSeq, dstAddr, User_Desc_rsp, len );
   \   000069                ; Setup parameters for call to function fillAndSend
   \   000069   75..11       MOV     ?V0 + 0,#0x11
   \   00006C   75..80       MOV     ?V0 + 1,#-0x80
   \   00006F   78..         MOV     R0,#?V0 + 0
   \   000071   12....       LCALL   ?PUSH_XSTACK_I_TWO
   \   000074   A9..         MOV     R1,?V0 + 2
   \   000076   EE           MOV     A,R6
   \   000077   FC           MOV     R4,A
   \   000078   EF           MOV     A,R7
   \   000079   FD           MOV     R5,A
   \   00007A   7402         MOV     A,#0x2
   \   00007C   12....       LCALL   ?XSTACK_DISP0_8
   \   00007F   AA82         MOV     R2,DPL
   \   000081   AB83         MOV     R3,DPH
   \   000083   12....       LCALL   ??Subroutine118_0 & 0xFFFF
   \                     ??CrossCallReturnLabel_238:
   \   000086   12....       LCALL   ?DEALLOC_XSTACK8
   \   000089   7401         MOV     A,#0x1
   \   00008B   02....       LJMP    ?Subroutine3 & 0xFFFF
    972          }

   \                                 In  segment BANKED_CODE, align 1, keep-with-next
   \                     ?Subroutine56:
   \   000000   F0           MOVX    @DPTR,A
   \   000001   A3           INC     DPTR
   \   000002   8582..       MOV     ?V0 + 0,DPL
   \   000005   8583..       MOV     ?V0 + 1,DPH
   \   000008                ; Setup parameters for call to function osal_memcpy
   \   000008   8882         MOV     DPL,R0
   \   00000A   8983         MOV     DPH,R1
   \   00000C   22           RET
    973          
    974          /*********************************************************************
    975           * @fn          ZDP_ServerDiscRsp
    976           *
    977           * @brief       Build and send the Server_Discovery_rsp response.
    978           *
    979           * @param       transID - Transaction sequence number of request.
    980           * @param       dstAddr - Network Destination Address.
    981           * @param       status - Status of response to request.
    982           * @param       aoi - Network Address of Interest of request.
    983           * @param       serverMask - Bit map of service(s) being sought.
    984           * @param       SecurityEnable - Security Options
    985           *
    986           * @return      ZStatus_t
    987           */

   \                                 In  segment BANKED_CODE, align 1, keep-with-next
    988          ZStatus_t ZDP_ServerDiscRsp( byte transID, zAddrType_t *dstAddr, byte status,
   \                     ZDP_ServerDiscRsp:
    989                                     uint16 aoi, uint16 serverMask, byte SecurityEnable )
    990          {
   \   000000   74F6         MOV     A,#-0xa
   \   000002   12....       LCALL   ?BANKED_ENTER_XDATA
   \   000005                ; Saved register size: 10
   \   000005                ; Auto size: 1
   \   000005   74FF         MOV     A,#-0x1
   \   000007   12....       LCALL   ?ALLOC_XSTACK8
   \   00000A   E9           MOV     A,R1
   \   00000B   85..82       MOV     DPL,?XSP + 0
   \   00000E   85..83       MOV     DPH,?XSP + 1
   \   000011   F0           MOVX    @DPTR,A
   \   000012   EC           MOV     A,R4
   \   000013   FE           MOV     R6,A
   \   000014   740D         MOV     A,#0xd
   \   000016   12....       LCALL   ?XSTACK_DISP0_8
   \   000019   12....       LCALL   ??Subroutine123_0 & 0xFFFF
    991            const byte len = 1  + 2;  // status + aoi + mask.
    992            uint8 *pBuf = ZDP_TmpBuf;
   \                     ??CrossCallReturnLabel_276:
   \   00001C   90....       MOV     DPTR,#ZDP_TmpBuf
   \   00001F   12....       LCALL   ?Subroutine47 & 0xFFFF
   \                     ??CrossCallReturnLabel_58:
   \   000022   8C82         MOV     DPL,R4
   \   000024   8D83         MOV     DPH,R5
    993            ZStatus_t stat;
    994          
    995            // Intentionally unreferenced parameters
    996            (void)aoi;
    997            (void)SecurityEnable;
    998          
    999            *pBuf++ = status;
   \   000026   EE           MOV     A,R6
   \   000027   12....       LCALL   ?Subroutine64 & 0xFFFF
   1000          
   1001            *pBuf++ = LO_UINT16( serverMask );
   1002            *pBuf++ = HI_UINT16( serverMask );
   1003          
   1004            ZDP_TxOptions = AF_MSG_ACK_REQUEST;
   \                     ??CrossCallReturnLabel_296:
   \   00002A   90....       MOV     DPTR,#ZDP_TxOptions
   \   00002D   7410         MOV     A,#0x10
   \   00002F   F0           MOVX    @DPTR,A
   1005            stat = fillAndSend( &transID, dstAddr, Server_Discovery_rsp, len );
   \   000030                ; Setup parameters for call to function fillAndSend
   \   000030   75..15       MOV     ?V0 + 0,#0x15
   \   000033   75..80       MOV     ?V0 + 1,#-0x80
   \   000036   78..         MOV     R0,#?V0 + 0
   \   000038   12....       LCALL   ?PUSH_XSTACK_I_TWO
   \   00003B   7903         MOV     R1,#0x3
   \   00003D   EA           MOV     A,R2
   \   00003E   FC           MOV     R4,A
   \   00003F   EB           MOV     A,R3
   \   000040   FD           MOV     R5,A
   \   000041   7402         MOV     A,#0x2
   \   000043   12....       LCALL   ?XSTACK_DISP0_8
   \   000046   AA82         MOV     R2,DPL
   \   000048   AB83         MOV     R3,DPH
   \   00004A   12....       LCALL   ??Subroutine118_0 & 0xFFFF
   \                     ??CrossCallReturnLabel_239:
   \   00004D   12....       LCALL   ?DEALLOC_XSTACK8
   1006            ZDP_TxOptions = AF_TX_OPTIONS_NONE;
   \   000050   90....       MOV     DPTR,#ZDP_TxOptions
   \   000053   E4           CLR     A
   \   000054   F0           MOVX    @DPTR,A
   1007          
   1008            return ( stat );
   \   000055   04           INC     A
   \   000056   02....       LJMP    ??Subroutine92_0 & 0xFFFF
   1009          }
   1010          
   1011          /*********************************************************************
   1012           * @fn          ZDP_GenericRsp
   1013           *
   1014           * @brief       Sends a response message with only the parameter status
   1015           *              byte and the addr of interest for data.
   1016           *              This function sends unicast message to the
   1017           *              requesting device.
   1018           *
   1019           * @param       dstAddr - destination address
   1020           * @param       status  - generic status for response
   1021           * @param       aoi     - address of interest
   1022           * @param       dstAddr - destination address
   1023           * @param       rspId   - response cluster ID
   1024           * @param       SecurityEnable - Security Options
   1025           *
   1026           * @return      afStatus_t
   1027           */

   \                                 In  segment BANKED_CODE, align 1, keep-with-next
   1028          afStatus_t ZDP_GenericRsp( byte TransSeq, zAddrType_t *dstAddr,
   \                     ZDP_GenericRsp:
   1029                               byte status, uint16 aoi, uint16 rspID, byte SecurityEnable )
   1030          {
   \   000000   74F6         MOV     A,#-0xa
   \   000002   12....       LCALL   ?BANKED_ENTER_XDATA
   \   000005                ; Saved register size: 10
   \   000005                ; Auto size: 1
   \   000005   74FF         MOV     A,#-0x1
   \   000007   12....       LCALL   ?ALLOC_XSTACK8
   \   00000A   E9           MOV     A,R1
   \   00000B   85..82       MOV     DPL,?XSP + 0
   \   00000E   85..83       MOV     DPH,?XSP + 1
   \   000011   F0           MOVX    @DPTR,A
   \   000012   EC           MOV     A,R4
   \   000013   FE           MOV     R6,A
   \   000014   740B         MOV     A,#0xb
   \   000016   12....       LCALL   ?XSTACK_DISP0_8
   \   000019   12....       LCALL   ??Subroutine123_0 & 0xFFFF
   \                     ??CrossCallReturnLabel_277:
   \   00001C   740D         MOV     A,#0xd
   \   00001E   12....       LCALL   ?XSTACK_DISP0_8
   \   000021   12....       LCALL   ??Subroutine112_0 & 0xFFFF
   1031            uint8 len;
   1032          
   1033            (void)SecurityEnable;  // Intentionally unreferenced parameter
   1034          
   1035            ZDP_TmpBuf[0] = status;
   \                     ??CrossCallReturnLabel_201:
   \   000024   12....       LCALL   ?Subroutine49 & 0xFFFF
   \                     ??CrossCallReturnLabel_63:
   \   000027   EE           MOV     A,R6
   \   000028   F0           MOVX    @DPTR,A
   1036            ZDP_TmpBuf[1] = LO_UINT16( aoi );
   \   000029   12....       LCALL   ?Subroutine49 & 0xFFFF
   \                     ??CrossCallReturnLabel_64:
   \   00002C   A3           INC     DPTR
   \   00002D   E8           MOV     A,R0
   \   00002E   F0           MOVX    @DPTR,A
   1037            ZDP_TmpBuf[2] = HI_UINT16( aoi );
   \   00002F   12....       LCALL   ?Subroutine30 & 0xFFFF
   1038          
   1039            // Length byte
   1040            ZDP_TmpBuf[3] = 0;
   \                     ??CrossCallReturnLabel_34:
   \   000032   12....       LCALL   ??Subroutine94_0 & 0xFFFF
   \                     ??CrossCallReturnLabel_124:
   \   000035   A3           INC     DPTR
   \   000036   A3           INC     DPTR
   \   000037   E4           CLR     A
   \   000038   F0           MOVX    @DPTR,A
   1041            len = 4;
   1042          
   1043            return fillAndSend( &TransSeq, dstAddr, rspID, len );
   \   000039                ; Setup parameters for call to function fillAndSend
   \   000039   78..         MOV     R0,#?V0 + 0
   \   00003B   12....       LCALL   ?PUSH_XSTACK_I_TWO
   \   00003E   7904         MOV     R1,#0x4
   \   000040   EA           MOV     A,R2
   \   000041   FC           MOV     R4,A
   \   000042   EB           MOV     A,R3
   \   000043   FD           MOV     R5,A
   \   000044   7402         MOV     A,#0x2
   \   000046   12....       LCALL   ?XSTACK_DISP0_8
   \   000049   AA82         MOV     R2,DPL
   \   00004B   AB83         MOV     R3,DPH
   \   00004D   12....       LCALL   ??Subroutine118_0 & 0xFFFF
   \                     ??CrossCallReturnLabel_240:
   \   000050   12....       LCALL   ?DEALLOC_XSTACK8
   \   000053   7401         MOV     A,#0x1
   \   000055   02....       LJMP    ??Subroutine92_0 & 0xFFFF
   1044          }

   \                                 In  segment BANKED_CODE, align 1, keep-with-next
   \                     ?Subroutine49:
   \   000000   90....       MOV     DPTR,#ZDP_TmpBuf
   \   000003   E0           MOVX    A,@DPTR
   \   000004   FC           MOV     R4,A
   \   000005   A3           INC     DPTR
   \   000006   E0           MOVX    A,@DPTR
   \   000007   F583         MOV     DPH,A
   \   000009   8C82         MOV     DPL,R4
   \   00000B   22           RET
   1045          
   1046          /*********************************************************************
   1047           * Binding
   1048           */
   1049          /*********************************************************************
   1050           * @fn          ZDP_EndDeviceBindReq
   1051           *
   1052           * @brief       This builds and sends a End_Device_Bind_req message.
   1053           *              This function sends a unicast message.
   1054           *
   1055           * @param       dstAddr - destination address
   1056           * @param       LocalCoordinator - short address of local coordinator
   1057           * @param       epIntf - Endpoint/Interface of Simple Desc
   1058           * @param       ProfileID - Profile ID
   1059           *
   1060           *   The Input cluster list is the opposite of what you would think.
   1061           *   This is the output cluster list of this device
   1062           * @param       NumInClusters - number of input clusters
   1063           * @param       InClusterList - input cluster ID list
   1064           *
   1065           *   The Output cluster list is the opposite of what you would think.
   1066           *   This is the input cluster list of this device
   1067           * @param       NumOutClusters - number of output clusters
   1068           * @param       OutClusterList - output cluster ID list
   1069           *
   1070           * @param       SecurityEnable - Security Options
   1071           *
   1072           * @return      afStatus_t
   1073           */

   \                                 In  segment BANKED_CODE, align 1, keep-with-next
   1074          afStatus_t ZDP_EndDeviceBindReq( zAddrType_t *dstAddr,
   \                     ZDP_EndDeviceBindReq:
   1075                                           uint16 LocalCoordinator,
   1076                                           byte endPoint,
   1077                                           uint16 ProfileID,
   1078                                           byte NumInClusters, cId_t *InClusterList,
   1079                                           byte NumOutClusters, cId_t *OutClusterList,
   1080                                           byte SecurityEnable )
   1081          {
   \   000000   74E8         MOV     A,#-0x18
   \   000002   12....       LCALL   ?BANKED_ENTER_XDATA
   \   000005                ; Saved register size: 24
   \   000005                ; Auto size: 0
   \   000005   8A..         MOV     ?V0 + 14,R2
   \   000007   8B..         MOV     ?V0 + 15,R3
   \   000009   8C..         MOV     ?V0 + 4,R4
   \   00000B   8D..         MOV     ?V0 + 5,R5
   \   00000D   89..         MOV     ?V0 + 7,R1
   \   00000F   7418         MOV     A,#0x18
   \   000011   12....       LCALL   ?XSTACK_DISP0_8
   \   000014   12....       LCALL   ??Subroutine112_0 & 0xFFFF
   \                     ??CrossCallReturnLabel_202:
   \   000017   741A         MOV     A,#0x1a
   \   000019   12....       LCALL   ?XSTACK_DISP0_8
   \   00001C   E0           MOVX    A,@DPTR
   \   00001D   F5..         MOV     ?V0 + 2,A
   \   00001F   741B         MOV     A,#0x1b
   \   000021   12....       LCALL   ?XSTACK_DISP0_8
   \   000024   E0           MOVX    A,@DPTR
   \   000025   F5..         MOV     ?V0 + 12,A
   \   000027   A3           INC     DPTR
   \   000028   E0           MOVX    A,@DPTR
   \   000029   F5..         MOV     ?V0 + 13,A
   \   00002B   741D         MOV     A,#0x1d
   \   00002D   12....       LCALL   ?XSTACK_DISP0_8
   \   000030   E0           MOVX    A,@DPTR
   \   000031   F5..         MOV     ?V0 + 3,A
   \   000033   741E         MOV     A,#0x1e
   \   000035   12....       LCALL   ?XSTACK_DISP0_8
   \   000038   E0           MOVX    A,@DPTR
   \   000039   F5..         MOV     ?V0 + 10,A
   \   00003B   A3           INC     DPTR
   \   00003C   E0           MOVX    A,@DPTR
   \   00003D   F5..         MOV     ?V0 + 11,A
   1082            uint8 *pBuf = ZDP_TmpBuf;
   \   00003F   12....       LCALL   ?Subroutine23 & 0xFFFF
   1083            uint8 i, len;
   1084            uint8 *ieeeAddr;
   1085          
   1086            (void)SecurityEnable;  // Intentionally unreferenced parameter
   1087          
   1088            // LocalCoordinator + SrcExtAddr + ep + ProfileID +  NumInClusters + NumOutClusters.
   1089            len = 2 + Z_EXTADDR_LEN + 1 + 2 + 1 + 1;
   1090            len += (NumInClusters + NumOutClusters) * sizeof ( uint16 );
   \                     ??CrossCallReturnLabel_260:
   \   000042   E5..         MOV     A,?V0 + 2
   \   000044   25..         ADD     A,?V0 + 3
   \   000046   C3           CLR     C
   \   000047   33           RLC     A
   \   000048   240F         ADD     A,#0xf
   \   00004A   F5..         MOV     ?V0 + 6,A
   1091          
   1092            if ( len >= ZDP_BUF_SZ-1 )
   \   00004C   C3           CLR     C
   \   00004D   944F         SUBB    A,#0x4f
   \   00004F   4005         JC      ??ZDP_EndDeviceBindReq_0
   1093            {
   1094              return afStatus_MEM_FAIL;
   \   000051   7910         MOV     R1,#0x10
   \   000053   02....       LJMP    ??ZDP_EndDeviceBindReq_1 & 0xFFFF
   1095            }
   1096          
   1097            if ( LocalCoordinator != NLME_GetShortAddr() )
   \                     ??ZDP_EndDeviceBindReq_0:
   \   000056                ; Setup parameters for call to function NLME_GetShortAddr
   \   000056   12....       LCALL   ??NLME_GetShortAddr?relay
   \   000059   EA           MOV     A,R2
   \   00005A   65..         XRL     A,?V0 + 4
   \   00005C   7003         JNZ     ??ZDP_EndDeviceBindReq_2
   \   00005E   EB           MOV     A,R3
   \   00005F   65..         XRL     A,?V0 + 5
   \                     ??ZDP_EndDeviceBindReq_2:
   \   000061   6005         JZ      ??ZDP_EndDeviceBindReq_3
   1098            {
   1099              return afStatus_INVALID_PARAMETER;
   \   000063   7902         MOV     R1,#0x2
   \   000065   02....       LJMP    ??ZDP_EndDeviceBindReq_1 & 0xFFFF
   1100            }
   1101          
   1102            *pBuf++ = LO_UINT16( LocalCoordinator );
   \                     ??ZDP_EndDeviceBindReq_3:
   \   000068   8E82         MOV     DPL,R6
   \   00006A   8F83         MOV     DPH,R7
   \   00006C   12....       LCALL   ?Subroutine52 & 0xFFFF
   1103            *pBuf++ = HI_UINT16( LocalCoordinator );
   1104          
   1105            ieeeAddr = NLME_GetExtAddr();
   1106            pBuf = osal_cpyExtAddr( pBuf, ieeeAddr );
   \                     ??CrossCallReturnLabel_163:
   \   00006F                ; Setup parameters for call to function sAddrExtCpy
   \   00006F                ; Setup parameters for call to function NLME_GetExtAddr
   \   00006F   12....       LCALL   ??NLME_GetExtAddr?relay
   \   000072   EA           MOV     A,R2
   \   000073   FC           MOV     R4,A
   \   000074   EB           MOV     A,R3
   \   000075   FD           MOV     R5,A
   \   000076   EE           MOV     A,R6
   \   000077   FA           MOV     R2,A
   \   000078   EF           MOV     A,R7
   \   000079   FB           MOV     R3,A
   \   00007A   12....       LCALL   ??sAddrExtCpy?relay
   \   00007D   8A..         MOV     ?V0 + 4,R2
   \   00007F   8B..         MOV     ?V0 + 5,R3
   \   000081   AE..         MOV     R6,?V0 + 4
   \   000083   AF..         MOV     R7,?V0 + 5
   1107          
   1108            *pBuf++ = endPoint;
   \   000085   8E82         MOV     DPL,R6
   \   000087   8F83         MOV     DPH,R7
   \   000089   E5..         MOV     A,?V0 + 7
   \   00008B   12....       LCALL   ?Subroutine54 & 0xFFFF
   1109          
   1110            *pBuf++ = LO_UINT16( ProfileID );   // Profile ID
   1111            *pBuf++ = HI_UINT16( ProfileID );
   1112          
   1113            *pBuf++ = NumInClusters; // Input cluster list
   \                     ??CrossCallReturnLabel_73:
   \   00008E   12....       LCALL   ??Subroutine104_0 & 0xFFFF
   1114            for ( i = 0; i < NumInClusters; ++i )
   \                     ??CrossCallReturnLabel_166:
   \   000091   7C00         MOV     R4,#0x0
   \   000093   8022         SJMP    ??CrossCallReturnLabel_43
   1115            {
   1116              *pBuf++ = LO_UINT16(InClusterList[i]);
   \                     ??ZDP_EndDeviceBindReq_4:
   \   000095   EC           MOV     A,R4
   \   000096   C3           CLR     C
   \   000097   33           RLC     A
   \   000098   FA           MOV     R2,A
   \   000099   E4           CLR     A
   \   00009A   33           RLC     A
   \   00009B   FB           MOV     R3,A
   \   00009C   E5..         MOV     A,?V0 + 12
   \   00009E   2A           ADD     A,R2
   \   00009F   FA           MOV     R2,A
   \   0000A0   E5..         MOV     A,?V0 + 13
   \   0000A2   3B           ADDC    A,R3
   \   0000A3   FB           MOV     R3,A
   \   0000A4   8A82         MOV     DPL,R2
   \   0000A6   8B83         MOV     DPH,R3
   \   0000A8   12....       LCALL   ??Subroutine110_0 & 0xFFFF
   \                     ??CrossCallReturnLabel_187:
   \   0000AB   E8           MOV     A,R0
   \   0000AC   FE           MOV     R6,A
   \   0000AD   E9           MOV     A,R1
   \   0000AE   FF           MOV     R7,A
   1117              *pBuf++ = HI_UINT16(InClusterList[i]);
   \   0000AF   8A82         MOV     DPL,R2
   \   0000B1   8B83         MOV     DPH,R3
   \   0000B3   A3           INC     DPTR
   \   0000B4   12....       LCALL   ?Subroutine38 & 0xFFFF
   1118            }
   \                     ??CrossCallReturnLabel_43:
   \   0000B7   8E82         MOV     DPL,R6
   \   0000B9   8F83         MOV     DPH,R7
   \   0000BB   A3           INC     DPTR
   \   0000BC   A882         MOV     R0,DPL
   \   0000BE   A983         MOV     R1,DPH
   \   0000C0   EC           MOV     A,R4
   \   0000C1   C3           CLR     C
   \   0000C2   95..         SUBB    A,?V0 + 2
   \   0000C4   40CF         JC      ??ZDP_EndDeviceBindReq_4
   1119          
   1120            *pBuf++ = NumOutClusters; // Output cluster list
   \   0000C6   8E82         MOV     DPL,R6
   \   0000C8   8F83         MOV     DPH,R7
   \   0000CA   E5..         MOV     A,?V0 + 3
   \   0000CC   F0           MOVX    @DPTR,A
   \   0000CD   E8           MOV     A,R0
   \   0000CE   FE           MOV     R6,A
   \   0000CF   E9           MOV     A,R1
   \   0000D0   FF           MOV     R7,A
   1121            for ( i = 0; i < NumOutClusters; ++i )
   \   0000D1   7C00         MOV     R4,#0x0
   \   0000D3   8014         SJMP    ??CrossCallReturnLabel_44
   1122            {
   1123              *pBuf++ = LO_UINT16(OutClusterList[i]);
   \                     ??ZDP_EndDeviceBindReq_5:
   \   0000D5   EC           MOV     A,R4
   \   0000D6   C3           CLR     C
   \   0000D7   33           RLC     A
   \   0000D8   F8           MOV     R0,A
   \   0000D9   E4           CLR     A
   \   0000DA   33           RLC     A
   \   0000DB   F9           MOV     R1,A
   \   0000DC   E5..         MOV     A,?V0 + 10
   \   0000DE   28           ADD     A,R0
   \   0000DF   F8           MOV     R0,A
   \   0000E0   E5..         MOV     A,?V0 + 11
   \   0000E2   39           ADDC    A,R1
   \   0000E3   12....       LCALL   ?Subroutine26 & 0xFFFF
   1124              *pBuf++ = HI_UINT16(OutClusterList[i]);
   1125            }
   \                     ??CrossCallReturnLabel_23:
   \   0000E6   12....       LCALL   ?Subroutine38 & 0xFFFF
   \                     ??CrossCallReturnLabel_44:
   \   0000E9   EC           MOV     A,R4
   \   0000EA   C3           CLR     C
   \   0000EB   95..         SUBB    A,?V0 + 3
   \   0000ED   40E6         JC      ??ZDP_EndDeviceBindReq_5
   1126          
   1127            return fillAndSend( &ZDP_TransID, dstAddr, End_Device_Bind_req, len );
   \   0000EF                ; Setup parameters for call to function fillAndSend
   \   0000EF   75..20       MOV     ?V0 + 0,#0x20
   \   0000F2   75..00       MOV     ?V0 + 1,#0x0
   \   0000F5   78..         MOV     R0,#?V0 + 0
   \   0000F7   12....       LCALL   ?PUSH_XSTACK_I_TWO
   \   0000FA   A9..         MOV     R1,?V0 + 6
   \   0000FC   AC..         MOV     R4,?V0 + 14
   \   0000FE   AD..         MOV     R5,?V0 + 15
   \   000100   12....       LCALL   ??Subroutine117_0 & 0xFFFF
   \                     ??CrossCallReturnLabel_228:
   \   000103   12....       LCALL   ?DEALLOC_XSTACK8
   \                     ??ZDP_EndDeviceBindReq_1:
   \   000106                REQUIRE ?Subroutine6
   \   000106                ; // Fall through to label ?Subroutine6
   1128          }

   \                                 In  segment BANKED_CODE, align 1, keep-with-next
   \                     ?Subroutine6:
   \   000000   7F10         MOV     R7,#0x10
   \   000002   02....       LJMP    ?BANKED_LEAVE_XDATA

   \                                 In  segment BANKED_CODE, align 1, keep-with-next
   \                     ?Subroutine38:
   \   000000   12....       LCALL   ?Subroutine82 & 0xFFFF
   \                     ??CrossCallReturnLabel_196:
   \   000003   0C           INC     R4
   \   000004   22           RET

   \                                 In  segment BANKED_CODE, align 1, keep-with-next
   \                     ?Subroutine52:
   \   000000   E5..         MOV     A,?V0 + 4
   \   000002   F0           MOVX    @DPTR,A
   \   000003   A3           INC     DPTR
   \   000004   E5..         MOV     A,?V0 + 5
   \   000006                REQUIRE ??Subroutine104_0
   \   000006                ; // Fall through to label ??Subroutine104_0

   \                                 In  segment BANKED_CODE, align 1, keep-with-next
   \                     ?Subroutine26:
   \   000000   F9           MOV     R1,A
   \   000001   8882         MOV     DPL,R0
   \   000003   8983         MOV     DPH,R1
   \   000005   12....       LCALL   ?Subroutine79 & 0xFFFF
   \                     ??CrossCallReturnLabel_168:
   \   000008   8882         MOV     DPL,R0
   \   00000A   8983         MOV     DPH,R1
   \   00000C   A3           INC     DPTR
   \   00000D   22           RET

   \                                 In  segment BANKED_CODE, align 1, keep-with-next
   \                     ?Subroutine82:
   \   000000   E0           MOVX    A,@DPTR
   \   000001   8E82         MOV     DPL,R6
   \   000003   8F83         MOV     DPH,R7
   \   000005   F0           MOVX    @DPTR,A
   \   000006   A3           INC     DPTR
   \   000007   0E           INC     R6
   \   000008   AF83         MOV     R7,DPH
   \   00000A   22           RET

   \                                 In  segment BANKED_CODE, align 1, keep-with-next
   \                     ?Subroutine54:
   \   000000   F0           MOVX    @DPTR,A
   \   000001   A3           INC     DPTR
   \   000002   E5..         MOV     A,?V0 + 0
   \   000004   F0           MOVX    @DPTR,A
   \   000005   A3           INC     DPTR
   \   000006   E5..         MOV     A,?V0 + 1
   \   000008   F0           MOVX    @DPTR,A
   \   000009   A3           INC     DPTR
   \   00000A   E5..         MOV     A,?V0 + 2
   \   00000C   22           RET
   1129          
   1130          /*********************************************************************
   1131           * @fn          ZDP_BindUnbindReq
   1132           *
   1133           * @brief       This builds and send a Bind_req or Unbind_req message
   1134           *              Depending on the ClusterID. This function
   1135           *              sends a unicast message to the local coordinator.
   1136           *
   1137           * @param       BindOrUnbind - either Bind_req or Unbind_req
   1138           * @param       dstAddr - destination address of the message
   1139           * @param       SourceAddr - source 64 bit address of the binding
   1140           * @param       SrcEPIntf - Source endpoint/interface
   1141           * @param       ClusterID - Binding cluster ID
   1142           * @param       DestinationAddr - destination 64 bit addr of binding
   1143           * @param       DstEPIntf - destination endpoint/interface
   1144           * @param       SecurityEnable - Security Options
   1145           *
   1146           * @return      afStatus_t
   1147           */

   \                                 In  segment BANKED_CODE, align 1, keep-with-next
   1148          afStatus_t ZDP_BindUnbindReq( uint16 BindOrUnbind, zAddrType_t *dstAddr,
   \                     ZDP_BindUnbindReq:
   1149                                        uint8 *SourceAddr, byte SrcEndPoint,
   1150                                        cId_t ClusterID,
   1151                                        zAddrType_t *destinationAddr, byte DstEndPoint,
   1152                                        byte SecurityEnable )
   1153          {
   \   000000   74EA         MOV     A,#-0x16
   \   000002   12....       LCALL   ?BANKED_ENTER_XDATA
   \   000005                ; Saved register size: 22
   \   000005                ; Auto size: 0
   \   000005   8A..         MOV     ?V0 + 0,R2
   \   000007   8B..         MOV     ?V0 + 1,R3
   \   000009   8C..         MOV     ?V0 + 12,R4
   \   00000B   8D..         MOV     ?V0 + 13,R5
   \   00000D   89..         MOV     ?V0 + 8,R1
   \   00000F   7416         MOV     A,#0x16
   \   000011   12....       LCALL   ?XSTACK_DISP0_8
   \   000014   12....       LCALL   ?Subroutine47 & 0xFFFF
   \                     ??CrossCallReturnLabel_59:
   \   000017   7418         MOV     A,#0x18
   \   000019   12....       LCALL   ?XSTACK_DISP0_8
   \   00001C   12....       LCALL   ??Subroutine120_0 & 0xFFFF
   \                     ??CrossCallReturnLabel_254:
   \   00001F   741A         MOV     A,#0x1a
   \   000021   12....       LCALL   ?XSTACK_DISP0_8
   \   000024   12....       LCALL   ?Subroutine19 & 0xFFFF
   \                     ??CrossCallReturnLabel_13:
   \   000027   741C         MOV     A,#0x1c
   \   000029   12....       LCALL   ?XSTACK_DISP0_8
   \   00002C   E0           MOVX    A,@DPTR
   \   00002D   F5..         MOV     ?V0 + 3,A
   1154            uint8 *pBuf = ZDP_TmpBuf;
   \   00002F   12....       LCALL   ?Subroutine43 & 0xFFFF
   1155            byte len;
   1156          
   1157            (void)SecurityEnable;  // Intentionally unreferenced parameter
   1158          
   1159            // SourceAddr + SrcEPIntf + ClusterID +  addrMode.
   1160            len = Z_EXTADDR_LEN + 1 + sizeof( cId_t ) + sizeof( uint8 );
   \                     ??CrossCallReturnLabel_137:
   \   000032   75..0C       MOV     ?V0 + 2,#0xc
   1161            if ( destinationAddr->addrMode == Addr64Bit )
   \   000035   E5..         MOV     A,?V0 + 4
   \   000037   2408         ADD     A,#0x8
   \   000039   F5..         MOV     ?V0 + 6,A
   \   00003B   E5..         MOV     A,?V0 + 5
   \   00003D   3400         ADDC    A,#0x0
   \   00003F   F5..         MOV     ?V0 + 7,A
   \   000041   85..82       MOV     DPL,?V0 + 6
   \   000044   F583         MOV     DPH,A
   \   000046   E0           MOVX    A,@DPTR
   \   000047   F8           MOV     R0,A
   \   000048   7403         MOV     A,#0x3
   \   00004A   68           XRL     A,R0
   \   00004B   7005         JNZ     ??ZDP_BindUnbindReq_0
   1162              len += Z_EXTADDR_LEN + 1;     // +1 for DstEPIntf
   \   00004D   75..15       MOV     ?V0 + 2,#0x15
   \   000050   8008         SJMP    ??ZDP_BindUnbindReq_1
   1163            else if ( destinationAddr->addrMode == AddrGroup )
   \                     ??ZDP_BindUnbindReq_0:
   \   000052   7401         MOV     A,#0x1
   \   000054   68           XRL     A,R0
   \   000055   7003         JNZ     ??ZDP_BindUnbindReq_1
   1164              len += sizeof ( uint16 );
   \   000057   75..0E       MOV     ?V0 + 2,#0xe
   1165          
   1166            pBuf = osal_cpyExtAddr( pBuf, SourceAddr );
   \                     ??ZDP_BindUnbindReq_1:
   \   00005A                ; Setup parameters for call to function sAddrExtCpy
   \   00005A   12....       LCALL   ?Subroutine73 & 0xFFFF
   1167            *pBuf++ = SrcEndPoint;
   \                     ??CrossCallReturnLabel_101:
   \   00005D   E5..         MOV     A,?V0 + 8
   \   00005F   F0           MOVX    @DPTR,A
   \   000060   A3           INC     DPTR
   1168          
   1169            *pBuf++ = LO_UINT16( ClusterID );
   \   000061   EE           MOV     A,R6
   \   000062   F0           MOVX    @DPTR,A
   \   000063   A3           INC     DPTR
   1170          
   1171            *pBuf++ = HI_UINT16( ClusterID );
   \   000064   EF           MOV     A,R7
   \   000065   12....       LCALL   ?Subroutine51 & 0xFFFF
   1172            *pBuf++ = destinationAddr->addrMode;
   \                     ??CrossCallReturnLabel_67:
   \   000068   85..82       MOV     DPL,?V0 + 6
   \   00006B   85..83       MOV     DPH,?V0 + 7
   \   00006E   12....       LCALL   ?Subroutine41 & 0xFFFF
   1173            if ( destinationAddr->addrMode == Addr64Bit )
   \                     ??CrossCallReturnLabel_47:
   \   000071   85..82       MOV     DPL,?V0 + 6
   \   000074   85..83       MOV     DPH,?V0 + 7
   \   000077   E0           MOVX    A,@DPTR
   \   000078   F8           MOV     R0,A
   \   000079   7403         MOV     A,#0x3
   \   00007B   68           XRL     A,R0
   \   00007C   700B         JNZ     ??ZDP_BindUnbindReq_2
   1174            {
   1175              pBuf = osal_cpyExtAddr( pBuf, destinationAddr->addr.extAddr );
   1176              *pBuf = DstEndPoint;
   \   00007E                ; Setup parameters for call to function sAddrExtCpy
   \   00007E   AC..         MOV     R4,?V0 + 4
   \   000080   AD..         MOV     R5,?V0 + 5
   \   000082   12....       LCALL   ?Subroutine73 & 0xFFFF
   1177            }
   \                     ??CrossCallReturnLabel_102:
   \   000085   E5..         MOV     A,?V0 + 3
   \   000087   801A         SJMP    ??ZDP_BindUnbindReq_3
   1178            else if ( destinationAddr->addrMode == AddrGroup )
   \                     ??ZDP_BindUnbindReq_2:
   \   000089   7401         MOV     A,#0x1
   \   00008B   68           XRL     A,R0
   \   00008C   7016         JNZ     ??ZDP_BindUnbindReq_4
   1179            {
   1180              *pBuf++ = LO_UINT16( destinationAddr->addr.shortAddr );
   \   00008E   85..82       MOV     DPL,?V0 + 4
   \   000091   85..83       MOV     DPH,?V0 + 5
   \   000094   12....       LCALL   ?Subroutine41 & 0xFFFF
   1181              *pBuf++ = HI_UINT16( destinationAddr->addr.shortAddr );
   \                     ??CrossCallReturnLabel_48:
   \   000097   85..82       MOV     DPL,?V0 + 4
   \   00009A   85..83       MOV     DPH,?V0 + 5
   \   00009D   A3           INC     DPTR
   \   00009E   E0           MOVX    A,@DPTR
   \   00009F   8A82         MOV     DPL,R2
   \   0000A1   8B83         MOV     DPH,R3
   \                     ??ZDP_BindUnbindReq_3:
   \   0000A3   F0           MOVX    @DPTR,A
   1182            }
   1183          
   1184            FillAndSendTxOptions( &ZDP_TransID, dstAddr, BindOrUnbind, len, AF_MSG_ACK_REQUEST );
   \                     ??ZDP_BindUnbindReq_4:
   \   0000A4   90....       MOV     DPTR,#ZDP_TxOptions
   \   0000A7   7410         MOV     A,#0x10
   \   0000A9   F0           MOVX    @DPTR,A
   \   0000AA                ; Setup parameters for call to function fillAndSend
   \   0000AA   78..         MOV     R0,#?V0 + 0
   \   0000AC   12....       LCALL   ?PUSH_XSTACK_I_TWO
   \   0000AF   A9..         MOV     R1,?V0 + 2
   \   0000B1   AC..         MOV     R4,?V0 + 12
   \   0000B3   AD..         MOV     R5,?V0 + 13
   \   0000B5   12....       LCALL   ??Subroutine117_0 & 0xFFFF
   \                     ??CrossCallReturnLabel_229:
   \   0000B8   12....       LCALL   ?DEALLOC_XSTACK8
   \   0000BB   90....       MOV     DPTR,#ZDP_TxOptions
   \   0000BE   E4           CLR     A
   \   0000BF   F0           MOVX    @DPTR,A
   \   0000C0   02....       LJMP    ??Subroutine96_0 & 0xFFFF
   1185          }

   \                                 In  segment BANKED_CODE, align 1, keep-with-next
   \                     ?Subroutine41:
   \   000000   12....       LCALL   ?Subroutine80 & 0xFFFF
   \                     ??CrossCallReturnLabel_111:
   \   000003   22           RET
   1186          
   1187          /*********************************************************************
   1188           * Network Management
   1189           */
   1190          
   1191          /*********************************************************************
   1192           * @fn          ZDP_MgmtNwkDiscReq
   1193           *
   1194           * @brief       This builds and send a Mgmt_NWK_Disc_req message. This
   1195           *              function sends a unicast message.
   1196           *
   1197           * @param       dstAddr - destination address of the message
   1198           * @param       ScanChannels - 32 bit address bit map
   1199           * @param       StartIndex - Starting index within the reporting network
   1200           *                           list
   1201           * @param       SecurityEnable - Security Options
   1202           *
   1203           * @return      afStatus_t
   1204           */

   \                                 In  segment BANKED_CODE, align 1, keep-with-next
   1205          afStatus_t ZDP_MgmtNwkDiscReq( zAddrType_t *dstAddr,
   \                     ZDP_MgmtNwkDiscReq:
   1206                                         uint32 ScanChannels,
   1207                                         byte ScanDuration,
   1208                                         byte StartIndex,
   1209                                         byte SecurityEnable )
   1210          {
   \   000000   74F0         MOV     A,#-0x10
   \   000002   12....       LCALL   ?BANKED_ENTER_XDATA
   \   000005                ; Saved register size: 16
   \   000005                ; Auto size: 0
   \   000005   EA           MOV     A,R2
   \   000006   FE           MOV     R6,A
   \   000007   EB           MOV     A,R3
   \   000008   FF           MOV     R7,A
   \   000009   89..         MOV     ?V0 + 0,R1
   \   00000B   8C..         MOV     ?V0 + 1,R4
   \   00000D   7410         MOV     A,#0x10
   \   00000F   12....       LCALL   ?XSTACK_DISP0_8
   \   000012   78..         MOV     R0,#?V0 + 4
   \   000014   12....       LCALL   ?L_MOV_X
   1211            uint8 *pBuf = ZDP_TmpBuf;
   1212            byte len = sizeof( uint32 )+1+1;  // ScanChannels + ScanDuration + StartIndex.
   1213          
   1214            (void)SecurityEnable;  // Intentionally unreferenced parameter
   1215          
   1216            pBuf = osal_buffer_uint32( pBuf, ScanChannels );
   \   000017                ; Setup parameters for call to function osal_buffer_uint32
   \   000017   78..         MOV     R0,#?V0 + 4
   \   000019   12....       LCALL   ?PUSH_XSTACK_I_FOUR
   \   00001C   12....       LCALL   ?Subroutine42 & 0xFFFF
   \                     ??CrossCallReturnLabel_50:
   \   00001F   12....       LCALL   ?DEALLOC_XSTACK8
   \   000022   8A82         MOV     DPL,R2
   \   000024   8B83         MOV     DPH,R3
   1217          
   1218            *pBuf++ = ScanDuration;
   \   000026   E5..         MOV     A,?V0 + 0
   \   000028   F0           MOVX    @DPTR,A
   \   000029   A3           INC     DPTR
   1219            *pBuf = StartIndex;
   \   00002A   E5..         MOV     A,?V0 + 1
   \   00002C   F0           MOVX    @DPTR,A
   1220          
   1221            return fillAndSend( &ZDP_TransID, dstAddr, Mgmt_NWK_Disc_req, len );
   \   00002D                ; Setup parameters for call to function fillAndSend
   \   00002D   75..30       MOV     ?V0 + 2,#0x30
   \   000030   75..00       MOV     ?V0 + 3,#0x0
   \   000033   78..         MOV     R0,#?V0 + 2
   \   000035   12....       LCALL   ?PUSH_XSTACK_I_TWO
   \   000038   7906         MOV     R1,#0x6
   \   00003A   EE           MOV     A,R6
   \   00003B   FC           MOV     R4,A
   \   00003C   EF           MOV     A,R7
   \   00003D   FD           MOV     R5,A
   \   00003E   12....       LCALL   ??Subroutine117_0 & 0xFFFF
   \                     ??CrossCallReturnLabel_230:
   \   000041   02....       LJMP    ?Subroutine0 & 0xFFFF
   1222          }

   \                                 In  segment BANKED_CODE, align 1, keep-with-next
   \                     ?Subroutine42:
   \   000000   90....       MOV     DPTR,#ZDP_TmpBuf
   \   000003   E0           MOVX    A,@DPTR
   \   000004   FA           MOV     R2,A
   \   000005   A3           INC     DPTR
   \   000006   E0           MOVX    A,@DPTR
   \   000007   FB           MOV     R3,A
   \   000008   12....       LCALL   ??osal_buffer_uint32?relay
   \   00000B   7404         MOV     A,#0x4
   \   00000D   22           RET
   1223          
   1224          /*********************************************************************
   1225           * @fn          ZDP_MgmtDirectJoinReq
   1226           *
   1227           * @brief       This builds and send a Mgmt_Direct_Join_req message. This
   1228           *              function sends a unicast message.
   1229           *
   1230           * @param       dstAddr - destination address of the message
   1231           * @param       deviceAddr - 64 bit IEEE Address
   1232           * @param       SecurityEnable - Security Options
   1233           *
   1234           * @return      afStatus_t
   1235           */

   \                                 In  segment BANKED_CODE, align 1, keep-with-next
   1236          afStatus_t ZDP_MgmtDirectJoinReq( zAddrType_t *dstAddr,
   \                     ZDP_MgmtDirectJoinReq:
   1237                                         uint8 *deviceAddr,
   1238                                         byte capInfo,
   1239                                         byte SecurityEnable )
   1240          {
   \   000000   74F4         MOV     A,#-0xc
   \   000002   12....       LCALL   ?BANKED_ENTER_XDATA
   \   000005                ; Saved register size: 12
   \   000005                ; Auto size: 0
   \   000005   EA           MOV     A,R2
   \   000006   FE           MOV     R6,A
   \   000007   EB           MOV     A,R3
   \   000008   FF           MOV     R7,A
   \   000009   89..         MOV     ?V0 + 0,R1
   1241            (void)SecurityEnable;  // Intentionally unreferenced parameter
   1242          
   1243            osal_cpyExtAddr( ZDP_TmpBuf, deviceAddr );
   \   00000B                ; Setup parameters for call to function sAddrExtCpy
   \   00000B   90....       MOV     DPTR,#ZDP_TmpBuf
   \   00000E   E0           MOVX    A,@DPTR
   \   00000F   FA           MOV     R2,A
   \   000010   A3           INC     DPTR
   \   000011   E0           MOVX    A,@DPTR
   \   000012   12....       LCALL   ?Subroutine24 & 0xFFFF
   1244            ZDP_TmpBuf[Z_EXTADDR_LEN] = capInfo;
   \                     ??CrossCallReturnLabel_20:
   \   000015   E5..         MOV     A,?V0 + 0
   \   000017   F0           MOVX    @DPTR,A
   1245          
   1246            return fillAndSend( &ZDP_TransID, dstAddr, Mgmt_Direct_Join_req, (Z_EXTADDR_LEN + 1) );
   \   000018                ; Setup parameters for call to function fillAndSend
   \   000018   75..35       MOV     ?V0 + 2,#0x35
   \   00001B                REQUIRE ?Subroutine7
   \   00001B                ; // Fall through to label ?Subroutine7
   1247          }

   \                                 In  segment BANKED_CODE, align 1, keep-with-next
   \                     ?Subroutine7:
   \   000000   75..00       MOV     ?V0 + 3,#0x0
   \   000003   78..         MOV     R0,#?V0 + 2
   \   000005   12....       LCALL   ?PUSH_XSTACK_I_TWO
   \   000008   7909         MOV     R1,#0x9
   \   00000A   EE           MOV     A,R6
   \   00000B   FC           MOV     R4,A
   \   00000C   EF           MOV     A,R7
   \   00000D   FD           MOV     R5,A
   \   00000E   12....       LCALL   ??Subroutine117_0 & 0xFFFF
   \                     ??CrossCallReturnLabel_231:
   \   000011   12....       LCALL   ?DEALLOC_XSTACK8
   \   000014   7F04         MOV     R7,#0x4
   \   000016   02....       LJMP    ?BANKED_LEAVE_XDATA
   1248          
   1249          /*********************************************************************
   1250           * @fn          ZDP_MgmtPermitJoinReq
   1251           *
   1252           * @brief       This builds and send a Mgmt_Permit_Join_req message.
   1253           *
   1254           * @param       dstAddr - destination address of the message
   1255           * @param       duration - Permit duration
   1256           * @param       TcSignificance - Trust Center Significance
   1257           *
   1258           * @return      afStatus_t
   1259           */

   \                                 In  segment BANKED_CODE, align 1, keep-with-next
   1260          afStatus_t ZDP_MgmtPermitJoinReq( zAddrType_t *dstAddr, byte duration,
   \                     ZDP_MgmtPermitJoinReq:
   1261                                            byte TcSignificance, byte SecurityEnable )
   1262          {
   \   000000   74F6         MOV     A,#-0xa
   \   000002   12....       LCALL   ?BANKED_ENTER_XDATA
   \   000005                ; Saved register size: 10
   \   000005                ; Auto size: 0
   1263            (void)SecurityEnable;  // Intentionally unreferenced parameter
   1264          
   1265            // Build buffer
   1266            ZDP_TmpBuf[ZDP_MGMT_PERMIT_JOIN_REQ_DURATION] = duration;
   \   000005   12....       LCALL   ?Subroutine32 & 0xFFFF
   \                     ??CrossCallReturnLabel_147:
   \   000008   E9           MOV     A,R1
   \   000009   12....       LCALL   ?Subroutine31 & 0xFFFF
   1267            ZDP_TmpBuf[ZDP_MGMT_PERMIT_JOIN_REQ_TC_SIG]   = TcSignificance;
   \                     ??CrossCallReturnLabel_123:
   \   00000C   EC           MOV     A,R4
   \   00000D   F0           MOVX    @DPTR,A
   1268          
   1269            // Send the message
   1270            return fillAndSend( &ZDP_TransID, dstAddr, Mgmt_Permit_Join_req,
   1271                                ZDP_MGMT_PERMIT_JOIN_REQ_SIZE );
   \   00000E                ; Setup parameters for call to function fillAndSend
   \   00000E   75..36       MOV     ?V0 + 0,#0x36
   \   000011   02....       LJMP    ?Subroutine2 & 0xFFFF
   1272          }
   1273          
   1274          /*********************************************************************
   1275           * @fn          ZDP_MgmtLeaveReq
   1276           *
   1277           * @brief       This builds and send a Mgmt_Leave_req message.
   1278           *
   1279           * @param       dstAddr - destination address of the message
   1280           *              IEEEAddr - IEEE adddress of device that is removed
   1281           *              RemoveChildren - set to 1 to remove the children of the
   1282           *                                device as well. 0 otherwise.
   1283           *              Rejoin - set to 1 if the removed device should rejoin
   1284                                   afterwards. 0 otherwise.
   1285           *
   1286           * @return      afStatus_t
   1287           */

   \                                 In  segment BANKED_CODE, align 1, keep-with-next
   1288          afStatus_t ZDP_MgmtLeaveReq( zAddrType_t *dstAddr, uint8 *IEEEAddr, uint8 RemoveChildren,
   \                     ZDP_MgmtLeaveReq:
   1289                           uint8 Rejoin, uint8 SecurityEnable )
   1290          
   1291          {
   \   000000   74F4         MOV     A,#-0xc
   \   000002   12....       LCALL   ?BANKED_ENTER_XDATA
   \   000005                ; Saved register size: 12
   \   000005                ; Auto size: 0
   \   000005   EA           MOV     A,R2
   \   000006   FE           MOV     R6,A
   \   000007   EB           MOV     A,R3
   \   000008   FF           MOV     R7,A
   \   000009   89..         MOV     ?V0 + 0,R1
   \   00000B   740C         MOV     A,#0xc
   \   00000D   12....       LCALL   ?XSTACK_DISP0_8
   \   000010   E0           MOVX    A,@DPTR
   \   000011   F5..         MOV     ?V0 + 1,A
   1292            (void)SecurityEnable;  // Intentionally unreferenced parameter
   1293          
   1294            osal_cpyExtAddr( ZDP_TmpBuf, IEEEAddr );
   \   000013                ; Setup parameters for call to function sAddrExtCpy
   \   000013   12....       LCALL   ?Subroutine43 & 0xFFFF
   \                     ??CrossCallReturnLabel_138:
   \   000016   12....       LCALL   ??sAddrExtCpy?relay
   1295            ZDP_TmpBuf[Z_EXTADDR_LEN] = 0;
   \   000019   90....       MOV     DPTR,#ZDP_TmpBuf
   \   00001C   E0           MOVX    A,@DPTR
   \   00001D   2408         ADD     A,#0x8
   \   00001F   F8           MOV     R0,A
   \   000020   A3           INC     DPTR
   \   000021   E0           MOVX    A,@DPTR
   \   000022   12....       LCALL   ?Subroutine71 & 0xFFFF
   \                     ??CrossCallReturnLabel_97:
   \   000025   E4           CLR     A
   \   000026   F0           MOVX    @DPTR,A
   1296          
   1297            if ( RemoveChildren == TRUE )
   \   000027   04           INC     A
   \   000028   65..         XRL     A,?V0 + 0
   \   00002A   7003         JNZ     ??ZDP_MgmtLeaveReq_0
   1298            {
   1299              ZDP_TmpBuf[Z_EXTADDR_LEN] |= ZDP_MGMT_LEAVE_REQ_RC;
   \   00002C   7440         MOV     A,#0x40
   \   00002E   F0           MOVX    @DPTR,A
   1300            }
   1301            if ( Rejoin == TRUE )
   \                     ??ZDP_MgmtLeaveReq_0:
   \   00002F   7401         MOV     A,#0x1
   \   000031   65..         XRL     A,?V0 + 1
   \   000033   7004         JNZ     ??ZDP_MgmtLeaveReq_1
   1302            {
   1303              ZDP_TmpBuf[Z_EXTADDR_LEN] |= ZDP_MGMT_LEAVE_REQ_REJOIN;
   \   000035   E0           MOVX    A,@DPTR
   \   000036   D2E7         SETB    0xE0 /* A   */.7
   \   000038   F0           MOVX    @DPTR,A
   1304            }
   1305          
   1306            return fillAndSend( &ZDP_TransID, dstAddr, Mgmt_Leave_req, (Z_EXTADDR_LEN + 1) );
   \                     ??ZDP_MgmtLeaveReq_1:
   \   000039                ; Setup parameters for call to function fillAndSend
   \   000039   75..34       MOV     ?V0 + 2,#0x34
   \   00003C   02....       LJMP    ?Subroutine7 & 0xFFFF
   1307          }

   \                                 In  segment BANKED_CODE, align 1, keep-with-next
   \                     ?Subroutine71:
   \   000000   3400         ADDC    A,#0x0
   \   000002   F9           MOV     R1,A
   \   000003   8882         MOV     DPL,R0
   \   000005   8983         MOV     DPH,R1
   \   000007   22           RET
   1308          
   1309          /*********************************************************************
   1310           * @fn          ZDP_MgmtNwkUpdateReq
   1311           *
   1312           * @brief       This builds and send a Mgmt_NWK_Update_req message. This
   1313           *              function sends a unicast or broadcast message.
   1314           *
   1315           * @param       dstAddr - destination address of the message
   1316           * @param       ChannelMask - 32 bit address bit map
   1317           * @param       ScanDuration - length of time to spend scanning each channel
   1318           * @param       ScanCount - number of energy scans to be conducted
   1319           * @param       NwkUpdateId - NWk Update Id value
   1320           * @param       NwkManagerAddr - NWK address for device with Network Manager
   1321           *                               bit set in its Node Descriptor
   1322           *
   1323           * @return      afStatus_t
   1324           */

   \                                 In  segment BANKED_CODE, align 1, keep-with-next
   1325          afStatus_t ZDP_MgmtNwkUpdateReq( zAddrType_t *dstAddr,
   \                     ZDP_MgmtNwkUpdateReq:
   1326                                           uint32 ChannelMask,
   1327                                           uint8 ScanDuration,
   1328                                           uint8 ScanCount,
   1329                                           uint8 NwkUpdateId,
   1330                                           uint16 NwkManagerAddr )
   1331          {
   \   000000   74EE         MOV     A,#-0x12
   \   000002   12....       LCALL   ?BANKED_ENTER_XDATA
   \   000005                ; Saved register size: 18
   \   000005                ; Auto size: 0
   \   000005   8A..         MOV     ?V0 + 8,R2
   \   000007   8B..         MOV     ?V0 + 9,R3
   \   000009   89..         MOV     ?V0 + 4,R1
   \   00000B   8C..         MOV     ?V0 + 6,R4
   \   00000D   8D..         MOV     ?V0 + 5,R5
   \   00000F   7412         MOV     A,#0x12
   \   000011   12....       LCALL   ?XSTACK_DISP0_8
   \   000014   78..         MOV     R0,#?V0 + 0
   \   000016   12....       LCALL   ?L_MOV_X
   \   000019   7416         MOV     A,#0x16
   \   00001B   12....       LCALL   ?XSTACK_DISP0_8
   \   00001E   12....       LCALL   ??Subroutine120_0 & 0xFFFF
   1332            uint8 *pBuf = ZDP_TmpBuf;
   1333            byte len = sizeof( uint32 ) + 1;  // ChannelMask + ScanDuration
   \                     ??CrossCallReturnLabel_255:
   \   000021   75..05       MOV     ?V0 + 7,#0x5
   1334          
   1335            pBuf = osal_buffer_uint32( pBuf, ChannelMask );
   \   000024                ; Setup parameters for call to function osal_buffer_uint32
   \   000024   78..         MOV     R0,#?V0 + 0
   \   000026   12....       LCALL   ?PUSH_XSTACK_I_FOUR
   \   000029   12....       LCALL   ?Subroutine42 & 0xFFFF
   \                     ??CrossCallReturnLabel_51:
   \   00002C   12....       LCALL   ?DEALLOC_XSTACK8
   \   00002F   8A..         MOV     ?V0 + 0,R2
   \   000031   8B..         MOV     ?V0 + 1,R3
   \   000033   A8..         MOV     R0,?V0 + 0
   \   000035   A9..         MOV     R1,?V0 + 1
   1336          
   1337            *pBuf++ = ScanDuration;
   \   000037   8882         MOV     DPL,R0
   \   000039   8983         MOV     DPH,R1
   \   00003B   E5..         MOV     A,?V0 + 4
   \   00003D   12....       LCALL   ??Subroutine103_0 & 0xFFFF
   1338          
   1339            if ( ScanDuration <= 0x05 )
   \                     ??CrossCallReturnLabel_155:
   \   000040   A3           INC     DPTR
   \   000041   AB83         MOV     R3,DPH
   \   000043   C3           CLR     C
   \   000044   9406         SUBB    A,#0x6
   \   000046   500B         JNC     ??ZDP_MgmtNwkUpdateReq_0
   1340            {
   1341              // Request is to scan over channelMask
   1342              len += sizeof( uint8 );
   \   000048   75..06       MOV     ?V0 + 7,#0x6
   1343          
   1344              *pBuf++ = ScanCount;
   \   00004B   8882         MOV     DPL,R0
   \   00004D   8983         MOV     DPH,R1
   \   00004F   E5..         MOV     A,?V0 + 6
   \   000051   802A         SJMP    ??ZDP_MgmtNwkUpdateReq_1
   1345            }
   1346            else if ( ( ScanDuration == 0xFE ) || ( ScanDuration == 0xFF ) )
   \                     ??ZDP_MgmtNwkUpdateReq_0:
   \   000053   74FE         MOV     A,#-0x2
   \   000055   65..         XRL     A,?V0 + 4
   \   000057   6006         JZ      ??ZDP_MgmtNwkUpdateReq_2
   \   000059   74FF         MOV     A,#-0x1
   \   00005B   65..         XRL     A,?V0 + 4
   \   00005D   701F         JNZ     ??ZDP_MgmtNwkUpdateReq_3
   1347            {
   1348              // Request is to change Channel (0xFE) or apsChannelMask and NwkManagerAddr (0xFF)
   1349              len += sizeof( uint8 );
   \                     ??ZDP_MgmtNwkUpdateReq_2:
   \   00005F   75..06       MOV     ?V0 + 7,#0x6
   1350          
   1351              *pBuf++ = NwkUpdateId;
   \   000062   8882         MOV     DPL,R0
   \   000064   8983         MOV     DPH,R1
   \   000066   E5..         MOV     A,?V0 + 5
   \   000068   F0           MOVX    @DPTR,A
   \   000069   08           INC     R0
   \   00006A   EB           MOV     A,R3
   \   00006B   F9           MOV     R1,A
   1352          
   1353              if ( ScanDuration == 0xFF )
   \   00006C   74FF         MOV     A,#-0x1
   \   00006E   65..         XRL     A,?V0 + 4
   \   000070   700C         JNZ     ??ZDP_MgmtNwkUpdateReq_3
   1354              {
   1355                len += sizeof( uint16 );
   \   000072   75..08       MOV     ?V0 + 7,#0x8
   1356          
   1357                *pBuf++  = LO_UINT16( NwkManagerAddr );
   \   000075   EE           MOV     A,R6
   \   000076   8882         MOV     DPL,R0
   \   000078   8983         MOV     DPH,R1
   \   00007A   F0           MOVX    @DPTR,A
   \   00007B   A3           INC     DPTR
   1358                *pBuf++  = HI_UINT16( NwkManagerAddr );
   \   00007C   EF           MOV     A,R7
   \                     ??ZDP_MgmtNwkUpdateReq_1:
   \   00007D   F0           MOVX    @DPTR,A
   1359              }
   1360            }
   1361          
   1362            return fillAndSend( &ZDP_TransID, dstAddr, Mgmt_NWK_Update_req, len );
   \                     ??ZDP_MgmtNwkUpdateReq_3:
   \   00007E                ; Setup parameters for call to function fillAndSend
   \   00007E   75..38       MOV     ?V0 + 0,#0x38
   \   000081   75..00       MOV     ?V0 + 1,#0x0
   \   000084   78..         MOV     R0,#?V0 + 0
   \   000086   12....       LCALL   ?PUSH_XSTACK_I_TWO
   \   000089   A9..         MOV     R1,?V0 + 7
   \   00008B   AC..         MOV     R4,?V0 + 8
   \   00008D   AD..         MOV     R5,?V0 + 9
   \   00008F   12....       LCALL   ??Subroutine117_0 & 0xFFFF
   \                     ??CrossCallReturnLabel_232:
   \   000092                REQUIRE ?Subroutine3
   \   000092                ; // Fall through to label ?Subroutine3
   1363          }
   1364          
   1365          
   1366          /*********************************************************************
   1367           * Network Management Responses
   1368           */
   1369          
   1370          /*********************************************************************
   1371           * @fn          ZDP_MgmtNwkDiscRsp
   1372           *
   1373           * @brief       This builds and send a Mgmt_NWK_Disc_rsp message. This
   1374           *              function sends a unicast message.
   1375           *
   1376           * @param       dstAddr - destination address of the message
   1377           * @param       Status - message status (ZDP_SUCCESS or other)
   1378           * @param       NetworkCount - Total number of networks found
   1379           * @param       StartIndex - Starting index within the reporting network
   1380           *                           list
   1381           * @param       NetworkListCount - number of network lists included
   1382           *                                 in this message
   1383           * @param       NetworkList - List of network descriptors
   1384           * @param       SecurityEnable - Security Options
   1385           *
   1386           * @return      afStatus_t
   1387           */

   \                                 In  segment BANKED_CODE, align 1, keep-with-next
   \                     ?Subroutine4:
   \   000000   7401         MOV     A,#0x1
   \   000002                REQUIRE ??Subroutine95_0
   \   000002                ; // Fall through to label ??Subroutine95_0

   \                                 In  segment BANKED_CODE, align 1, keep-with-next
   1388          afStatus_t ZDP_MgmtNwkDiscRsp( byte TransSeq, zAddrType_t *dstAddr,
   \                     ZDP_MgmtNwkDiscRsp:
   1389                                      byte Status,
   1390                                      byte NetworkCount,
   1391                                      byte StartIndex,
   1392                                      byte NetworkListCount,
   1393                                      networkDesc_t *NetworkList,
   1394                                      byte SecurityEnable )
   1395          {
   \   000000   74EA         MOV     A,#-0x16
   \   000002   12....       LCALL   ?BANKED_ENTER_XDATA
   \   000005                ; Saved register size: 22
   \   000005                ; Auto size: 1
   \   000005   74FF         MOV     A,#-0x1
   \   000007   12....       LCALL   ?ALLOC_XSTACK8
   \   00000A   E9           MOV     A,R1
   \   00000B   85..82       MOV     DPL,?XSP + 0
   \   00000E   85..83       MOV     DPH,?XSP + 1
   \   000011   F0           MOVX    @DPTR,A
   \   000012   8A..         MOV     ?V0 + 12,R2
   \   000014   8B..         MOV     ?V0 + 13,R3
   \   000016   8C..         MOV     ?V0 + 10,R4
   \   000018   8D..         MOV     ?V0 + 7,R5
   \   00001A   7417         MOV     A,#0x17
   \   00001C   12....       LCALL   ?XSTACK_DISP0_8
   \   00001F   E0           MOVX    A,@DPTR
   \   000020   F5..         MOV     ?V0 + 6,A
   \   000022   7418         MOV     A,#0x18
   \   000024   12....       LCALL   ?XSTACK_DISP0_8
   \   000027   E0           MOVX    A,@DPTR
   \   000028   F5..         MOV     ?V0 + 4,A
   \   00002A   7419         MOV     A,#0x19
   \   00002C   12....       LCALL   ?XSTACK_DISP0_8
   \   00002F   12....       LCALL   ??Subroutine107_0 & 0xFFFF
   1396            uint8 *buf;
   1397            uint8 *pBuf;
   1398            byte len = 1+1+1+1;  // Status + NetworkCount + StartIndex + NetworkCountList.
   1399            byte idx;
   1400          
   1401            (void)SecurityEnable;  // Intentionally unreferenced parameter
   1402          
   1403            len += (NetworkListCount * ( ZDP_NETWORK_EXTENDED_DISCRIPTOR_SIZE - 2 ));
   \                     ??CrossCallReturnLabel_176:
   \   000032   75F00C       MOV     B,#0xc
   \   000035   E5..         MOV     A,?V0 + 4
   \   000037   A4           MUL     AB
   \   000038   2404         ADD     A,#0x4
   \   00003A   F5..         MOV     ?V0 + 5,A
   1404          
   1405            buf = osal_mem_alloc( len+1 );
   \   00003C                ; Setup parameters for call to function osal_mem_alloc
   \   00003C   12....       LCALL   ?Subroutine84 & 0xFFFF
   \                     ??CrossCallReturnLabel_112:
   \   00003F   8A..         MOV     ?V0 + 0,R2
   \   000041   8B..         MOV     ?V0 + 1,R3
   1406            if ( buf == NULL )
   \   000043   EA           MOV     A,R2
   \   000044   45..         ORL     A,?V0 + 1
   \   000046   7005         JNZ     ??ZDP_MgmtNwkDiscRsp_0
   1407            {
   1408              return afStatus_MEM_FAIL;
   \   000048   7910         MOV     R1,#0x10
   \   00004A   02....       LJMP    ??CrossCallReturnLabel_183 & 0xFFFF
   1409            }
   1410          
   1411            pBuf = buf+1;
   \                     ??ZDP_MgmtNwkDiscRsp_0:
   \   00004D   8A82         MOV     DPL,R2
   \   00004F   8B83         MOV     DPH,R3
   \   000051   A3           INC     DPTR
   \   000052   8582..       MOV     ?V0 + 8,DPL
   \   000055   8583..       MOV     ?V0 + 9,DPH
   1412          
   1413            *pBuf++ = Status;
   \   000058   E5..         MOV     A,?V0 + 10
   \   00005A   F0           MOVX    @DPTR,A
   \   00005B   A3           INC     DPTR
   1414            *pBuf++ = NetworkCount;
   \   00005C   E5..         MOV     A,?V0 + 7
   \   00005E   F0           MOVX    @DPTR,A
   \   00005F   A3           INC     DPTR
   1415            *pBuf++ = StartIndex;
   \   000060   E5..         MOV     A,?V0 + 6
   \   000062   F0           MOVX    @DPTR,A
   \   000063   A3           INC     DPTR
   1416            *pBuf++ = NetworkListCount;
   \   000064   E5..         MOV     A,?V0 + 4
   \   000066   12....       LCALL   ??Subroutine104_0 & 0xFFFF
   1417          
   1418            for ( idx = 0; idx < NetworkListCount; idx++ )
   \                     ??CrossCallReturnLabel_167:
   \   000069   75..00       MOV     ?V0 + 6,#0x0
   \   00006C   8015         SJMP    ??ZDP_MgmtNwkDiscRsp_1
   1419            {
   1420              osal_cpyExtAddr( pBuf, NetworkList->extendedPANID);
   1421              pBuf += Z_EXTADDR_LEN;
   1422          
   1423              *pBuf++  = NetworkList->logicalChannel;                // LogicalChannel
   1424              *pBuf    = NetworkList->stackProfile;                  // Stack profile
   1425              *pBuf++ |= (byte)(NetworkList->version << 4);          // ZigBee Version
   1426              *pBuf    = NetworkList->beaconOrder;                   // Beacon Order
   1427              *pBuf++ |= (byte)(NetworkList->superFrameOrder << 4);  // Superframe Order
   1428          
   1429              if ( NetworkList->chosenRouter != INVALID_NODE_ADDR )
   1430              {
   1431                *pBuf++ = TRUE;                         // Permit Joining
   1432              }
   1433              else
   1434              {
   1435                *pBuf++ = FALSE;
   \                     ??ZDP_MgmtNwkDiscRsp_2:
   \   00006E   E4           CLR     A
   \                     ??ZDP_MgmtNwkDiscRsp_3:
   \   00006F   F0           MOVX    @DPTR,A
   \   000070   0E           INC     R6
   \   000071   E9           MOV     A,R1
   \   000072   FF           MOV     R7,A
   1436              }
   1437          
   1438              NetworkList = NetworkList->nextDesc;    // Move to next list entry
   \   000073   E5..         MOV     A,?V0 + 2
   \   000075   2416         ADD     A,#0x16
   \   000077   F582         MOV     DPL,A
   \   000079   E5..         MOV     A,?V0 + 3
   \   00007B   12....       LCALL   ??Subroutine124_0 & 0xFFFF
   \                     ??CrossCallReturnLabel_286:
   \   00007E   12....       LCALL   ??Subroutine107_0 & 0xFFFF
   \                     ??CrossCallReturnLabel_177:
   \   000081   05..         INC     ?V0 + 6
   \                     ??ZDP_MgmtNwkDiscRsp_1:
   \   000083   E5..         MOV     A,?V0 + 6
   \   000085   C3           CLR     C
   \   000086   95..         SUBB    A,?V0 + 4
   \   000088   4003         JC      $+5
   \   00008A   02....       LJMP    ??ZDP_MgmtNwkDiscRsp_4 & 0xFFFF
   \   00008D                ; Setup parameters for call to function sAddrExtCpy
   \   00008D   E5..         MOV     A,?V0 + 2
   \   00008F   240D         ADD     A,#0xd
   \   000091   FC           MOV     R4,A
   \   000092   E5..         MOV     A,?V0 + 3
   \   000094   12....       LCALL   ?Subroutine69 & 0xFFFF
   \                     ??CrossCallReturnLabel_95:
   \   000097   EE           MOV     A,R6
   \   000098   2408         ADD     A,#0x8
   \   00009A   FE           MOV     R6,A
   \   00009B   EF           MOV     A,R7
   \   00009C   3400         ADDC    A,#0x0
   \   00009E   FF           MOV     R7,A
   \   00009F   85..82       MOV     DPL,?V0 + 2
   \   0000A2   85..83       MOV     DPH,?V0 + 3
   \   0000A5   A3           INC     DPTR
   \   0000A6   A3           INC     DPTR
   \   0000A7   12....       LCALL   ?Subroutine37 & 0xFFFF
   \                     ??CrossCallReturnLabel_42:
   \   0000AA   85..82       MOV     DPL,?V0 + 2
   \   0000AD   85..83       MOV     DPH,?V0 + 3
   \   0000B0   A3           INC     DPTR
   \   0000B1   A3           INC     DPTR
   \   0000B2   A3           INC     DPTR
   \   0000B3   A3           INC     DPTR
   \   0000B4   A3           INC     DPTR
   \   0000B5   12....       LCALL   ?Subroutine39 & 0xFFFF
   \                     ??CrossCallReturnLabel_190:
   \   0000B8   EE           MOV     A,R6
   \   0000B9   F8           MOV     R0,A
   \   0000BA   EF           MOV     A,R7
   \   0000BB   F9           MOV     R1,A
   \   0000BC   A3           INC     DPTR
   \   0000BD   0E           INC     R6
   \   0000BE   AF83         MOV     R7,DPH
   \   0000C0   85..82       MOV     DPL,?V0 + 2
   \   0000C3   85..83       MOV     DPH,?V0 + 3
   \   0000C6   A3           INC     DPTR
   \   0000C7   A3           INC     DPTR
   \   0000C8   A3           INC     DPTR
   \   0000C9   12....       LCALL   ?Subroutine17 & 0xFFFF
   \                     ??CrossCallReturnLabel_172:
   \   0000CC   85..82       MOV     DPL,?V0 + 2
   \   0000CF   85..83       MOV     DPH,?V0 + 3
   \   0000D2   12....       LCALL   ?Subroutine39 & 0xFFFF
   \                     ??CrossCallReturnLabel_191:
   \   0000D5   08           INC     R0
   \   0000D6   EF           MOV     A,R7
   \   0000D7   F9           MOV     R1,A
   \   0000D8   A3           INC     DPTR
   \   0000D9   0E           INC     R6
   \   0000DA   AF83         MOV     R7,DPH
   \   0000DC   85..82       MOV     DPL,?V0 + 2
   \   0000DF   85..83       MOV     DPH,?V0 + 3
   \   0000E2   12....       LCALL   ?Subroutine17 & 0xFFFF
   \                     ??CrossCallReturnLabel_173:
   \   0000E5   8E82         MOV     DPL,R6
   \   0000E7   8F83         MOV     DPH,R7
   \   0000E9   A3           INC     DPTR
   \   0000EA   A983         MOV     R1,DPH
   \   0000EC   85..82       MOV     DPL,?V0 + 2
   \   0000EF   85..83       MOV     DPH,?V0 + 3
   \   0000F2   A3           INC     DPTR
   \   0000F3   A3           INC     DPTR
   \   0000F4   A3           INC     DPTR
   \   0000F5   A3           INC     DPTR
   \   0000F6   A3           INC     DPTR
   \   0000F7   A3           INC     DPTR
   \   0000F8   A3           INC     DPTR
   \   0000F9   A3           INC     DPTR
   \   0000FA   A3           INC     DPTR
   \   0000FB   E0           MOVX    A,@DPTR
   \   0000FC   64FE         XRL     A,#0xfe
   \   0000FE   7003         JNZ     ??ZDP_MgmtNwkDiscRsp_5
   \   000100   A3           INC     DPTR
   \   000101   E0           MOVX    A,@DPTR
   \   000102   F4           CPL     A
   \                     ??ZDP_MgmtNwkDiscRsp_5:
   \   000103   8E82         MOV     DPL,R6
   \   000105   8F83         MOV     DPH,R7
   \   000107   7003         JNZ     $+5
   \   000109   02....       LJMP    ??ZDP_MgmtNwkDiscRsp_2 & 0xFFFF
   \   00010C   7401         MOV     A,#0x1
   \   00010E   02....       LJMP    ??ZDP_MgmtNwkDiscRsp_3 & 0xFFFF
   1439            }
   1440          
   1441            FillAndSendBuffer( &TransSeq, dstAddr, Mgmt_NWK_Disc_rsp, len, buf );
   \                     ??ZDP_MgmtNwkDiscRsp_4:
   \   000111   90....       MOV     DPTR,#ZDP_TmpBuf
   \   000114   E5..         MOV     A,?V0 + 8
   \   000116   F0           MOVX    @DPTR,A
   \   000117   A3           INC     DPTR
   \   000118   E5..         MOV     A,?V0 + 9
   \   00011A   F0           MOVX    @DPTR,A
   \   00011B                ; Setup parameters for call to function fillAndSend
   \   00011B   75..30       MOV     ?V0 + 2,#0x30
   \   00011E   75..80       MOV     ?V0 + 3,#-0x80
   \   000121   78..         MOV     R0,#?V0 + 2
   \   000123   12....       LCALL   ?PUSH_XSTACK_I_TWO
   \   000126   A9..         MOV     R1,?V0 + 5
   \   000128   AC..         MOV     R4,?V0 + 12
   \   00012A   AD..         MOV     R5,?V0 + 13
   \   00012C   7402         MOV     A,#0x2
   \   00012E   12....       LCALL   ?XSTACK_DISP0_8
   \   000131   AA82         MOV     R2,DPL
   \   000133   AB83         MOV     R3,DPH
   \   000135   12....       LCALL   ??Subroutine118_0 & 0xFFFF
   \                     ??CrossCallReturnLabel_241:
   \   000138   12....       LCALL   ?DEALLOC_XSTACK8
   \   00013B   E9           MOV     A,R1
   \   00013C   FE           MOV     R6,A
   \   00013D                ; Setup parameters for call to function osal_mem_free
   \   00013D   AA..         MOV     R2,?V0 + 0
   \   00013F   AB..         MOV     R3,?V0 + 1
   \   000141   12....       LCALL   ??Subroutine108_0 & 0xFFFF
   \                     ??CrossCallReturnLabel_183:
   \   000144   02....       LJMP    ?Subroutine4 & 0xFFFF
   1442          }

   \                                 In  segment BANKED_CODE, align 1, keep-with-next
   \                     ?Subroutine17:
   \   000000   A3           INC     DPTR
   \   000001   A3           INC     DPTR
   \   000002   A3           INC     DPTR
   \   000003   A3           INC     DPTR
   \   000004                REQUIRE ??Subroutine106_0
   \   000004                ; // Fall through to label ??Subroutine106_0

   \                                 In  segment BANKED_CODE, align 1, keep-with-next
   \                     ??Subroutine106_0:
   \   000000   E0           MOVX    A,@DPTR
   \   000001   C4           SWAP    A
   \   000002   54F0         ANL     A,#0xf0
   \   000004   FA           MOV     R2,A
   \   000005   8882         MOV     DPL,R0
   \   000007   8983         MOV     DPH,R1
   \   000009   E0           MOVX    A,@DPTR
   \   00000A   4A           ORL     A,R2
   \   00000B   F0           MOVX    @DPTR,A
   \   00000C   22           RET

   \                                 In  segment BANKED_CODE, align 1, keep-with-next
   \                     ?Subroutine69:
   \   000000   3400         ADDC    A,#0x0
   \   000002   FD           MOV     R5,A
   \   000003   EE           MOV     A,R6
   \   000004   FA           MOV     R2,A
   \   000005   EF           MOV     A,R7
   \   000006   FB           MOV     R3,A
   \   000007   12....       LCALL   ??sAddrExtCpy?relay
   \   00000A   22           RET

   \                                 In  segment BANKED_CODE, align 1, keep-with-next
   \                     ??Subroutine108_0:
   \   000000   12....       LCALL   ?Subroutine85 & 0xFFFF
   \                     ??CrossCallReturnLabel_184:
   \   000003   EE           MOV     A,R6
   \   000004   F9           MOV     R1,A
   \   000005   22           RET

   \                                 In  segment BANKED_CODE, align 1, keep-with-next
   \                     ?Subroutine39:
   \   000000   A3           INC     DPTR
   \   000001   A3           INC     DPTR
   \   000002                REQUIRE ??Subroutine109_0
   \   000002                ; // Fall through to label ??Subroutine109_0

   \                                 In  segment BANKED_CODE, align 1, keep-with-next
   \                     ?Subroutine85:
   \   000000   12....       LCALL   ??osal_mem_free?relay
   \   000003   90....       MOV     DPTR,#ZDP_TmpBuf
   \   000006   74..         MOV     A,#(ZDP_Buf + 1) & 0xff
   \   000008   F0           MOVX    @DPTR,A
   \   000009   A3           INC     DPTR
   \   00000A   74..         MOV     A,#((ZDP_Buf + 1) >> 8) & 0xff
   \   00000C   F0           MOVX    @DPTR,A
   \   00000D   22           RET

   \                                 In  segment BANKED_CODE, align 1, keep-with-next
   \                     ?Subroutine84:
   \   000000   2401         ADD     A,#0x1
   \   000002   FA           MOV     R2,A
   \   000003   E4           CLR     A
   \   000004   3400         ADDC    A,#0x0
   \   000006   FB           MOV     R3,A
   \   000007   12....       LCALL   ??osal_mem_alloc?relay
   \   00000A   22           RET
   1443          
   1444          /*********************************************************************
   1445           * @fn          ZDP_MgmtLqiRsp
   1446           *
   1447           * @brief       This builds and send a Mgmt_Lqi_rsp message. This
   1448           *              function sends a unicast message.
   1449           *
   1450           * @param       dstAddr - destination address of the message
   1451           * @param       Status - message status (ZDP_SUCCESS or other)
   1452           * @param       NeighborLqiEntries - Total number of entries found
   1453           * @param       StartIndex - Starting index within the reporting list
   1454           * @param       NeighborLqiCount - number of lists included
   1455           *                                 in this message
   1456           * @param       NeighborLqiList - List of NeighborLqiItems.  This list
   1457           *                is the list to be sent, not the entire list
   1458           * @param       SecurityEnable - true if secure
   1459           *
   1460           * @return      ZStatus_t
   1461           */

   \                                 In  segment BANKED_CODE, align 1, keep-with-next
   1462          ZStatus_t ZDP_MgmtLqiRsp( byte TransSeq, zAddrType_t *dstAddr,
   \                     ZDP_MgmtLqiRsp:
   1463                                    byte Status,
   1464                                    byte NeighborLqiEntries,
   1465                                    byte StartIndex,
   1466                                    byte NeighborLqiCount,
   1467                                    ZDP_MgmtLqiItem_t* NeighborList,
   1468                                    byte SecurityEnable )
   1469          {
   \   000000   74E9         MOV     A,#-0x17
   \   000002   12....       LCALL   ?BANKED_ENTER_XDATA
   \   000005                ; Saved register size: 23
   \   000005                ; Auto size: 1
   \   000005   74FF         MOV     A,#-0x1
   \   000007   12....       LCALL   ?ALLOC_XSTACK8
   \   00000A   E9           MOV     A,R1
   \   00000B   85..82       MOV     DPL,?XSP + 0
   \   00000E   85..83       MOV     DPH,?XSP + 1
   \   000011   F0           MOVX    @DPTR,A
   \   000012   8A..         MOV     ?V0 + 12,R2
   \   000014   8B..         MOV     ?V0 + 13,R3
   \   000016   8D..         MOV     ?V0 + 14,R5
   \   000018   7418         MOV     A,#0x18
   \   00001A   12....       LCALL   ?XSTACK_DISP0_8
   \   00001D   E0           MOVX    A,@DPTR
   \   00001E   F5..         MOV     ?V0 + 4,A
   \   000020   7419         MOV     A,#0x19
   \   000022   12....       LCALL   ?XSTACK_DISP0_8
   \   000025   E0           MOVX    A,@DPTR
   \   000026   F5..         MOV     ?V0 + 5,A
   \   000028   741A         MOV     A,#0x1a
   \   00002A   12....       LCALL   ?XSTACK_DISP0_8
   \   00002D   12....       LCALL   ??Subroutine112_0 & 0xFFFF
   1470            ZDP_MgmtLqiItem_t* list = NeighborList;
   1471            uint8 *buf, *pBuf;
   1472            byte len, x;
   1473          
   1474            (void)SecurityEnable;  // Intentionally unreferenced parameter
   1475          
   1476            if ( ZSuccess != Status )
   \                     ??CrossCallReturnLabel_203:
   \   000030   EC           MOV     A,R4
   \   000031   6022         JZ      ??ZDP_MgmtLqiRsp_0
   1477            {
   1478              ZDP_TmpBuf[0] = Status;
   \   000033   12....       LCALL   ?Subroutine32 & 0xFFFF
   1479              return fillAndSend( &TransSeq, dstAddr, Mgmt_Lqi_rsp, 1 );
   1480            }
   \                     ??CrossCallReturnLabel_148:
   \   000036   EC           MOV     A,R4
   \   000037   12....       LCALL   ?Subroutine61 & 0xFFFF
   \                     ??CrossCallReturnLabel_87:
   \   00003A   12....       LCALL   ?PUSH_XSTACK_I_TWO
   \   00003D   7901         MOV     R1,#0x1
   \   00003F   AC..         MOV     R4,?V0 + 12
   \   000041   AD..         MOV     R5,?V0 + 13
   \   000043   7402         MOV     A,#0x2
   \   000045   12....       LCALL   ?XSTACK_DISP0_8
   \   000048   AA82         MOV     R2,DPL
   \   00004A   AB83         MOV     R3,DPH
   \   00004C   12....       LCALL   ??Subroutine118_0 & 0xFFFF
   \                     ??CrossCallReturnLabel_242:
   \   00004F   12....       LCALL   ?DEALLOC_XSTACK8
   \   000052   02....       LJMP    ??CrossCallReturnLabel_181 & 0xFFFF
   1481          
   1482            // (Status + NeighborLqiEntries + StartIndex + NeighborLqiCount) +
   1483            //  neighbor LQI data.
   1484            len = (1 + 1 + 1 + 1) + (NeighborLqiCount * ZDP_MGMTLQI_EXTENDED_SIZE);
   \                     ??ZDP_MgmtLqiRsp_0:
   \   000055   75F016       MOV     B,#0x16
   \   000058   E5..         MOV     A,?V0 + 5
   \   00005A   A4           MUL     AB
   \   00005B   2404         ADD     A,#0x4
   \   00005D   F5..         MOV     ?V0 + 6,A
   1485          
   1486            buf = osal_mem_alloc( len+1 );
   \   00005F                ; Setup parameters for call to function osal_mem_alloc
   \   00005F   2401         ADD     A,#0x1
   \   000061   12....       LCALL   ?Subroutine68 & 0xFFFF
   1487            if ( buf == NULL )
   \                     ??CrossCallReturnLabel_93:
   \   000064   7005         JNZ     ??ZDP_MgmtLqiRsp_1
   1488            {
   1489              return afStatus_MEM_FAIL;
   \   000066   7910         MOV     R1,#0x10
   \   000068   02....       LJMP    ??CrossCallReturnLabel_181 & 0xFFFF
   1490            }
   1491          
   1492            pBuf = buf+1;
   \                     ??ZDP_MgmtLqiRsp_1:
   \   00006B   8A82         MOV     DPL,R2
   \   00006D   8B83         MOV     DPH,R3
   \   00006F   A3           INC     DPTR
   \   000070   8582..       MOV     ?V0 + 8,DPL
   \   000073   8583..       MOV     ?V0 + 9,DPH
   1493          
   1494            *pBuf++ = Status;
   \   000076   E4           CLR     A
   \   000077   F0           MOVX    @DPTR,A
   \   000078   A3           INC     DPTR
   1495            *pBuf++ = NeighborLqiEntries;
   \   000079   E5..         MOV     A,?V0 + 14
   \   00007B   F0           MOVX    @DPTR,A
   \   00007C   A3           INC     DPTR
   1496            *pBuf++ = StartIndex;
   \   00007D   12....       LCALL   ?Subroutine52 & 0xFFFF
   1497            *pBuf++ = NeighborLqiCount;
   1498          
   1499            for ( x = 0; x < NeighborLqiCount; x++ )
   \                     ??CrossCallReturnLabel_164:
   \   000080   75..00       MOV     ?V0 + 4,#0x0
   \   000083   02....       LJMP    ??ZDP_MgmtLqiRsp_2 & 0xFFFF
   1500            {
   1501              osal_cpyExtAddr( pBuf, list->extPanID);         // Extended PanID
   \                     ??ZDP_MgmtLqiRsp_3:
   \   000086                ; Setup parameters for call to function sAddrExtCpy
   \   000086   E5..         MOV     A,?V0 + 0
   \   000088   2402         ADD     A,#0x2
   \   00008A   FC           MOV     R4,A
   \   00008B   E5..         MOV     A,?V0 + 1
   \   00008D   12....       LCALL   ?Subroutine69 & 0xFFFF
   1502              pBuf += Z_EXTADDR_LEN;
   1503          
   1504              // EXTADDR
   1505              pBuf = osal_cpyExtAddr( pBuf, list->extAddr );
   \                     ??CrossCallReturnLabel_96:
   \   000090                ; Setup parameters for call to function sAddrExtCpy
   \   000090   E5..         MOV     A,?V0 + 0
   \   000092   240A         ADD     A,#0xa
   \   000094   FC           MOV     R4,A
   \   000095   E5..         MOV     A,?V0 + 1
   \   000097   3400         ADDC    A,#0x0
   \   000099   FD           MOV     R5,A
   \   00009A   EE           MOV     A,R6
   \   00009B   2408         ADD     A,#0x8
   \   00009D   FA           MOV     R2,A
   \   00009E   EF           MOV     A,R7
   \   00009F   3400         ADDC    A,#0x0
   \   0000A1   FB           MOV     R3,A
   \   0000A2   12....       LCALL   ??sAddrExtCpy?relay
   \   0000A5   8A..         MOV     ?V0 + 10,R2
   \   0000A7   8B..         MOV     ?V0 + 11,R3
   \   0000A9   AE..         MOV     R6,?V0 + 10
   \   0000AB   AF..         MOV     R7,?V0 + 11
   1506          
   1507              // NWKADDR
   1508              *pBuf++ = LO_UINT16( list->nwkAddr );
   \   0000AD   E5..         MOV     A,?V0 + 0
   \   0000AF   2412         ADD     A,#0x12
   \   0000B1   F8           MOV     R0,A
   \   0000B2   E5..         MOV     A,?V0 + 1
   \   0000B4   3400         ADDC    A,#0x0
   \   0000B6   12....       LCALL   ?Subroutine26 & 0xFFFF
   1509              *pBuf++ = HI_UINT16( list->nwkAddr );
   \                     ??CrossCallReturnLabel_24:
   \   0000B9   12....       LCALL   ??Subroutine111_0 & 0xFFFF
   1510          
   1511              // DEVICETYPE
   1512              *pBuf = list->devType;
   \                     ??CrossCallReturnLabel_195:
   \   0000BC   2414         ADD     A,#0x14
   \   0000BE   F582         MOV     DPL,A
   \   0000C0   E5..         MOV     A,?V0 + 1
   \   0000C2   12....       LCALL   ??Subroutine124_0 & 0xFFFF
   \                     ??CrossCallReturnLabel_287:
   \   0000C5   12....       LCALL   ??Subroutine110_0 & 0xFFFF
   1513          
   1514              // RXONIDLE
   1515              *pBuf |= (uint8)(list->rxOnIdle << 2);
   \                     ??CrossCallReturnLabel_188:
   \   0000C8   E5..         MOV     A,?V0 + 0
   \   0000CA   2415         ADD     A,#0x15
   \   0000CC   F582         MOV     DPL,A
   \   0000CE   E5..         MOV     A,?V0 + 1
   \   0000D0   12....       LCALL   ??Subroutine121_0 & 0xFFFF
   \                     ??CrossCallReturnLabel_263:
   \   0000D3   33           RLC     A
   \   0000D4   33           RLC     A
   \   0000D5   54FC         ANL     A,#0xfc
   \   0000D7   F8           MOV     R0,A
   \   0000D8   8E82         MOV     DPL,R6
   \   0000DA   8F83         MOV     DPH,R7
   \   0000DC   E0           MOVX    A,@DPTR
   \   0000DD   48           ORL     A,R0
   \   0000DE   F0           MOVX    @DPTR,A
   1516          
   1517              // RELATIONSHIP
   1518              *pBuf++ |= (uint8)(list->relation << 4);
   \   0000DF   EE           MOV     A,R6
   \   0000E0   F8           MOV     R0,A
   \   0000E1   EF           MOV     A,R7
   \   0000E2   F9           MOV     R1,A
   \   0000E3   A3           INC     DPTR
   \   0000E4   0E           INC     R6
   \   0000E5   AF83         MOV     R7,DPH
   \   0000E7   E5..         MOV     A,?V0 + 0
   \   0000E9   2416         ADD     A,#0x16
   \   0000EB   F582         MOV     DPL,A
   \   0000ED   E5..         MOV     A,?V0 + 1
   \   0000EF   12....       LCALL   ??Subroutine124_0 & 0xFFFF
   \                     ??CrossCallReturnLabel_288:
   \   0000F2   12....       LCALL   ??Subroutine106_0 & 0xFFFF
   1519          
   1520              // PERMITJOINING
   1521              *pBuf++ = (uint8)(list->permit);
   \                     ??CrossCallReturnLabel_171:
   \   0000F5   E5..         MOV     A,?V0 + 0
   \   0000F7   2417         ADD     A,#0x17
   \   0000F9   12....       LCALL   ?Subroutine12 & 0xFFFF
   1522          
   1523              // DEPTH
   1524              *pBuf++ = list->depth;
   1525          
   1526              // LQI
   1527              *pBuf++ = list->lqi;
   1528          
   1529              list++; // next list entry
   1530            }
   \                     ??CrossCallReturnLabel_192:
   \   0000FC   2418         ADD     A,#0x18
   \   0000FE   12....       LCALL   ?Subroutine12 & 0xFFFF
   \                     ??CrossCallReturnLabel_193:
   \   000101   2419         ADD     A,#0x19
   \   000103   12....       LCALL   ?Subroutine12 & 0xFFFF
   \                     ??CrossCallReturnLabel_194:
   \   000106   241A         ADD     A,#0x1a
   \   000108   F5..         MOV     ?V0 + 0,A
   \   00010A   E5..         MOV     A,?V0 + 1
   \   00010C   3400         ADDC    A,#0x0
   \   00010E   F5..         MOV     ?V0 + 1,A
   \   000110   05..         INC     ?V0 + 4
   \                     ??ZDP_MgmtLqiRsp_2:
   \   000112   E5..         MOV     A,?V0 + 4
   \   000114   C3           CLR     C
   \   000115   95..         SUBB    A,?V0 + 5
   \   000117   5003         JNC     $+5
   \   000119   02....       LJMP    ??ZDP_MgmtLqiRsp_3 & 0xFFFF
   1531          
   1532            FillAndSendBuffer( &TransSeq, dstAddr, Mgmt_Lqi_rsp, len, buf );
   \   00011C   90....       MOV     DPTR,#ZDP_TmpBuf
   \   00011F   E5..         MOV     A,?V0 + 8
   \   000121   F0           MOVX    @DPTR,A
   \   000122   A3           INC     DPTR
   \   000123   E5..         MOV     A,?V0 + 9
   \   000125   12....       LCALL   ?Subroutine61 & 0xFFFF
   \                     ??CrossCallReturnLabel_88:
   \   000128   12....       LCALL   ?PUSH_XSTACK_I_TWO
   \   00012B   A9..         MOV     R1,?V0 + 6
   \   00012D   AC..         MOV     R4,?V0 + 12
   \   00012F   AD..         MOV     R5,?V0 + 13
   \   000131   7402         MOV     A,#0x2
   \   000133   12....       LCALL   ?XSTACK_DISP0_8
   \   000136   AA82         MOV     R2,DPL
   \   000138   AB83         MOV     R3,DPH
   \   00013A   12....       LCALL   ??Subroutine118_0 & 0xFFFF
   \                     ??CrossCallReturnLabel_243:
   \   00013D   12....       LCALL   ?DEALLOC_XSTACK8
   \   000140   12....       LCALL   ?Subroutine58 & 0xFFFF
   \                     ??CrossCallReturnLabel_181:
   \   000143   7401         MOV     A,#0x1
   \   000145   12....       LCALL   ?DEALLOC_XSTACK8
   \   000148   7F0F         MOV     R7,#0xf
   \   00014A   02....       LJMP    ?BANKED_LEAVE_XDATA
   1533          }

   \                                 In  segment BANKED_CODE, align 1, keep-with-next
   \                     ?Subroutine61:
   \   000000   F0           MOVX    @DPTR,A
   \   000001                ; Setup parameters for call to function fillAndSend
   \   000001                ; Setup parameters for call to function fillAndSend
   \   000001   75..31       MOV     ?V0 + 0,#0x31
   \   000004   75..80       MOV     ?V0 + 1,#-0x80
   \   000007   78..         MOV     R0,#?V0 + 0
   \   000009   22           RET

   \                                 In  segment BANKED_CODE, align 1, keep-with-next
   \                     ?Subroutine58:
   \   000000   E9           MOV     A,R1
   \   000001   FE           MOV     R6,A
   \   000002                ; Setup parameters for call to function osal_mem_free
   \   000002                ; Setup parameters for call to function osal_mem_free
   \   000002   AA..         MOV     R2,?V0 + 2
   \   000004   AB..         MOV     R3,?V0 + 3
   \   000006                REQUIRE ??Subroutine108_0
   \   000006                ; // Fall through to label ??Subroutine108_0

   \                                 In  segment BANKED_CODE, align 1, keep-with-next
   \                     ?Subroutine12:
   \   000000   F582         MOV     DPL,A
   \   000002   E5..         MOV     A,?V0 + 1
   \   000004   3400         ADDC    A,#0x0
   \   000006   F583         MOV     DPH,A
   \   000008                REQUIRE ??Subroutine111_0
   \   000008                ; // Fall through to label ??Subroutine111_0

   \                                 In  segment BANKED_CODE, align 1, keep-with-next
   \                     ??Subroutine111_0:
   \   000000   12....       LCALL   ?Subroutine82 & 0xFFFF
   \                     ??CrossCallReturnLabel_197:
   \   000003   E5..         MOV     A,?V0 + 0
   \   000005   22           RET

   \                                 In  segment BANKED_CODE, align 1, keep-with-next
   \                     ?Subroutine68:
   \   000000   FA           MOV     R2,A
   \   000001   E4           CLR     A
   \   000002   3400         ADDC    A,#0x0
   \   000004   FB           MOV     R3,A
   \   000005   12....       LCALL   ??osal_mem_alloc?relay
   \   000008   8A..         MOV     ?V0 + 2,R2
   \   00000A   8B..         MOV     ?V0 + 3,R3
   \   00000C   EA           MOV     A,R2
   \   00000D   45..         ORL     A,?V0 + 3
   \   00000F   22           RET
   1534          
   1535          /*********************************************************************
   1536           * @fn          ZDP_MgmtRtgRsp
   1537           *
   1538           * @brief       This builds and send a Mgmt_Rtg_rsp message. This
   1539           *              function sends a unicast message.
   1540           *
   1541           * @param       dstAddr - destination address of the message
   1542           * @param       Status - message status (ZDP_SUCCESS or other)
   1543           * @param       RoutingTableEntries - Total number of entries
   1544           * @param       StartIndex - Starting index within the reporting list
   1545           * @param       RoutingTableListCount - number of entries included
   1546           *                                      in this message
   1547           * @param       RoutingTableList - List of Routing Table entries
   1548           * @param       SecurityEnable - true to enable security for this message
   1549           *
   1550           * @return      ZStatus_t
   1551           */

   \                                 In  segment BANKED_CODE, align 1, keep-with-next
   1552          ZStatus_t ZDP_MgmtRtgRsp( byte TransSeq, zAddrType_t *dstAddr,
   \                     ZDP_MgmtRtgRsp:
   1553                                      byte Status,
   1554                                      byte RoutingTableEntries,
   1555                                      byte StartIndex,
   1556                                      byte RoutingListCount,
   1557                                      rtgItem_t *RoutingTableList,
   1558                                      byte SecurityEnable )
   1559          {
   \   000000   74EC         MOV     A,#-0x14
   \   000002   12....       LCALL   ?BANKED_ENTER_XDATA
   \   000005                ; Saved register size: 20
   \   000005                ; Auto size: 1
   \   000005   74FF         MOV     A,#-0x1
   \   000007   12....       LCALL   ?ALLOC_XSTACK8
   \   00000A   E9           MOV     A,R1
   \   00000B   85..82       MOV     DPL,?XSP + 0
   \   00000E   85..83       MOV     DPH,?XSP + 1
   \   000011   F0           MOVX    @DPTR,A
   \   000012   8A..         MOV     ?V0 + 6,R2
   \   000014   8B..         MOV     ?V0 + 7,R3
   \   000016   8C..         MOV     ?V0 + 1,R4
   \   000018   8D..         MOV     ?V0 + 0,R5
   \   00001A   7415         MOV     A,#0x15
   \   00001C   12....       LCALL   ?XSTACK_DISP0_8
   \   00001F   E0           MOVX    A,@DPTR
   \   000020   F5..         MOV     ?V0 + 10,A
   \   000022   7416         MOV     A,#0x16
   \   000024   12....       LCALL   ?XSTACK_DISP0_8
   \   000027   E0           MOVX    A,@DPTR
   \   000028   F5..         MOV     ?V0 + 5,A
   \   00002A   7417         MOV     A,#0x17
   \   00002C   12....       LCALL   ?XSTACK_DISP0_8
   \   00002F   12....       LCALL   ??Subroutine107_0 & 0xFFFF
   1560            uint8 *buf;
   1561            uint8 *pBuf;
   1562            // Status + RoutingTableEntries + StartIndex + RoutingListCount.
   1563            byte len = 1 + 1 + 1 + 1;
   1564            byte x;
   1565          
   1566            (void)SecurityEnable;  // Intentionally unreferenced parameter
   1567          
   1568            // Add an array for Routing List data
   1569            len += (RoutingListCount * ZDP_ROUTINGENTRY_SIZE);
   \                     ??CrossCallReturnLabel_178:
   \   000032   75F005       MOV     B,#0x5
   \   000035   E5..         MOV     A,?V0 + 5
   \   000037   A4           MUL     AB
   \   000038   2404         ADD     A,#0x4
   \   00003A   F5..         MOV     ?V0 + 4,A
   1570          
   1571            buf = osal_mem_alloc( (short)(len+1) );
   \   00003C                ; Setup parameters for call to function osal_mem_alloc
   \   00003C   12....       LCALL   ?Subroutine67 & 0xFFFF
   \                     ??CrossCallReturnLabel_91:
   \   00003F   AE..         MOV     R6,?V0 + 8
   \   000041   AF..         MOV     R7,?V0 + 9
   1572            if ( buf == NULL )
   \   000043   EE           MOV     A,R6
   \   000044   4F           ORL     A,R7
   \   000045   7005         JNZ     ??ZDP_MgmtRtgRsp_0
   1573            {
   1574              return afStatus_MEM_FAIL;
   \   000047   7910         MOV     R1,#0x10
   \   000049   02....       LJMP    ??ZDP_MgmtRtgRsp_1 & 0xFFFF
   1575            }
   1576          
   1577            pBuf = buf+1;
   \                     ??ZDP_MgmtRtgRsp_0:
   \   00004C   8E82         MOV     DPL,R6
   \   00004E   8F83         MOV     DPH,R7
   \   000050   A3           INC     DPTR
   \   000051   AA82         MOV     R2,DPL
   \   000053   AB83         MOV     R3,DPH
   1578          
   1579            *pBuf++ = Status;
   \   000055   E5..         MOV     A,?V0 + 1
   \   000057   12....       LCALL   ??Subroutine93_0 & 0xFFFF
   1580            *pBuf++ = RoutingTableEntries;
   1581            *pBuf++ = StartIndex;
   \                     ??CrossCallReturnLabel_120:
   \   00005A   E5..         MOV     A,?V0 + 10
   \   00005C   F0           MOVX    @DPTR,A
   \   00005D   A3           INC     DPTR
   1582            *pBuf++ = RoutingListCount;
   \   00005E   E5..         MOV     A,?V0 + 5
   \   000060   12....       LCALL   ??Subroutine103_0 & 0xFFFF
   1583          
   1584            for ( x = 0; x < RoutingListCount; x++ )
   \                     ??CrossCallReturnLabel_156:
   \   000063   75..00       MOV     ?V0 + 8,#0x0
   \   000066   8031         SJMP    ??ZDP_MgmtRtgRsp_2
   1585            {
   1586              *pBuf++ = LO_UINT16( RoutingTableList->dstAddress );  // Destination Address
   \                     ??ZDP_MgmtRtgRsp_3:
   \   000068   85..82       MOV     DPL,?V0 + 2
   \   00006B   85..83       MOV     DPH,?V0 + 3
   \   00006E   12....       LCALL   ?Subroutine22 & 0xFFFF
   1587              *pBuf++ = HI_UINT16( RoutingTableList->dstAddress );
   \                     ??CrossCallReturnLabel_18:
   \   000071   12....       LCALL   ?Subroutine35 & 0xFFFF
   1588              *pBuf++ = RoutingTableList->status;
   \                     ??CrossCallReturnLabel_212:
   \   000074   85..82       MOV     DPL,?V0 + 2
   \   000077   85..83       MOV     DPH,?V0 + 3
   \   00007A   A3           INC     DPTR
   \   00007B   A3           INC     DPTR
   \   00007C   A3           INC     DPTR
   \   00007D   A3           INC     DPTR
   \   00007E   12....       LCALL   ?Subroutine35 & 0xFFFF
   1589              *pBuf++ = LO_UINT16( RoutingTableList->nextHopAddress );  // Next hop
   \                     ??CrossCallReturnLabel_213:
   \   000081   E5..         MOV     A,?V0 + 2
   \   000083   2402         ADD     A,#0x2
   \   000085   FC           MOV     R4,A
   \   000086   E5..         MOV     A,?V0 + 3
   \   000088   12....       LCALL   ?Subroutine15 & 0xFFFF
   1590              *pBuf++ = HI_UINT16( RoutingTableList->nextHopAddress );
   1591              RoutingTableList++;    // Move to next list entry
   \                     ??CrossCallReturnLabel_5:
   \   00008B   E5..         MOV     A,?V0 + 2
   \   00008D   2406         ADD     A,#0x6
   \   00008F   F5..         MOV     ?V0 + 2,A
   \   000091   E5..         MOV     A,?V0 + 3
   \   000093   3400         ADDC    A,#0x0
   \   000095   F5..         MOV     ?V0 + 3,A
   1592            }
   \   000097   05..         INC     ?V0 + 8
   \                     ??ZDP_MgmtRtgRsp_2:
   \   000099   E5..         MOV     A,?V0 + 8
   \   00009B   C3           CLR     C
   \   00009C   95..         SUBB    A,?V0 + 5
   \   00009E   40C8         JC      ??ZDP_MgmtRtgRsp_3
   1593          
   1594            FillAndSendBuffer( &TransSeq, dstAddr, Mgmt_Rtg_rsp, len, buf );
   \   0000A0   90....       MOV     DPTR,#ZDP_TmpBuf
   \   0000A3   EA           MOV     A,R2
   \   0000A4   12....       LCALL   ??Subroutine119_0 & 0xFFFF
   \                     ??CrossCallReturnLabel_250:
   \   0000A7                ; Setup parameters for call to function fillAndSend
   \   0000A7   75..32       MOV     ?V0 + 2,#0x32
   \   0000AA   75..80       MOV     ?V0 + 3,#-0x80
   \   0000AD   78..         MOV     R0,#?V0 + 2
   \   0000AF   12....       LCALL   ?PUSH_XSTACK_I_TWO
   \   0000B2   A9..         MOV     R1,?V0 + 4
   \   0000B4   AC..         MOV     R4,?V0 + 6
   \   0000B6   AD..         MOV     R5,?V0 + 7
   \   0000B8   7402         MOV     A,#0x2
   \   0000BA   12....       LCALL   ?XSTACK_DISP0_8
   \   0000BD   AA82         MOV     R2,DPL
   \   0000BF   AB83         MOV     R3,DPH
   \   0000C1   12....       LCALL   ??Subroutine118_0 & 0xFFFF
   \                     ??CrossCallReturnLabel_244:
   \   0000C4   12....       LCALL   ?DEALLOC_XSTACK8
   \   0000C7   E9           MOV     A,R1
   \   0000C8   F5..         MOV     ?V0 + 2,A
   \   0000CA                ; Setup parameters for call to function osal_mem_free
   \   0000CA   EE           MOV     A,R6
   \   0000CB   FA           MOV     R2,A
   \   0000CC   EF           MOV     A,R7
   \   0000CD   FB           MOV     R3,A
   \   0000CE   12....       LCALL   ?Subroutine74 & 0xFFFF
   \                     ??CrossCallReturnLabel_103:
   \   0000D1   A9..         MOV     R1,?V0 + 2
   \                     ??ZDP_MgmtRtgRsp_1:
   \   0000D3   7401         MOV     A,#0x1
   \   0000D5   12....       LCALL   ?DEALLOC_XSTACK8
   \   0000D8   02....       LJMP    ?Subroutine5 & 0xFFFF
   1595          }

   \                                 In  segment BANKED_CODE, align 1, keep-with-next
   \                     ?Subroutine35:
   \   000000   A3           INC     DPTR
   \   000001                REQUIRE ??Subroutine113_0
   \   000001                ; // Fall through to label ??Subroutine113_0

   \                                 In  segment BANKED_CODE, align 1, keep-with-next
   \                     ?Subroutine74:
   \   000000   12....       LCALL   ?Subroutine85 & 0xFFFF
   \                     ??CrossCallReturnLabel_185:
   \   000003   22           RET

   \                                 In  segment BANKED_CODE, align 1, keep-with-next
   \                     ?Subroutine67:
   \   000000   12....       LCALL   ?Subroutine84 & 0xFFFF
   \                     ??CrossCallReturnLabel_113:
   \   000003   8A..         MOV     ?V0 + 8,R2
   \   000005   8B..         MOV     ?V0 + 9,R3
   \   000007   22           RET
   1596          
   1597          /*********************************************************************
   1598           * @fn          ZDP_MgmtBindRsp
   1599           *
   1600           * @brief       This builds and send a Mgmt_Bind_rsp message. This
   1601           *              function sends a unicast message.
   1602           *
   1603           * @param       dstAddr - destination address of the message
   1604           * @param       Status - message status (ZDP_SUCCESS or other)
   1605           * @param       BindingTableEntries - Total number of entries
   1606           * @param       StartIndex - Starting index within the reporting list
   1607           * @param       BindingTableListCount - number of entries included
   1608           *                                 in this message
   1609           * @param       BindingTableList - List of Binding Table entries
   1610           * @param       SecurityEnable - Security Options
   1611           *
   1612           * @return      ZStatus_t
   1613           */

   \                                 In  segment BANKED_CODE, align 1, keep-with-next
   1614          ZStatus_t ZDP_MgmtBindRsp( byte TransSeq, zAddrType_t *dstAddr,
   \                     ZDP_MgmtBindRsp:
   1615                                      byte Status,
   1616                                      byte BindingTableEntries,
   1617                                      byte StartIndex,
   1618                                      byte BindingTableListCount,
   1619                                      apsBindingItem_t *BindingTableList,
   1620                                      byte SecurityEnable )
   1621          {
   \   000000   74EA         MOV     A,#-0x16
   \   000002   12....       LCALL   ?BANKED_ENTER_XDATA
   \   000005                ; Saved register size: 22
   \   000005                ; Auto size: 1
   \   000005   74FF         MOV     A,#-0x1
   \   000007   12....       LCALL   ?ALLOC_XSTACK8
   \   00000A   E9           MOV     A,R1
   \   00000B   85..82       MOV     DPL,?XSP + 0
   \   00000E   85..83       MOV     DPH,?XSP + 1
   \   000011   F0           MOVX    @DPTR,A
   \   000012   8A..         MOV     ?V0 + 12,R2
   \   000014   8B..         MOV     ?V0 + 13,R3
   \   000016   8C..         MOV     ?V0 + 10,R4
   \   000018   8D..         MOV     ?V0 + 5,R5
   \   00001A   7417         MOV     A,#0x17
   \   00001C   12....       LCALL   ?XSTACK_DISP0_8
   \   00001F   E0           MOVX    A,@DPTR
   \   000020   F5..         MOV     ?V0 + 0,A
   \   000022   7418         MOV     A,#0x18
   \   000024   12....       LCALL   ?XSTACK_DISP0_8
   \   000027   E0           MOVX    A,@DPTR
   \   000028   F5..         MOV     ?V0 + 4,A
   \   00002A   7419         MOV     A,#0x19
   \   00002C   12....       LCALL   ?XSTACK_DISP0_8
   \   00002F   12....       LCALL   ??Subroutine120_0 & 0xFFFF
   1622            uint8 *buf;
   1623            uint8 *pBuf;
   1624            uint8 maxLen; // maxLen is the maximum packet length to allocate enough memory space
   1625            uint8 len;    // Actual length varies due to different addrMode
   1626            uint8 x;
   1627            byte extZdpBindEntrySize = ZDP_BINDINGENTRY_SIZE + 1 + 1; // One more byte for cluserID and DstAddrMode
   1628            byte shortZdpBindEntrySize = ZDP_BINDINGENTRY_SIZE + 1 + 1 + 2 - 8 - 1; // clusterID + DstAddrMode + shortAddr - ExtAddr - DstEndpoint
   1629          
   1630            (void)SecurityEnable;  // Intentionally unreferenced parameter
   1631          
   1632            // Status + BindingTableEntries + StartIndex + BindingTableListCount.
   1633            maxLen = 1 + 1 + 1 + 1;
   1634            maxLen += (BindingTableListCount * extZdpBindEntrySize );  //max length
   1635            buf = osal_mem_alloc( maxLen + 1 );  // +1 for transaction ID
   \                     ??CrossCallReturnLabel_256:
   \   000032                ; Setup parameters for call to function osal_mem_alloc
   \   000032   75F015       MOV     B,#0x15
   \   000035   E5..         MOV     A,?V0 + 4
   \   000037   A4           MUL     AB
   \   000038   2405         ADD     A,#0x5
   \   00003A   12....       LCALL   ?Subroutine68 & 0xFFFF
   1636          
   1637            if ( buf == NULL )
   \                     ??CrossCallReturnLabel_94:
   \   00003D   7005         JNZ     ??ZDP_MgmtBindRsp_0
   1638            {
   1639              return afStatus_MEM_FAIL;
   \   00003F   7910         MOV     R1,#0x10
   \   000041   02....       LJMP    ??CrossCallReturnLabel_182 & 0xFFFF
   1640            }
   1641          
   1642            pBuf = buf+1;
   \                     ??ZDP_MgmtBindRsp_0:
   \   000044   8A82         MOV     DPL,R2
   \   000046   8B83         MOV     DPH,R3
   \   000048   A3           INC     DPTR
   \   000049   8582..       MOV     ?V0 + 6,DPL
   \   00004C   8583..       MOV     ?V0 + 7,DPH
   1643          
   1644            *pBuf++ = Status;
   \   00004F   E5..         MOV     A,?V0 + 10
   \   000051   F0           MOVX    @DPTR,A
   \   000052   A3           INC     DPTR
   1645            *pBuf++ = BindingTableEntries;
   \   000053   E5..         MOV     A,?V0 + 5
   \   000055   12....       LCALL   ??Subroutine93_0 & 0xFFFF
   1646            *pBuf++ = StartIndex;
   1647            *pBuf++ = BindingTableListCount;
   \                     ??CrossCallReturnLabel_121:
   \   000058   E5..         MOV     A,?V0 + 4
   \   00005A   12....       LCALL   ?Subroutine51 & 0xFFFF
   1648          
   1649            // Initial length = Status + BindingTableEntries + StartIndex + BindingTableListCount.
   1650            // length += ZDP_BINDINGENTRY_SIZE   -- Version 1.0
   1651            //           extZdpBindEntrySize     -- Version 1.1 extended address mode
   1652            //           shortZdpBindEntrySize   -- Version 1.1 group address mode
   1653          
   1654            len = 1 + 1 + 1 + 1;
   \                     ??CrossCallReturnLabel_68:
   \   00005D   75..04       MOV     ?V0 + 0,#0x4
   1655            for ( x = 0; x < BindingTableListCount; x++ )
   \   000060   75..00       MOV     ?V0 + 1,#0x0
   \   000063   8021         SJMP    ??ZDP_MgmtBindRsp_1
   1656            {
   1657              pBuf = osal_cpyExtAddr( pBuf, BindingTableList->srcAddr );
   1658              *pBuf++ = BindingTableList->srcEP;
   1659          
   1660              // Cluster ID
   1661              *pBuf++ = LO_UINT16( BindingTableList->clusterID );
   1662              *pBuf++ = HI_UINT16( BindingTableList->clusterID );
   1663          
   1664              *pBuf++ = BindingTableList->dstAddr.addrMode;
   1665              if ( BindingTableList->dstAddr.addrMode == Addr64Bit )
   1666              {
   1667                len += extZdpBindEntrySize;
   1668                pBuf = osal_cpyExtAddr( pBuf, BindingTableList->dstAddr.addr.extAddr );
   1669                *pBuf++ = BindingTableList->dstEP;
   1670              }
   1671              else
   1672              {
   1673                len += shortZdpBindEntrySize;
   \                     ??ZDP_MgmtBindRsp_2:
   \   000065   740E         MOV     A,#0xe
   \   000067   25..         ADD     A,?V0 + 0
   \   000069   F5..         MOV     ?V0 + 0,A
   1674                *pBuf++ = LO_UINT16( BindingTableList->dstAddr.addr.shortAddr );
   \   00006B   8C82         MOV     DPL,R4
   \   00006D   8D83         MOV     DPH,R5
   \   00006F   12....       LCALL   ?Subroutine41 & 0xFFFF
   1675                *pBuf++ = HI_UINT16( BindingTableList->dstAddr.addr.shortAddr );
   \                     ??CrossCallReturnLabel_49:
   \   000072   8C82         MOV     DPL,R4
   \   000074   8D83         MOV     DPH,R5
   \   000076   A3           INC     DPTR
   \   000077   12....       LCALL   ?Subroutine88 & 0xFFFF
   1676              }
   \                     ??CrossCallReturnLabel_116:
   \   00007A   AB83         MOV     R3,DPH
   1677              BindingTableList++;    // Move to next list entry
   \   00007C   EE           MOV     A,R6
   \   00007D   2415         ADD     A,#0x15
   \   00007F   FE           MOV     R6,A
   \   000080   EF           MOV     A,R7
   \   000081   3400         ADDC    A,#0x0
   \   000083   FF           MOV     R7,A
   \   000084   05..         INC     ?V0 + 1
   \                     ??ZDP_MgmtBindRsp_1:
   \   000086   E5..         MOV     A,?V0 + 1
   \   000088   C3           CLR     C
   \   000089   95..         SUBB    A,?V0 + 4
   \   00008B   5055         JNC     ??ZDP_MgmtBindRsp_3
   \   00008D                ; Setup parameters for call to function sAddrExtCpy
   \   00008D   EE           MOV     A,R6
   \   00008E   FC           MOV     R4,A
   \   00008F   EF           MOV     A,R7
   \   000090   FD           MOV     R5,A
   \   000091   12....       LCALL   ??sAddrExtCpy?relay
   \   000094   8E82         MOV     DPL,R6
   \   000096   8F83         MOV     DPH,R7
   \   000098   A3           INC     DPTR
   \   000099   A3           INC     DPTR
   \   00009A   A3           INC     DPTR
   \   00009B   A3           INC     DPTR
   \   00009C   A3           INC     DPTR
   \   00009D   A3           INC     DPTR
   \   00009E   A3           INC     DPTR
   \   00009F   A3           INC     DPTR
   \   0000A0   12....       LCALL   ?Subroutine48 & 0xFFFF
   \                     ??CrossCallReturnLabel_61:
   \   0000A3   AB83         MOV     R3,DPH
   \   0000A5   EE           MOV     A,R6
   \   0000A6   2409         ADD     A,#0x9
   \   0000A8   F8           MOV     R0,A
   \   0000A9   EF           MOV     A,R7
   \   0000AA   3400         ADDC    A,#0x0
   \   0000AC   F9           MOV     R1,A
   \   0000AD   12....       LCALL   ?Subroutine28 & 0xFFFF
   \                     ??CrossCallReturnLabel_28:
   \   0000B0   A3           INC     DPTR
   \   0000B1   12....       LCALL   ?Subroutine40 & 0xFFFF
   \                     ??CrossCallReturnLabel_45:
   \   0000B4   2413         ADD     A,#0x13
   \   0000B6   F8           MOV     R0,A
   \   0000B7   EF           MOV     A,R7
   \   0000B8   12....       LCALL   ?Subroutine71 & 0xFFFF
   \                     ??CrossCallReturnLabel_98:
   \   0000BB   12....       LCALL   ?Subroutine40 & 0xFFFF
   \                     ??CrossCallReturnLabel_46:
   \   0000BE   240B         ADD     A,#0xb
   \   0000C0   FC           MOV     R4,A
   \   0000C1   EF           MOV     A,R7
   \   0000C2   3400         ADDC    A,#0x0
   \   0000C4   FD           MOV     R5,A
   \   0000C5   8882         MOV     DPL,R0
   \   0000C7   8983         MOV     DPH,R1
   \   0000C9   E0           MOVX    A,@DPTR
   \   0000CA   6403         XRL     A,#0x3
   \   0000CC   7097         JNZ     ??ZDP_MgmtBindRsp_2
   \   0000CE   7415         MOV     A,#0x15
   \   0000D0   25..         ADD     A,?V0 + 0
   \   0000D2   F5..         MOV     ?V0 + 0,A
   \   0000D4                ; Setup parameters for call to function sAddrExtCpy
   \   0000D4   12....       LCALL   ??sAddrExtCpy?relay
   \   0000D7   EE           MOV     A,R6
   \   0000D8   2414         ADD     A,#0x14
   \   0000DA   12....       LCALL   ?Subroutine70 & 0xFFFF
   1678            }
   \                     ??CrossCallReturnLabel_293:
   \   0000DD   12....       LCALL   ?Subroutine48 & 0xFFFF
   \                     ??CrossCallReturnLabel_62:
   \   0000E0   8098         SJMP    ??CrossCallReturnLabel_116
   1679          
   1680            FillAndSendBuffer( &TransSeq, dstAddr, Mgmt_Bind_rsp, len, buf );
   \                     ??ZDP_MgmtBindRsp_3:
   \   0000E2   90....       MOV     DPTR,#ZDP_TmpBuf
   \   0000E5   E5..         MOV     A,?V0 + 6
   \   0000E7   F0           MOVX    @DPTR,A
   \   0000E8   A3           INC     DPTR
   \   0000E9   E5..         MOV     A,?V0 + 7
   \   0000EB   F0           MOVX    @DPTR,A
   \   0000EC                ; Setup parameters for call to function fillAndSend
   \   0000EC   75..33       MOV     ?V0 + 6,#0x33
   \   0000EF   75..80       MOV     ?V0 + 7,#-0x80
   \   0000F2   78..         MOV     R0,#?V0 + 6
   \   0000F4   12....       LCALL   ?PUSH_XSTACK_I_TWO
   \   0000F7   A9..         MOV     R1,?V0 + 0
   \   0000F9   AC..         MOV     R4,?V0 + 12
   \   0000FB   AD..         MOV     R5,?V0 + 13
   \   0000FD   7402         MOV     A,#0x2
   \   0000FF   12....       LCALL   ?XSTACK_DISP0_8
   \   000102   AA82         MOV     R2,DPL
   \   000104   AB83         MOV     R3,DPH
   \   000106   12....       LCALL   ??Subroutine118_0 & 0xFFFF
   \                     ??CrossCallReturnLabel_245:
   \   000109   12....       LCALL   ?DEALLOC_XSTACK8
   \   00010C   12....       LCALL   ?Subroutine58 & 0xFFFF
   \                     ??CrossCallReturnLabel_182:
   \   00010F   02....       LJMP    ?Subroutine4 & 0xFFFF
   1681          }

   \                                 In  segment BANKED_CODE, align 1, keep-with-next
   \                     ?Subroutine48:
   \   000000   E0           MOVX    A,@DPTR
   \   000001   8A82         MOV     DPL,R2
   \   000003   8B83         MOV     DPH,R3
   \   000005   F0           MOVX    @DPTR,A
   \   000006   A3           INC     DPTR
   \   000007   AA82         MOV     R2,DPL
   \   000009   22           RET

   \                                 In  segment BANKED_CODE, align 1, keep-with-next
   \                     ?Subroutine40:
   \   000000   12....       LCALL   ?Subroutine80 & 0xFFFF
   \                     ??CrossCallReturnLabel_110:
   \   000003   EE           MOV     A,R6
   \   000004   22           RET
   1682          
   1683          /*********************************************************************
   1684           * @fn          ZDP_MgmtNwkUpdateNotify
   1685           *
   1686           * @brief       This builds and send a Mgmt_NWK_Update_notify message. This
   1687           *              function sends a unicast message.
   1688           *
   1689           * @param       dstAddr - destination address of the message
   1690           * @param       status - message status (ZDP_SUCCESS or other)
   1691           * @param       scannedChannels - List of channels scanned by the request
   1692           * @param       totalTransmissions - Total transmissions
   1693           * @param       transmissionFailures - Sum of transmission failures
   1694           * @param       listCount - Number of records contained in the energyValues list
   1695           * @param       energyValues - List of descriptors, one for each of ListCount,
   1696           *                             of the enegry detect descriptors
   1697           * @param       txOptions - Transmit options
   1698           * @param       securityEnable - Security options
   1699           *
   1700           * @return      afStatus_t
   1701           */

   \                                 In  segment BANKED_CODE, align 1, keep-with-next
   1702          afStatus_t ZDP_MgmtNwkUpdateNotify( uint8 TransSeq, zAddrType_t *dstAddr,
   \                     ZDP_MgmtNwkUpdateNotify:
   1703                                              uint8 status, uint32 scannedChannels,
   1704                                              uint16 totalTransmissions, uint16 transmissionFailures,
   1705                                              uint8 listCount, uint8 *energyValues, uint8 txOptions,
   1706                                              uint8 securityEnable )
   1707          {
   \   000000   74E8         MOV     A,#-0x18
   \   000002   12....       LCALL   ?BANKED_ENTER_XDATA
   \   000005                ; Saved register size: 24
   \   000005                ; Auto size: 3
   \   000005   74FD         MOV     A,#-0x3
   \   000007   12....       LCALL   ?ALLOC_XSTACK8
   \   00000A   E9           MOV     A,R1
   \   00000B   85..82       MOV     DPL,?XSP + 0
   \   00000E   85..83       MOV     DPH,?XSP + 1
   \   000011   F0           MOVX    @DPTR,A
   \   000012   7401         MOV     A,#0x1
   \   000014   12....       LCALL   ?XSTACK_DISP0_8
   \   000017   EA           MOV     A,R2
   \   000018   12....       LCALL   ??Subroutine119_0 & 0xFFFF
   \                     ??CrossCallReturnLabel_251:
   \   00001B   8C..         MOV     ?V0 + 13,R4
   \   00001D   8D..         MOV     ?V0 + 2,R5
   \   00001F   741B         MOV     A,#0x1b
   \   000021   12....       LCALL   ?XSTACK_DISP0_8
   \   000024   78..         MOV     R0,#?V0 + 4
   \   000026   12....       LCALL   ?L_MOV_X
   \   000029   741F         MOV     A,#0x1f
   \   00002B   12....       LCALL   ?XSTACK_DISP0_8
   \   00002E   12....       LCALL   ??Subroutine120_0 & 0xFFFF
   \                     ??CrossCallReturnLabel_257:
   \   000031   7421         MOV     A,#0x21
   \   000033   12....       LCALL   ?XSTACK_DISP0_8
   \   000036   12....       LCALL   ??Subroutine112_0 & 0xFFFF
   \                     ??CrossCallReturnLabel_204:
   \   000039   7423         MOV     A,#0x23
   \   00003B   12....       LCALL   ?XSTACK_DISP0_8
   \   00003E   E0           MOVX    A,@DPTR
   \   00003F   F5..         MOV     ?V0 + 14,A
   \   000041   A3           INC     DPTR
   \   000042   E0           MOVX    A,@DPTR
   \   000043   F5..         MOV     ?V0 + 15,A
   \   000045   7425         MOV     A,#0x25
   \   000047   12....       LCALL   ?XSTACK_DISP0_8
   \   00004A   E0           MOVX    A,@DPTR
   \   00004B   F5..         MOV     ?V0 + 12,A
   1708            uint8 *buf;
   1709            uint8 *pBuf;
   1710            uint8 len;
   1711          
   1712            (void)securityEnable;  // Intentionally unreferenced parameter
   1713          
   1714            // Status + ScannedChannels + totalTransmissions + transmissionFailures + ListCount + energyValues
   1715            len = 1 + 4 + 2 + 2 + 1 + listCount;
   \   00004D   740A         MOV     A,#0xa
   \   00004F   25..         ADD     A,?V0 + 2
   \   000051   F5..         MOV     ?V0 + 3,A
   1716          
   1717            buf = osal_mem_alloc( len+1 ); // +1 for transaction ID
   \   000053                ; Setup parameters for call to function osal_mem_alloc
   \   000053   12....       LCALL   ?Subroutine67 & 0xFFFF
   1718            if ( buf == NULL )
   \                     ??CrossCallReturnLabel_92:
   \   000056   EA           MOV     A,R2
   \   000057   45..         ORL     A,?V0 + 9
   \   000059   7005         JNZ     ??ZDP_MgmtNwkUpdateNotify_0
   1719            {
   1720              return afStatus_MEM_FAIL;
   \   00005B   7910         MOV     R1,#0x10
   \   00005D   02....       LJMP    ??ZDP_MgmtNwkUpdateNotify_1 & 0xFFFF
   1721            }
   1722          
   1723            pBuf = buf+1;
   \                     ??ZDP_MgmtNwkUpdateNotify_0:
   \   000060   8A82         MOV     DPL,R2
   \   000062   8B83         MOV     DPH,R3
   \   000064   A3           INC     DPTR
   \   000065   8582..       MOV     ?V0 + 10,DPL
   \   000068   8583..       MOV     ?V0 + 11,DPH
   1724          
   1725            *pBuf++ = status;
   \   00006B   E5..         MOV     A,?V0 + 13
   \   00006D   12....       LCALL   ?Subroutine51 & 0xFFFF
   1726          
   1727            pBuf = osal_buffer_uint32( pBuf, scannedChannels );
   \                     ??CrossCallReturnLabel_69:
   \   000070                ; Setup parameters for call to function osal_buffer_uint32
   \   000070   78..         MOV     R0,#?V0 + 4
   \   000072   12....       LCALL   ?PUSH_XSTACK_I_FOUR
   \   000075   12....       LCALL   ??osal_buffer_uint32?relay
   \   000078   7404         MOV     A,#0x4
   \   00007A   12....       LCALL   ?DEALLOC_XSTACK8
   1728          
   1729            *pBuf++ = LO_UINT16( totalTransmissions );
   \   00007D   EE           MOV     A,R6
   \   00007E   8A82         MOV     DPL,R2
   \   000080   8B83         MOV     DPH,R3
   \   000082   F0           MOVX    @DPTR,A
   \   000083   A3           INC     DPTR
   1730            *pBuf++ = HI_UINT16( totalTransmissions );
   \   000084   EF           MOV     A,R7
   \   000085   12....       LCALL   ?Subroutine54 & 0xFFFF
   1731          
   1732            *pBuf++ = LO_UINT16( transmissionFailures );
   1733            *pBuf++ = HI_UINT16( transmissionFailures );
   1734          
   1735            *pBuf++ = listCount;
   \                     ??CrossCallReturnLabel_74:
   \   000088   12....       LCALL   ?Subroutine51 & 0xFFFF
   1736          
   1737            if ( listCount > 0 )
   \                     ??CrossCallReturnLabel_70:
   \   00008B   6019         JZ      ??ZDP_MgmtNwkUpdateNotify_2
   1738              osal_memcpy( pBuf, energyValues, listCount );
   \   00008D                ; Setup parameters for call to function osal_memcpy
   \   00008D   85....       MOV     ?V0 + 4,?V0 + 14
   \   000090   85....       MOV     ?V0 + 5,?V0 + 15
   \   000093   75..00       MOV     ?V0 + 6,#0x0
   \   000096   78..         MOV     R0,#?V0 + 4
   \   000098   12....       LCALL   ?PUSH_XSTACK_I_THREE
   \   00009B   85....       MOV     ?V0 + 0,?V0 + 2
   \   00009E   AC..         MOV     R4,?V0 + 0
   \   0000A0   12....       LCALL   ?Subroutine72 & 0xFFFF
   \                     ??CrossCallReturnLabel_140:
   \   0000A3   12....       LCALL   ?DEALLOC_XSTACK8
   1739          
   1740            FillAndSendBufferTxOptions( &TransSeq, dstAddr, Mgmt_NWK_Update_notify, len, buf, txOptions );
   \                     ??ZDP_MgmtNwkUpdateNotify_2:
   \   0000A6   90....       MOV     DPTR,#ZDP_TmpBuf
   \   0000A9   E5..         MOV     A,?V0 + 10
   \   0000AB   F0           MOVX    @DPTR,A
   \   0000AC   A3           INC     DPTR
   \   0000AD   E5..         MOV     A,?V0 + 11
   \   0000AF   F0           MOVX    @DPTR,A
   \   0000B0   E5..         MOV     A,?V0 + 12
   \   0000B2   90....       MOV     DPTR,#ZDP_TxOptions
   \   0000B5   F0           MOVX    @DPTR,A
   \   0000B6                ; Setup parameters for call to function fillAndSend
   \   0000B6   75..38       MOV     ?V0 + 0,#0x38
   \   0000B9   75..80       MOV     ?V0 + 1,#-0x80
   \   0000BC   78..         MOV     R0,#?V0 + 0
   \   0000BE   12....       LCALL   ?PUSH_XSTACK_I_TWO
   \   0000C1   A9..         MOV     R1,?V0 + 3
   \   0000C3   7403         MOV     A,#0x3
   \   0000C5   12....       LCALL   ?XSTACK_DISP0_8
   \   0000C8   12....       LCALL   ?Subroutine47 & 0xFFFF
   \                     ??CrossCallReturnLabel_60:
   \   0000CB   7402         MOV     A,#0x2
   \   0000CD   12....       LCALL   ?XSTACK_DISP0_8
   \   0000D0   AA82         MOV     R2,DPL
   \   0000D2   AB83         MOV     R3,DPH
   \   0000D4   12....       LCALL   ??Subroutine118_0 & 0xFFFF
   \                     ??CrossCallReturnLabel_246:
   \   0000D7   12....       LCALL   ?DEALLOC_XSTACK8
   \   0000DA   E9           MOV     A,R1
   \   0000DB   FE           MOV     R6,A
   \   0000DC                ; Setup parameters for call to function osal_mem_free
   \   0000DC   AA..         MOV     R2,?V0 + 8
   \   0000DE   AB..         MOV     R3,?V0 + 9
   \   0000E0   12....       LCALL   ?Subroutine74 & 0xFFFF
   \                     ??CrossCallReturnLabel_104:
   \   0000E3   90....       MOV     DPTR,#ZDP_TxOptions
   \   0000E6   E4           CLR     A
   \   0000E7   F0           MOVX    @DPTR,A
   \   0000E8   EE           MOV     A,R6
   \   0000E9   F9           MOV     R1,A
   \                     ??ZDP_MgmtNwkUpdateNotify_1:
   \   0000EA   7403         MOV     A,#0x3
   \   0000EC   12....       LCALL   ?DEALLOC_XSTACK8
   \   0000EF   02....       LJMP    ?Subroutine6 & 0xFFFF
   1741          }
   1742          
   1743          /*********************************************************************
   1744           * Functions to register for ZDO Over-the-air messages
   1745           */
   1746          
   1747          /*********************************************************************
   1748           * @fn          ZDO_RegisterForZDOMsg
   1749           *
   1750           * @brief       Call this function to register of an incoming over
   1751           *              the air ZDO message - probably a response message
   1752           *              but requests can also be received.
   1753           *              Messages are delivered to the task with ZDO_CB_MSG
   1754           *              as the message ID.
   1755           *
   1756           * @param       taskID - Where you would like the message delivered
   1757           * @param       clusterID - What message?
   1758           *
   1759           * @return      ZSuccess - successful, ZMemError if not
   1760           */

   \                                 In  segment BANKED_CODE, align 1, keep-with-next
   1761          ZStatus_t ZDO_RegisterForZDOMsg( uint8 taskID, uint16 clusterID )
   \                     ZDO_RegisterForZDOMsg:
   1762          {
   \   000000   74F2         MOV     A,#-0xe
   \   000002   12....       LCALL   ?BANKED_ENTER_XDATA
   \   000005                ; Saved register size: 14
   \   000005                ; Auto size: 0
   \   000005   89..         MOV     ?V0 + 2,R1
   \   000007   8A..         MOV     ?V0 + 0,R2
   \   000009   8B..         MOV     ?V0 + 1,R3
   1763            ZDO_MsgCB_t *pList;
   1764            ZDO_MsgCB_t *pLast;
   1765            ZDO_MsgCB_t *pNew;
   1766          
   1767            // Look for duplicate
   1768            pList = pLast = zdoMsgCBs;
   \   00000B   90....       MOV     DPTR,#zdoMsgCBs
   \   00000E   12....       LCALL   ??Subroutine120_0 & 0xFFFF
   \                     ??CrossCallReturnLabel_258:
   \   000011   EE           MOV     A,R6
   \   000012   F8           MOV     R0,A
   \   000013   EF           MOV     A,R7
   \   000014   800C         SJMP    ??ZDO_RegisterForZDOMsg_0
   1769            while ( pList )
   1770            {
   1771              if ( pList->taskID == taskID && pList->clusterID == clusterID )
   1772                return ( ZSuccess );
   1773              pLast = pList;
   \                     ??ZDO_RegisterForZDOMsg_1:
   \   000016   E8           MOV     A,R0
   \   000017   FE           MOV     R6,A
   \   000018   E9           MOV     A,R1
   \   000019   FF           MOV     R7,A
   1774              pList = (ZDO_MsgCB_t *)pList->next;
   \   00001A   8882         MOV     DPL,R0
   \   00001C   8983         MOV     DPH,R1
   \   00001E   E0           MOVX    A,@DPTR
   \   00001F   F8           MOV     R0,A
   \   000020   A3           INC     DPTR
   \   000021   E0           MOVX    A,@DPTR
   \                     ??ZDO_RegisterForZDOMsg_0:
   \   000022   F9           MOV     R1,A
   \   000023   E8           MOV     A,R0
   \   000024   49           ORL     A,R1
   \   000025   6021         JZ      ??ZDO_RegisterForZDOMsg_2
   \   000027   8882         MOV     DPL,R0
   \   000029   8983         MOV     DPH,R1
   \   00002B   A3           INC     DPTR
   \   00002C   A3           INC     DPTR
   \   00002D   E0           MOVX    A,@DPTR
   \   00002E   65..         XRL     A,?V0 + 2
   \   000030   70E4         JNZ     ??ZDO_RegisterForZDOMsg_1
   \   000032   8882         MOV     DPL,R0
   \   000034   8983         MOV     DPH,R1
   \   000036   A3           INC     DPTR
   \   000037   A3           INC     DPTR
   \   000038   A3           INC     DPTR
   \   000039   E0           MOVX    A,@DPTR
   \   00003A   65..         XRL     A,?V0 + 0
   \   00003C   7004         JNZ     ??ZDO_RegisterForZDOMsg_3
   \   00003E   A3           INC     DPTR
   \   00003F   E0           MOVX    A,@DPTR
   \   000040   65..         XRL     A,?V0 + 1
   \                     ??ZDO_RegisterForZDOMsg_3:
   \   000042   70D2         JNZ     ??ZDO_RegisterForZDOMsg_1
   \                     ??ZDO_RegisterForZDOMsg_4:
   \   000044   7900         MOV     R1,#0x0
   \   000046   8048         SJMP    ??ZDO_RegisterForZDOMsg_5
   1775            }
   1776          
   1777            // Add to the list
   1778            pNew = (ZDO_MsgCB_t *)osal_mem_alloc( sizeof ( ZDO_MsgCB_t ) );
   \                     ??ZDO_RegisterForZDOMsg_2:
   \   000048                ; Setup parameters for call to function osal_mem_alloc
   \   000048   7A05         MOV     R2,#0x5
   \   00004A   7B00         MOV     R3,#0x0
   \   00004C   12....       LCALL   ??osal_mem_alloc?relay
   \   00004F   8A..         MOV     ?V0 + 4,R2
   \   000051   8B..         MOV     ?V0 + 5,R3
   \   000053   A8..         MOV     R0,?V0 + 4
   \   000055   A9..         MOV     R1,?V0 + 5
   1779            if ( pNew )
   \   000057   E8           MOV     A,R0
   \   000058   49           ORL     A,R1
   \   000059   6033         JZ      ??ZDO_RegisterForZDOMsg_6
   1780            {
   1781              pNew->taskID = taskID;
   \   00005B   8882         MOV     DPL,R0
   \   00005D   8983         MOV     DPH,R1
   \   00005F   A3           INC     DPTR
   \   000060   A3           INC     DPTR
   \   000061   E5..         MOV     A,?V0 + 2
   \   000063   12....       LCALL   ?Subroutine60 & 0xFFFF
   1782              pNew->clusterID = clusterID;
   \                     ??CrossCallReturnLabel_84:
   \   000066   A3           INC     DPTR
   \   000067   A3           INC     DPTR
   \   000068   A3           INC     DPTR
   \   000069   E5..         MOV     A,?V0 + 0
   \   00006B   F0           MOVX    @DPTR,A
   \   00006C   A3           INC     DPTR
   \   00006D   E5..         MOV     A,?V0 + 1
   \   00006F   12....       LCALL   ?Subroutine60 & 0xFFFF
   1783              pNew->next = NULL;
   \                     ??CrossCallReturnLabel_85:
   \   000072   E4           CLR     A
   \   000073   F0           MOVX    @DPTR,A
   \   000074   A3           INC     DPTR
   \   000075   F0           MOVX    @DPTR,A
   1784              if ( zdoMsgCBs )
   \   000076   90....       MOV     DPTR,#zdoMsgCBs
   \   000079   12....       LCALL   ??Subroutine98_0 & 0xFFFF
   \                     ??CrossCallReturnLabel_133:
   \   00007C   EA           MOV     A,R2
   \   00007D   4B           ORL     A,R3
   \   00007E   6009         JZ      ??ZDO_RegisterForZDOMsg_7
   1785              {
   1786                pLast->next = pNew;
   \   000080   8E82         MOV     DPL,R6
   \   000082   8F83         MOV     DPH,R7
   1787              }
   \                     ??ZDO_RegisterForZDOMsg_8:
   \   000084   12....       LCALL   ??Subroutine125_0 & 0xFFFF
   \                     ??CrossCallReturnLabel_298:
   \   000087   80BB         SJMP    ??ZDO_RegisterForZDOMsg_4
   1788              else
   1789                zdoMsgCBs = pNew;
   \                     ??ZDO_RegisterForZDOMsg_7:
   \   000089   90....       MOV     DPTR,#zdoMsgCBs
   \   00008C   80F6         SJMP    ??ZDO_RegisterForZDOMsg_8
   1790              return ( ZSuccess );
   1791            }
   1792            else
   1793              return ( ZMemError );
   \                     ??ZDO_RegisterForZDOMsg_6:
   \   00008E   7910         MOV     R1,#0x10
   \                     ??ZDO_RegisterForZDOMsg_5:
   \   000090   02....       LJMP    ?Subroutine1 & 0xFFFF
   1794          }
   1795          
   1796          /*********************************************************************
   1797           * @fn          ZDO_RemoveRegisteredCB
   1798           *
   1799           * @brief       Call this function if you don't want to receive the
   1800           *              incoming message.
   1801           *
   1802           * @param       taskID - Where the messages are being delivered.
   1803           * @param       clusterID - What message?
   1804           *
   1805           * @return      ZSuccess - successful, ZFailure if not found
   1806           */

   \                                 In  segment BANKED_CODE, align 1, keep-with-next
   1807          ZStatus_t ZDO_RemoveRegisteredCB( uint8 taskID, uint16 clusterID )
   \                     ZDO_RemoveRegisteredCB:
   1808          {
   \   000000   74F7         MOV     A,#-0x9
   \   000002   12....       LCALL   ?BANKED_ENTER_XDATA
   \   000005                ; Saved register size: 9
   \   000005                ; Auto size: 0
   \   000005   E9           MOV     A,R1
   \   000006   FE           MOV     R6,A
   1809            ZDO_MsgCB_t *pList;
   1810            ZDO_MsgCB_t *pLast = NULL;
   \   000007   7C00         MOV     R4,#0x0
   \   000009   7D00         MOV     R5,#0x0
   1811          
   1812            pList = zdoMsgCBs;
   \   00000B   90....       MOV     DPTR,#zdoMsgCBs
   \   00000E   8008         SJMP    ??ZDO_RemoveRegisteredCB_0
   1813            while ( pList )
   1814            {
   1815              if ( pList->taskID == taskID && pList->clusterID == clusterID )
   1816              {
   1817                if ( pLast )
   1818                {
   1819                  // remove this one from the linked list
   1820                  pLast->next = pList->next;
   1821                }
   1822                else if ( pList->next )
   1823                {
   1824                  // remove the first one from the linked list
   1825                  zdoMsgCBs = pList->next;
   1826                }
   1827                else
   1828                {
   1829                  // remove the only item from the list
   1830                  zdoMsgCBs = (ZDO_MsgCB_t *)NULL;
   1831                }
   1832                osal_mem_free( pList );
   1833                return ( ZSuccess );
   1834              }
   1835              pLast = pList;
   \                     ??ZDO_RemoveRegisteredCB_1:
   \   000010   E8           MOV     A,R0
   \   000011   FC           MOV     R4,A
   \   000012   E9           MOV     A,R1
   \   000013   FD           MOV     R5,A
   1836              pList = pList->next;
   \   000014   8882         MOV     DPL,R0
   \   000016   8983         MOV     DPH,R1
   \                     ??ZDO_RemoveRegisteredCB_0:
   \   000018   12....       LCALL   ?Subroutine29 & 0xFFFF
   \                     ??CrossCallReturnLabel_29:
   \   00001B   49           ORL     A,R1
   \   00001C   6045         JZ      ??ZDO_RemoveRegisteredCB_2
   \   00001E   8882         MOV     DPL,R0
   \   000020   8983         MOV     DPH,R1
   \   000022   A3           INC     DPTR
   \   000023   A3           INC     DPTR
   \   000024   E0           MOVX    A,@DPTR
   \   000025   6E           XRL     A,R6
   \   000026   70E8         JNZ     ??ZDO_RemoveRegisteredCB_1
   \   000028   8882         MOV     DPL,R0
   \   00002A   8983         MOV     DPH,R1
   \   00002C   A3           INC     DPTR
   \   00002D   A3           INC     DPTR
   \   00002E   A3           INC     DPTR
   \   00002F   E0           MOVX    A,@DPTR
   \   000030   6A           XRL     A,R2
   \   000031   7003         JNZ     ??ZDO_RemoveRegisteredCB_3
   \   000033   A3           INC     DPTR
   \   000034   E0           MOVX    A,@DPTR
   \   000035   6B           XRL     A,R3
   \                     ??ZDO_RemoveRegisteredCB_3:
   \   000036   70D8         JNZ     ??ZDO_RemoveRegisteredCB_1
   \   000038   8882         MOV     DPL,R0
   \   00003A   8983         MOV     DPH,R1
   \   00003C   12....       LCALL   ??Subroutine98_0 & 0xFFFF
   \                     ??CrossCallReturnLabel_134:
   \   00003F   EC           MOV     A,R4
   \   000040   4D           ORL     A,R5
   \   000041   600A         JZ      ??ZDO_RemoveRegisteredCB_4
   \   000043   8C82         MOV     DPL,R4
   \   000045   8D83         MOV     DPH,R5
   \                     ??ZDO_RemoveRegisteredCB_5:
   \   000047   EA           MOV     A,R2
   \   000048   F0           MOVX    @DPTR,A
   \   000049   A3           INC     DPTR
   \   00004A   EB           MOV     A,R3
   \   00004B   800A         SJMP    ??ZDO_RemoveRegisteredCB_6
   \                     ??ZDO_RemoveRegisteredCB_4:
   \   00004D   EA           MOV     A,R2
   \   00004E   4B           ORL     A,R3
   \   00004F   90....       MOV     DPTR,#zdoMsgCBs
   \   000052   70F3         JNZ     ??ZDO_RemoveRegisteredCB_5
   \   000054   E4           CLR     A
   \   000055   F0           MOVX    @DPTR,A
   \   000056   A3           INC     DPTR
   \                     ??ZDO_RemoveRegisteredCB_6:
   \   000057   F0           MOVX    @DPTR,A
   \   000058                ; Setup parameters for call to function osal_mem_free
   \   000058   E8           MOV     A,R0
   \   000059   FA           MOV     R2,A
   \   00005A   E9           MOV     A,R1
   \   00005B   FB           MOV     R3,A
   \   00005C   12....       LCALL   ??osal_mem_free?relay
   \   00005F   7900         MOV     R1,#0x0
   \   000061   8002         SJMP    ??ZDO_RemoveRegisteredCB_7
   1837            }
   1838          
   1839            return ( ZFailure );
   \                     ??ZDO_RemoveRegisteredCB_2:
   \   000063   7901         MOV     R1,#0x1
   \                     ??ZDO_RemoveRegisteredCB_7:
   \   000065   7F01         MOV     R7,#0x1
   \   000067   02....       LJMP    ?BANKED_LEAVE_XDATA
   1840          }
   1841          
   1842          /*********************************************************************
   1843           * @fn          ZDO_SendMsgCBs
   1844           *
   1845           * @brief       This function sends messages to registered tasks.
   1846           *              Local to ZDO and shouldn't be called outside of ZDO.
   1847           *
   1848           * @param       inMsg - incoming message
   1849           *
   1850           * @return      TRUE if sent to at least 1 task, FALSE if not
   1851           */

   \                                 In  segment BANKED_CODE, align 1, keep-with-next
   1852          uint8 ZDO_SendMsgCBs( zdoIncomingMsg_t *inMsg )
   \                     ZDO_SendMsgCBs:
   1853          {
   \   000000   74EE         MOV     A,#-0x12
   \   000002   12....       LCALL   ?BANKED_ENTER_XDATA
   \   000005                ; Saved register size: 18
   \   000005                ; Auto size: 0
   \   000005   8A..         MOV     ?V0 + 2,R2
   \   000007   8B..         MOV     ?V0 + 3,R3
   1854            uint8 ret = FALSE;
   \   000009   75..00       MOV     ?V0 + 4,#0x0
   1855            ZDO_MsgCB_t *pList = zdoMsgCBs;
   \   00000C   90....       MOV     DPTR,#zdoMsgCBs
   \   00000F   12....       LCALL   ??Subroutine112_0 & 0xFFFF
   \                     ??CrossCallReturnLabel_205:
   \   000012   EA           MOV     A,R2
   \   000013   2410         ADD     A,#0x10
   \   000015   F5..         MOV     ?V0 + 8,A
   \   000017   EB           MOV     A,R3
   \   000018   3400         ADDC    A,#0x0
   \   00001A   F5..         MOV     ?V0 + 9,A
   \   00001C   02....       LJMP    ??CrossCallReturnLabel_206 & 0xFFFF
   1856            while ( pList )
   1857            {
   1858              if ( pList->clusterID == inMsg->clusterID )
   \                     ??ZDO_SendMsgCBs_0:
   \   00001F   85..82       MOV     DPL,?V0 + 0
   \   000022   85..83       MOV     DPH,?V0 + 1
   \   000025   A3           INC     DPTR
   \   000026   A3           INC     DPTR
   \   000027   A3           INC     DPTR
   \   000028   12....       LCALL   ??Subroutine123_0 & 0xFFFF
   \                     ??CrossCallReturnLabel_278:
   \   00002B   E5..         MOV     A,?V0 + 2
   \   00002D   240C         ADD     A,#0xc
   \   00002F   F582         MOV     DPL,A
   \   000031   E5..         MOV     A,?V0 + 3
   \   000033   12....       LCALL   ??Subroutine121_0 & 0xFFFF
   \                     ??CrossCallReturnLabel_264:
   \   000036   68           XRL     A,R0
   \   000037   7003         JNZ     ??ZDO_SendMsgCBs_1
   \   000039   A3           INC     DPTR
   \   00003A   E0           MOVX    A,@DPTR
   \   00003B   69           XRL     A,R1
   \                     ??ZDO_SendMsgCBs_1:
   \   00003C   6003         JZ      $+5
   \   00003E   02....       LJMP    ??ZDO_SendMsgCBs_2 & 0xFFFF
   1859              {
   1860                zdoIncomingMsg_t *msgPtr;
   1861          
   1862                // Send the address to the task
   1863                msgPtr = (zdoIncomingMsg_t *)osal_msg_allocate( sizeof( zdoIncomingMsg_t ) + inMsg->asduLen );
   \   000041                ; Setup parameters for call to function osal_msg_allocate
   \   000041   85..82       MOV     DPL,?V0 + 8
   \   000044   85..83       MOV     DPH,?V0 + 9
   \   000047   E0           MOVX    A,@DPTR
   \   000048   2415         ADD     A,#0x15
   \   00004A   FA           MOV     R2,A
   \   00004B   E4           CLR     A
   \   00004C   3400         ADDC    A,#0x0
   \   00004E   FB           MOV     R3,A
   \   00004F   12....       LCALL   ??osal_msg_allocate?relay
   \   000052   8A..         MOV     ?V0 + 6,R2
   \   000054   8B..         MOV     ?V0 + 7,R3
   \   000056   AE..         MOV     R6,?V0 + 6
   \   000058   AF..         MOV     R7,?V0 + 7
   1864                if ( msgPtr )
   \   00005A   EE           MOV     A,R6
   \   00005B   4F           ORL     A,R7
   \   00005C   606D         JZ      ??ZDO_SendMsgCBs_2
   1865                {
   1866                  // copy struct
   1867                  osal_memcpy( msgPtr, inMsg, sizeof( zdoIncomingMsg_t ));
   \   00005E                ; Setup parameters for call to function osal_memcpy
   \   00005E   85....       MOV     ?V0 + 4,?V0 + 2
   \   000061   85....       MOV     ?V0 + 5,?V0 + 3
   \   000064   75..00       MOV     ?V0 + 6,#0x0
   \   000067   78..         MOV     R0,#?V0 + 4
   \   000069   12....       LCALL   ?PUSH_XSTACK_I_THREE
   \   00006C   7C15         MOV     R4,#0x15
   \   00006E   12....       LCALL   ?Subroutine72 & 0xFFFF
   \                     ??CrossCallReturnLabel_141:
   \   000071   12....       LCALL   ?DEALLOC_XSTACK8
   1868          
   1869                  if ( inMsg->asduLen )
   \   000074   85..82       MOV     DPL,?V0 + 8
   \   000077   85..83       MOV     DPH,?V0 + 9
   \   00007A   E0           MOVX    A,@DPTR
   \   00007B   6033         JZ      ??ZDO_SendMsgCBs_3
   1870                  {
   1871                    msgPtr->asdu = (byte*)(((byte*)msgPtr) + sizeof( zdoIncomingMsg_t ));
   \   00007D   EE           MOV     A,R6
   \   00007E   2415         ADD     A,#0x15
   \   000080   FA           MOV     R2,A
   \   000081   EF           MOV     A,R7
   \   000082   3400         ADDC    A,#0x0
   \   000084   FB           MOV     R3,A
   \   000085   EE           MOV     A,R6
   \   000086   2413         ADD     A,#0x13
   \   000088   12....       LCALL   ?Subroutine70 & 0xFFFF
   \                     ??CrossCallReturnLabel_294:
   \   00008B   EA           MOV     A,R2
   \   00008C   12....       LCALL   ??Subroutine119_0 & 0xFFFF
   1872                    osal_memcpy( msgPtr->asdu, inMsg->asdu, inMsg->asduLen );
   \                     ??CrossCallReturnLabel_252:
   \   00008F                ; Setup parameters for call to function osal_memcpy
   \   00008F   E5..         MOV     A,?V0 + 2
   \   000091   2413         ADD     A,#0x13
   \   000093   F582         MOV     DPL,A
   \   000095   E5..         MOV     A,?V0 + 3
   \   000097   12....       LCALL   ??Subroutine124_0 & 0xFFFF
   1873                  }
   \                     ??CrossCallReturnLabel_289:
   \   00009A   12....       LCALL   ?Subroutine19 & 0xFFFF
   \                     ??CrossCallReturnLabel_14:
   \   00009D   78..         MOV     R0,#?V0 + 4
   \   00009F   12....       LCALL   ?PUSH_XSTACK_I_THREE
   \   0000A2   85..82       MOV     DPL,?V0 + 8
   \   0000A5   85..83       MOV     DPH,?V0 + 9
   \   0000A8   E0           MOVX    A,@DPTR
   \   0000A9   FC           MOV     R4,A
   \   0000AA   12....       LCALL   ?Subroutine72 & 0xFFFF
   \                     ??CrossCallReturnLabel_142:
   \   0000AD   12....       LCALL   ?DEALLOC_XSTACK8
   1874          
   1875                  msgPtr->hdr.event = ZDO_CB_MSG;
   \                     ??ZDO_SendMsgCBs_3:
   \   0000B0   8E82         MOV     DPL,R6
   \   0000B2   8F83         MOV     DPH,R7
   \   0000B4   74D3         MOV     A,#-0x2d
   \   0000B6   F0           MOVX    @DPTR,A
   1876                  osal_msg_send( pList->taskID, (uint8 *)msgPtr );
   \   0000B7                ; Setup parameters for call to function osal_msg_send
   \   0000B7   EE           MOV     A,R6
   \   0000B8   FA           MOV     R2,A
   \   0000B9   EF           MOV     A,R7
   \   0000BA   FB           MOV     R3,A
   \   0000BB   85..82       MOV     DPL,?V0 + 0
   \   0000BE   85..83       MOV     DPH,?V0 + 1
   \   0000C1   A3           INC     DPTR
   \   0000C2   A3           INC     DPTR
   \   0000C3   E0           MOVX    A,@DPTR
   \   0000C4   F9           MOV     R1,A
   \   0000C5   12....       LCALL   ??osal_msg_send?relay
   1877                  ret = TRUE;
   \   0000C8   75..01       MOV     ?V0 + 4,#0x1
   1878                }
   1879              }
   1880              pList = (ZDO_MsgCB_t *)pList->next;
   \                     ??ZDO_SendMsgCBs_2:
   \   0000CB   85..82       MOV     DPL,?V0 + 0
   \   0000CE   85..83       MOV     DPH,?V0 + 1
   \   0000D1   12....       LCALL   ??Subroutine112_0 & 0xFFFF
   1881            }
   \                     ??CrossCallReturnLabel_206:
   \   0000D4   E5..         MOV     A,?V0 + 0
   \   0000D6   45..         ORL     A,?V0 + 1
   \   0000D8   6003         JZ      $+5
   \   0000DA   02....       LJMP    ??ZDO_SendMsgCBs_0 & 0xFFFF
   1882            return ( ret );
   \   0000DD   A9..         MOV     R1,?V0 + 4
   \   0000DF   02....       LJMP    ??Subroutine102_0 & 0xFFFF
   1883          }
   1884          
   1885          /*********************************************************************
   1886           * Incoming message processor
   1887           */
   1888          
   1889          /*********************************************************************
   1890           * @fn          ZDP_IncomingData
   1891           *
   1892           * @brief       This function indicates the transfer of a data PDU (ASDU)
   1893           *              from the APS sub-layer to the ZDO.
   1894           *
   1895           * @param       pData - Incoming Message
   1896           *
   1897           * @return      none
   1898           */

   \                                 In  segment BANKED_CODE, align 1, keep-with-next
   \                     ?Subroutine66:
   \   000000   F582         MOV     DPL,A
   \   000002   EB           MOV     A,R3
   \   000003                REQUIRE ??Subroutine121_0
   \   000003                ; // Fall through to label ??Subroutine121_0

   \                                 In  segment BANKED_CODE, align 1, keep-with-next
   1899          void ZDP_IncomingData( afIncomingMSGPacket_t *pData )
   \                     ZDP_IncomingData:
   1900          {
   \   000000   74F6         MOV     A,#-0xa
   \   000002   12....       LCALL   ?BANKED_ENTER_XDATA
   \   000005                ; Saved register size: 10
   \   000005                ; Auto size: 21
   \   000005   74EB         MOV     A,#-0x15
   \   000007   12....       LCALL   ?ALLOC_XSTACK8
   1901            uint8 x = 0;
   \   00000A   7E00         MOV     R6,#0x0
   1902            uint8 handled;
   1903            zdoIncomingMsg_t inMsg;
   1904          
   1905            inMsg.srcAddr.addrMode = Addr16Bit;
   \   00000C   740A         MOV     A,#0xa
   \   00000E   12....       LCALL   ?XSTACK_DISP0_8
   \   000011   7402         MOV     A,#0x2
   \   000013   12....       LCALL   ?Subroutine62 & 0xFFFF
   1906            inMsg.srcAddr.addr.shortAddr = pData->srcAddr.addr.shortAddr;
   \                     ??CrossCallReturnLabel_89:
   \   000016   A3           INC     DPTR
   \   000017   A3           INC     DPTR
   \   000018   12....       LCALL   ??Subroutine123_0 & 0xFFFF
   \                     ??CrossCallReturnLabel_279:
   \   00001B   7402         MOV     A,#0x2
   \   00001D   12....       LCALL   ?XSTACK_DISP0_8
   \   000020   12....       LCALL   ??Subroutine125_0 & 0xFFFF
   1907            inMsg.wasBroadcast = pData->wasBroadcast;
   \                     ??CrossCallReturnLabel_299:
   \   000023   EA           MOV     A,R2
   \   000024   2415         ADD     A,#0x15
   \   000026   12....       LCALL   ?Subroutine66 & 0xFFFF
   \                     ??CrossCallReturnLabel_265:
   \   000029   C0E0         PUSH    A
   \   00002B   740B         MOV     A,#0xb
   \   00002D   12....       LCALL   ?XSTACK_DISP0_8
   \   000030   D0E0         POP     A
   \   000032   12....       LCALL   ?Subroutine62 & 0xFFFF
   1908            inMsg.clusterID = pData->clusterId;
   \                     ??CrossCallReturnLabel_90:
   \   000035   12....       LCALL   ??Subroutine123_0 & 0xFFFF
   \                     ??CrossCallReturnLabel_280:
   \   000038   740C         MOV     A,#0xc
   \   00003A   12....       LCALL   ?XSTACK_DISP0_8
   \   00003D   12....       LCALL   ??Subroutine125_0 & 0xFFFF
   1909            inMsg.SecurityUse = pData->SecurityUse;
   \                     ??CrossCallReturnLabel_300:
   \   000040   EA           MOV     A,R2
   \   000041   2419         ADD     A,#0x19
   \   000043   12....       LCALL   ?Subroutine66 & 0xFFFF
   \                     ??CrossCallReturnLabel_266:
   \   000046   C0E0         PUSH    A
   \   000048   740E         MOV     A,#0xe
   \   00004A   12....       LCALL   ?XSTACK_DISP0_8
   \   00004D   D0E0         POP     A
   \   00004F   F0           MOVX    @DPTR,A
   1910          
   1911            inMsg.asduLen = pData->cmd.DataLength-1;
   \   000050   EA           MOV     A,R2
   \   000051   241F         ADD     A,#0x1f
   \   000053   12....       LCALL   ?Subroutine66 & 0xFFFF
   \                     ??CrossCallReturnLabel_267:
   \   000056   14           DEC     A
   \   000057   C0E0         PUSH    A
   \   000059   7410         MOV     A,#0x10
   \   00005B   12....       LCALL   ?XSTACK_DISP0_8
   \   00005E   D0E0         POP     A
   \   000060   F0           MOVX    @DPTR,A
   1912            inMsg.asdu = pData->cmd.Data+1;
   \   000061   EA           MOV     A,R2
   \   000062   2421         ADD     A,#0x21
   \   000064   F8           MOV     R0,A
   \   000065   EB           MOV     A,R3
   \   000066   12....       LCALL   ?Subroutine71 & 0xFFFF
   \                     ??CrossCallReturnLabel_99:
   \   000069   E0           MOVX    A,@DPTR
   \   00006A   2401         ADD     A,#0x1
   \   00006C   FC           MOV     R4,A
   \   00006D   A3           INC     DPTR
   \   00006E   E0           MOVX    A,@DPTR
   \   00006F   3400         ADDC    A,#0x0
   \   000071   FD           MOV     R5,A
   \   000072   7413         MOV     A,#0x13
   \   000074   12....       LCALL   ?XSTACK_DISP0_8
   \   000077   EC           MOV     A,R4
   \   000078   F0           MOVX    @DPTR,A
   \   000079   A3           INC     DPTR
   \   00007A   ED           MOV     A,R5
   \   00007B   12....       LCALL   ?Subroutine60 & 0xFFFF
   1913            inMsg.TransSeq = pData->cmd.Data[0];
   \                     ??CrossCallReturnLabel_86:
   \   00007E   12....       LCALL   ??Subroutine101_0 & 0xFFFF
   \                     ??CrossCallReturnLabel_145:
   \   000081   E0           MOVX    A,@DPTR
   \   000082   C0E0         PUSH    A
   \   000084   740F         MOV     A,#0xf
   \   000086   12....       LCALL   ?XSTACK_DISP0_8
   \   000089   D0E0         POP     A
   \   00008B   F0           MOVX    @DPTR,A
   1914            inMsg.macDestAddr = pData->macDestAddr;
   \   00008C   EA           MOV     A,R2
   \   00008D   2412         ADD     A,#0x12
   \   00008F   F582         MOV     DPL,A
   \   000091   EB           MOV     A,R3
   \   000092   12....       LCALL   ??Subroutine124_0 & 0xFFFF
   \                     ??CrossCallReturnLabel_290:
   \   000095   12....       LCALL   ??Subroutine123_0 & 0xFFFF
   \                     ??CrossCallReturnLabel_281:
   \   000098   7411         MOV     A,#0x11
   \   00009A   12....       LCALL   ?XSTACK_DISP0_8
   \   00009D   E8           MOV     A,R0
   \   00009E   F0           MOVX    @DPTR,A
   \   00009F   A3           INC     DPTR
   \   0000A0   E9           MOV     A,R1
   \   0000A1   12....       LCALL   ?Subroutine57 & 0xFFFF
   1915          
   1916            handled = ZDO_SendMsgCBs( &inMsg );
   \                     ??CrossCallReturnLabel_79:
   \   0000A4   AA82         MOV     R2,DPL
   \   0000A6   AB83         MOV     R3,DPH
   \   0000A8   12....       LCALL   ??ZDO_SendMsgCBs?relay
   \   0000AB   E9           MOV     A,R1
   \   0000AC   FC           MOV     R4,A
   \   0000AD   8001         SJMP    ??ZDP_IncomingData_0
   1917          
   1918          #if (defined MT_ZDO_CB_FUNC)
   1919          #if !defined MT_TASK
   1920            if (zgZdoDirectCB)
   1921          #endif
   1922            {
   1923              MT_ZdoDirectCB( pData, &inMsg );
   1924            }
   1925          #endif
   1926          
   1927            while ( zdpMsgProcs[x].clusterID != 0xFFFF )
   1928            {
   1929              if ( zdpMsgProcs[x].clusterID == inMsg.clusterID )
   1930              {
   1931                zdpMsgProcs[x].pFn( &inMsg );
   1932                return;
   1933              }
   1934              x++;
   \                     ??ZDP_IncomingData_1:
   \   0000AF   0E           INC     R6
   \                     ??ZDP_IncomingData_0:
   \   0000B0   8E..         MOV     ?V0 + 0,R6
   \   0000B2   75..00       MOV     ?V0 + 1,#0x0
   \   0000B5   7402         MOV     A,#0x2
   \   0000B7   78..         MOV     R0,#?V0 + 0
   \   0000B9   12....       LCALL   ?S_SHL
   \   0000BC   74..         MOV     A,#zdpMsgProcs & 0xff
   \   0000BE   25..         ADD     A,?V0 + 0
   \   0000C0   F8           MOV     R0,A
   \   0000C1   74..         MOV     A,#(zdpMsgProcs >> 8) & 0xff
   \   0000C3   35..         ADDC    A,?V0 + 1
   \   0000C5   F9           MOV     R1,A
   \   0000C6   8882         MOV     DPL,R0
   \   0000C8   8983         MOV     DPH,R1
   \   0000CA   E4           CLR     A
   \   0000CB   93           MOVC    A,@A+DPTR
   \   0000CC   C0E0         PUSH    A
   \   0000CE   7401         MOV     A,#0x1
   \   0000D0   93           MOVC    A,@A+DPTR
   \   0000D1   F583         MOV     DPH,A
   \   0000D3   D082         POP     DPL
   \   0000D5   AA82         MOV     R2,DPL
   \   0000D7   AB83         MOV     R3,DPH
   \   0000D9   74FF         MOV     A,#-0x1
   \   0000DB   6A           XRL     A,R2
   \   0000DC   7003         JNZ     ??ZDP_IncomingData_2
   \   0000DE   74FF         MOV     A,#-0x1
   \   0000E0   6B           XRL     A,R3
   \                     ??ZDP_IncomingData_2:
   \   0000E1   602E         JZ      ??ZDP_IncomingData_3
   \   0000E3   740C         MOV     A,#0xc
   \   0000E5   12....       LCALL   ?XSTACK_DISP0_8
   \   0000E8   E0           MOVX    A,@DPTR
   \   0000E9   6A           XRL     A,R2
   \   0000EA   7003         JNZ     ??ZDP_IncomingData_4
   \   0000EC   A3           INC     DPTR
   \   0000ED   E0           MOVX    A,@DPTR
   \   0000EE   6B           XRL     A,R3
   \                     ??ZDP_IncomingData_4:
   \   0000EF   70BE         JNZ     ??ZDP_IncomingData_1
   \   0000F1                ; Setup parameters for indirect call
   \   0000F1   85..82       MOV     DPL,?XSP + 0
   \   0000F4   85..83       MOV     DPH,?XSP + 1
   \   0000F7   AA82         MOV     R2,DPL
   \   0000F9   AB83         MOV     R3,DPH
   \   0000FB   8882         MOV     DPL,R0
   \   0000FD   8983         MOV     DPH,R1
   \   0000FF   A3           INC     DPTR
   \   000100   A3           INC     DPTR
   \   000101   E4           CLR     A
   \   000102   93           MOVC    A,@A+DPTR
   \   000103   C0E0         PUSH    A
   \   000105   7401         MOV     A,#0x1
   \   000107   93           MOVC    A,@A+DPTR
   \   000108   F583         MOV     DPH,A
   \   00010A   D082         POP     DPL
   \   00010C   12....       LCALL   ?CALL_IND
   \   00010F   8010         SJMP    ??ZDP_IncomingData_5
   1935            }
   1936          
   1937            // Handle unhandled messages
   1938            if ( !handled )
   \                     ??ZDP_IncomingData_3:
   \   000111   EC           MOV     A,R4
   \   000112   700D         JNZ     ??ZDP_IncomingData_5
   1939              ZDApp_InMsgCB( &inMsg );
   \   000114                ; Setup parameters for call to function ZDApp_InMsgCB
   \   000114   85..82       MOV     DPL,?XSP + 0
   \   000117   85..83       MOV     DPH,?XSP + 1
   \   00011A   AA82         MOV     R2,DPL
   \   00011C   AB83         MOV     R3,DPH
   \   00011E   12....       LCALL   ??ZDApp_InMsgCB?relay
   \                     ??ZDP_IncomingData_5:
   \   000121   7415         MOV     A,#0x15
   \   000123   02....       LJMP    ??Subroutine92_0 & 0xFFFF
   1940          }

   \                                 In  segment BANKED_CODE, align 1, keep-with-next
   \                     ?Subroutine62:
   \   000000   F0           MOVX    @DPTR,A
   \   000001   8A82         MOV     DPL,R2
   \   000003   8B83         MOV     DPH,R3
   \   000005   A3           INC     DPTR
   \   000006   A3           INC     DPTR
   \   000007   A3           INC     DPTR
   \   000008   A3           INC     DPTR
   \   000009   22           RET

   \                                 In  segment XDATA_ID, align 1, keep-with-next
   \                     `?<Initializer for ZDP_TmpBuf>`:
   \   000000   ....         DW ZDP_Buf + 1H

   \                                 In  segment BANK_RELAYS, align 1
   \                     ??fillAndSend?relay:
   \   000000   12....       LCALL   ?BDISPATCH
   \   000003   ......       DC24    fillAndSend

   \                                 In  segment BANK_RELAYS, align 1
   \                     ??ZDP_SendData?relay:
   \   000000   12....       LCALL   ?BDISPATCH
   \   000003   ......       DC24    ZDP_SendData

   \                                 In  segment BANK_RELAYS, align 1
   \                     ??ZDP_NWKAddrOfInterestReq?relay:
   \   000000   12....       LCALL   ?BDISPATCH
   \   000003   ......       DC24    ZDP_NWKAddrOfInterestReq

   \                                 In  segment BANK_RELAYS, align 1
   \                     ??ZDP_NwkAddrReq?relay:
   \   000000   12....       LCALL   ?BDISPATCH
   \   000003   ......       DC24    ZDP_NwkAddrReq

   \                                 In  segment BANK_RELAYS, align 1
   \                     ??ZDP_IEEEAddrReq?relay:
   \   000000   12....       LCALL   ?BDISPATCH
   \   000003   ......       DC24    ZDP_IEEEAddrReq

   \                                 In  segment BANK_RELAYS, align 1
   \                     ??ZDP_MatchDescReq?relay:
   \   000000   12....       LCALL   ?BDISPATCH
   \   000003   ......       DC24    ZDP_MatchDescReq

   \                                 In  segment BANK_RELAYS, align 1
   \                     ??ZDP_SimpleDescReq?relay:
   \   000000   12....       LCALL   ?BDISPATCH
   \   000003   ......       DC24    ZDP_SimpleDescReq

   \                                 In  segment BANK_RELAYS, align 1
   \                     ??ZDP_UserDescSet?relay:
   \   000000   12....       LCALL   ?BDISPATCH
   \   000003   ......       DC24    ZDP_UserDescSet

   \                                 In  segment BANK_RELAYS, align 1
   \                     ??ZDP_ServerDiscReq?relay:
   \   000000   12....       LCALL   ?BDISPATCH
   \   000003   ......       DC24    ZDP_ServerDiscReq

   \                                 In  segment BANK_RELAYS, align 1
   \                     ??ZDP_DeviceAnnce?relay:
   \   000000   12....       LCALL   ?BDISPATCH
   \   000003   ......       DC24    ZDP_DeviceAnnce

   \                                 In  segment BANK_RELAYS, align 1
   \                     ??zdpProcessAddrReq?relay:
   \   000000   12....       LCALL   ?BDISPATCH
   \   000003   ......       DC24    zdpProcessAddrReq

   \                                 In  segment BANK_RELAYS, align 1
   \                     ??ZDP_NodeDescMsg?relay:
   \   000000   12....       LCALL   ?BDISPATCH
   \   000003   ......       DC24    ZDP_NodeDescMsg

   \                                 In  segment BANK_RELAYS, align 1
   \                     ??ZDP_PowerDescMsg?relay:
   \   000000   12....       LCALL   ?BDISPATCH
   \   000003   ......       DC24    ZDP_PowerDescMsg

   \                                 In  segment BANK_RELAYS, align 1
   \                     ??ZDP_SimpleDescMsg?relay:
   \   000000   12....       LCALL   ?BDISPATCH
   \   000003   ......       DC24    ZDP_SimpleDescMsg

   \                                 In  segment BANK_RELAYS, align 1
   \                     ??ZDP_EPRsp?relay:
   \   000000   12....       LCALL   ?BDISPATCH
   \   000003   ......       DC24    ZDP_EPRsp

   \                                 In  segment BANK_RELAYS, align 1
   \                     ??ZDP_UserDescRsp?relay:
   \   000000   12....       LCALL   ?BDISPATCH
   \   000003   ......       DC24    ZDP_UserDescRsp

   \                                 In  segment BANK_RELAYS, align 1
   \                     ??ZDP_ServerDiscRsp?relay:
   \   000000   12....       LCALL   ?BDISPATCH
   \   000003   ......       DC24    ZDP_ServerDiscRsp

   \                                 In  segment BANK_RELAYS, align 1
   \                     ??ZDP_GenericRsp?relay:
   \   000000   12....       LCALL   ?BDISPATCH
   \   000003   ......       DC24    ZDP_GenericRsp

   \                                 In  segment BANK_RELAYS, align 1
   \                     ??ZDP_EndDeviceBindReq?relay:
   \   000000   12....       LCALL   ?BDISPATCH
   \   000003   ......       DC24    ZDP_EndDeviceBindReq

   \                                 In  segment BANK_RELAYS, align 1
   \                     ??ZDP_BindUnbindReq?relay:
   \   000000   12....       LCALL   ?BDISPATCH
   \   000003   ......       DC24    ZDP_BindUnbindReq

   \                                 In  segment BANK_RELAYS, align 1
   \                     ??ZDP_MgmtNwkDiscReq?relay:
   \   000000   12....       LCALL   ?BDISPATCH
   \   000003   ......       DC24    ZDP_MgmtNwkDiscReq

   \                                 In  segment BANK_RELAYS, align 1
   \                     ??ZDP_MgmtDirectJoinReq?relay:
   \   000000   12....       LCALL   ?BDISPATCH
   \   000003   ......       DC24    ZDP_MgmtDirectJoinReq

   \                                 In  segment BANK_RELAYS, align 1
   \                     ??ZDP_MgmtPermitJoinReq?relay:
   \   000000   12....       LCALL   ?BDISPATCH
   \   000003   ......       DC24    ZDP_MgmtPermitJoinReq

   \                                 In  segment BANK_RELAYS, align 1
   \                     ??ZDP_MgmtLeaveReq?relay:
   \   000000   12....       LCALL   ?BDISPATCH
   \   000003   ......       DC24    ZDP_MgmtLeaveReq

   \                                 In  segment BANK_RELAYS, align 1
   \                     ??ZDP_MgmtNwkUpdateReq?relay:
   \   000000   12....       LCALL   ?BDISPATCH
   \   000003   ......       DC24    ZDP_MgmtNwkUpdateReq

   \                                 In  segment BANK_RELAYS, align 1
   \                     ??ZDP_MgmtNwkDiscRsp?relay:
   \   000000   12....       LCALL   ?BDISPATCH
   \   000003   ......       DC24    ZDP_MgmtNwkDiscRsp

   \                                 In  segment BANK_RELAYS, align 1
   \                     ??ZDP_MgmtLqiRsp?relay:
   \   000000   12....       LCALL   ?BDISPATCH
   \   000003   ......       DC24    ZDP_MgmtLqiRsp

   \                                 In  segment BANK_RELAYS, align 1
   \                     ??ZDP_MgmtRtgRsp?relay:
   \   000000   12....       LCALL   ?BDISPATCH
   \   000003   ......       DC24    ZDP_MgmtRtgRsp

   \                                 In  segment BANK_RELAYS, align 1
   \                     ??ZDP_MgmtBindRsp?relay:
   \   000000   12....       LCALL   ?BDISPATCH
   \   000003   ......       DC24    ZDP_MgmtBindRsp

   \                                 In  segment BANK_RELAYS, align 1
   \                     ??ZDP_MgmtNwkUpdateNotify?relay:
   \   000000   12....       LCALL   ?BDISPATCH
   \   000003   ......       DC24    ZDP_MgmtNwkUpdateNotify

   \                                 In  segment BANK_RELAYS, align 1
   \                     ??ZDO_RegisterForZDOMsg?relay:
   \   000000   12....       LCALL   ?BDISPATCH
   \   000003   ......       DC24    ZDO_RegisterForZDOMsg

   \                                 In  segment BANK_RELAYS, align 1
   \                     ??ZDO_RemoveRegisteredCB?relay:
   \   000000   12....       LCALL   ?BDISPATCH
   \   000003   ......       DC24    ZDO_RemoveRegisteredCB

   \                                 In  segment BANK_RELAYS, align 1
   \                     ??ZDO_SendMsgCBs?relay:
   \   000000   12....       LCALL   ?BDISPATCH
   \   000003   ......       DC24    ZDO_SendMsgCBs

   \                                 In  segment BANK_RELAYS, align 1
   \                     ??ZDP_IncomingData?relay:
   \   000000   12....       LCALL   ?BDISPATCH
   \   000003   ......       DC24    ZDP_IncomingData
   1941          
   1942          /*********************************************************************
   1943          *********************************************************************/
   1944          

   Maximum stack usage in bytes:

     Function                 ISTACK PSTACK XSTACK
     --------                 ------ ------ ------
     ZDO_RegisterForZDOMsg        1      0     14
       -> osal_mem_alloc          0      0     28
     ZDO_RemoveRegisteredCB       0      0      9
       -> osal_mem_free           0      0     18
     ZDO_SendMsgCBs               0      0     52
       -> osal_msg_allocate       0      0     36
       -> osal_memcpy             0      0     42
       -> osal_memcpy             0      0     42
       -> osal_msg_send           0      0     36
     ZDP_BindUnbindReq            1      0     32
       -> sAddrExtCpy             0      0     44
       -> sAddrExtCpy             2      0     44
       -> fillAndSend             0      0     48
     ZDP_DeviceAnnce              1      0     22
       -> sAddrExtCpy             0      0     38
       -> fillAndSend             0      0     42
     ZDP_EPRsp                    1      0     29
       -> osal_memcpy             0      0     44
       -> fillAndSend             0      0     42
     ZDP_EndDeviceBindReq         1      0     35
       -> NLME_GetShortAddr       0      0     48
       -> NLME_GetExtAddr         0      0     48
       -> sAddrExtCpy             0      0     48
       -> fillAndSend             0      0     52
     ZDP_GenericRsp               1      0     17
       -> fillAndSend             0      0     26
     ZDP_IEEEAddrReq              1      0     21
       -> fillAndSend             0      0     42
     ZDP_IncomingData             1      0     31
       -> ZDO_SendMsgCBs          0      0     62
       -> ZDApp_InMsgCB           0      0     62
     ZDP_MatchDescReq             1      0     28
       -> fillAndSend             0      0     40
     ZDP_MgmtBindRsp              1      0     30
       -> osal_mem_alloc          0      0     46
       -> sAddrExtCpy             0      0     46
       -> sAddrExtCpy             0      0     46
       -> fillAndSend             0      0     50
       -> osal_mem_free           0      0     46
     ZDP_MgmtDirectJoinReq        1      0     15
       -> sAddrExtCpy             0      0     24
       -> fillAndSend             0      0     28
     ZDP_MgmtLeaveReq             0      0     16
       -> sAddrExtCpy             0      0     24
       -> fillAndSend             0      0     28
     ZDP_MgmtLqiRsp               1      0     31
       -> fillAndSend             0      0     52
       -> osal_mem_alloc          0      0     48
       -> sAddrExtCpy             0      0     48
       -> sAddrExtCpy             0      0     48
       -> fillAndSend             0      0     52
       -> osal_mem_free           0      0     48
     ZDP_MgmtNwkDiscReq           1      0     24
       -> osal_buffer_uint32      0      0     40
       -> fillAndSend             0      0     36
     ZDP_MgmtNwkDiscRsp           1      0     30
       -> osal_mem_alloc          0      0     46
       -> sAddrExtCpy             0      0     46
       -> fillAndSend             0      0     50
       -> osal_mem_free           0      0     46
     ZDP_MgmtNwkUpdateNotify      1      0     43
       -> osal_mem_alloc          0      0     54
       -> osal_buffer_uint32      0      0     62
       -> osal_memcpy             0      0     60
       -> fillAndSend             0      0     58
       -> osal_mem_free           0      0     54
     ZDP_MgmtNwkUpdateReq         1      0     28
       -> osal_buffer_uint32      0      0     44
       -> fillAndSend             0      0     40
     ZDP_MgmtPermitJoinReq        1      0     12
       -> fillAndSend             0      0     24
     ZDP_MgmtRtgRsp               1      0     28
       -> osal_mem_alloc          0      0     42
       -> fillAndSend             0      0     46
       -> osal_mem_free           0      0     42
     ZDP_NWKAddrOfInterestReq     1      0     13
       -> fillAndSend             0      0     24
     ZDP_NodeDescMsg              1      0     14
       -> fillAndSend             0      0     24
     ZDP_NwkAddrReq               1      0     25
       -> sAddrExtCmp             0      0     46
       -> sAddrExtCpy             0      0     46
       -> fillAndSend             0      0     50
     ZDP_PowerDescMsg             1      0     14
       -> fillAndSend             0      0     24
     ZDP_SendData                 1      0     21
       -> fillAndSend             0      0     32
     ZDP_ServerDiscReq            1      0     21
       -> fillAndSend             0      0     42
     ZDP_ServerDiscRsp            1      0     17
       -> fillAndSend             0      0     26
     ZDP_SimpleDescMsg            2      0     22
       -> fillAndSend             0      0     44
     ZDP_SimpleDescReq            1      0     13
       -> fillAndSend             0      0     24
     ZDP_UserDescRsp              1      0     25
       -> osal_memcpy             0      0     44
       -> fillAndSend             0      0     42
     ZDP_UserDescSet              1      0     24
       -> osal_memcpy             2      0     44
       -> osal_memset             0      0     38
       -> fillAndSend             0      0     42
     fillAndSend                  1      0     75
       -> osal_memset             0      0     56
       -> AF_DataRequest          0      0     74
     zdpProcessAddrReq            1      0     38
       -> sAddrExtCmp             0      0     72
       -> AssocGetWithExt         0      0     72
       -> AssocGetWithShort       0      0     72
       -> AddrMgrEntryGet         0      0     72
       -> sAddrExtCpy             0      0     72
       -> AssocMakeList           0      0     72
       -> osal_mem_free           0      0     72
       -> fillAndSend             0      0     76


   Segment part sizes:

     Function/Label                   Bytes
     --------------                   -----
     ZDP_AF_ENDPOINT                     1
     ZDP_TransID                         1
     ZDP_Buf                            80
     ZDP_TmpBuf                          2
     ZDP_TxOptions                       1
     zdoMsgCBs                           2
     zdpMsgProcs                        36
     fillAndSend                       183
     ?Subroutine0                        8
     ?Subroutine27                      16
     ??Subroutine112_0                   8
     ZDP_SendData                      114
     ?Subroutine1                        5
     ?Subroutine46                       7
     ?Subroutine19                       8
     ??Subroutine107_0                   8
     ??Subroutine118_0                   6
     ??Subroutine122_0                   3
     ??Subroutine123_0                   6
     ZDP_NWKAddrOfInterestReq           15
     ?Subroutine2                       10
     ??Subroutine90_0                    8
     ??Subroutine91_0                    3
     ??Subroutine92_0                    8
     ?Subroutine16                      14
     ?Subroutine81                       8
     ?Subroutine83                       4
     ?Subroutine87                       9
     ZDP_NwkAddrReq                    117
     ?Subroutine57                       8
     ?Subroutine73                       8
     ?Subroutine10                       3
     ?Subroutine65                       4
     ??Subroutine117_0                   4
     ZDP_IEEEAddrReq                    53
     ?Subroutine8                       11
     ??Subroutine89_0                    4
     ?Subroutine63                       5
     ??Subroutine119_0                   5
     ZDP_MatchDescReq                  228
     ?Subroutine55                       3
     ??Subroutine93_0                    7
     ?Subroutine11                      18
     ?Subroutine76                       5
     ??Subroutine99_0                    7
     ??Subroutine102_0                   5
     ?Subroutine50                       4
     ??Subroutine103_0                   4
     ?Subroutine78                       4
     ??Subroutine114_0                   1
     ??Subroutine115_0                   1
     ??Subroutine116_0                  10
     ZDP_SimpleDescReq                  27
     ?Subroutine30                       7
     ZDP_UserDescSet                   153
     ?Subroutine29                       7
     ??Subroutine100_0                   6
     ZDP_ServerDiscReq                  67
     ?Subroutine53                      17
     ?Subroutine44                       2
     ZDP_DeviceAnnce                    63
     ?Subroutine31                       1
     ??Subroutine94_0                    4
     ?Subroutine24                      15
     ?Subroutine32                       3
     ??Subroutine101_0                   4
     zdpProcessAddrReq                 715
     ??Subroutine95_0                    3
     ??Subroutine96_0                    5
     ??Subroutine98_0                    6
     ?Subroutine47                       6
     ??Subroutine104_0                   4
     ?Subroutine37                       4
     ?Subroutine79                       5
     ??Subroutine105_0                   7
     ?Subroutine13                       3
     ??Subroutine109_0                   1
     ??Subroutine110_0                   7
     ?Subroutine23                       3
     ??Subroutine120_0                   6
     ?Subroutine60                       6
     ??Subroutine121_0                   6
     ??Subroutine125_0                   6
     ZDP_NodeDescMsg                   124
     ?Subroutine9                        6
     ?Subroutine25                       6
     ?Subroutine77                       4
     ?Subroutine86                      15
     ?Subroutine21                       4
     ?Subroutine75                       8
     ?Subroutine20                       1
     ??Subroutine97_0                    5
     ?Subroutine18                       6
     ?Subroutine59                       8
     ?Subroutine15                      14
     ?Subroutine70                       3
     ??Subroutine124_0                   5
     ZDP_PowerDescMsg                   84
     ?Subroutine43                       3
     ?Subroutine51                       7
     ?Subroutine80                       6
     ?Subroutine88                       9
     ?Subroutine28                      12
     ZDP_SimpleDescMsg                 354
     ?Subroutine5                        5
     ?Subroutine45                      11
     ?Subroutine36                       4
     ?Subroutine34                       5
     ?Subroutine33                      19
     ?Subroutine14                      13
     ??Subroutine113_0                   4
     ?Subroutine22                      10
     ZDP_EPRsp                         164
     ?Subroutine72                       2
     ?Subroutine3                        3
     ?Subroutine64                       2
     ZDP_UserDescRsp                   142
     ?Subroutine56                      13
     ZDP_ServerDiscRsp                  89
     ZDP_GenericRsp                     88
     ?Subroutine49                      12
     ZDP_EndDeviceBindReq              262
     ?Subroutine6                        5
     ?Subroutine38                       5
     ?Subroutine52                       6
     ?Subroutine26                      14
     ?Subroutine82                      11
     ?Subroutine54                      13
     ZDP_BindUnbindReq                 195
     ?Subroutine41                       4
     ZDP_MgmtNwkDiscReq                 68
     ?Subroutine42                      14
     ZDP_MgmtDirectJoinReq              27
     ?Subroutine7                       25
     ZDP_MgmtPermitJoinReq              20
     ZDP_MgmtLeaveReq                   63
     ?Subroutine71                       8
     ZDP_MgmtNwkUpdateReq              146
     ?Subroutine4                        2
     ZDP_MgmtNwkDiscRsp                327
     ?Subroutine17                       4
     ??Subroutine106_0                  13
     ?Subroutine69                      11
     ??Subroutine108_0                   6
     ?Subroutine39                       2
     ?Subroutine85                      14
     ?Subroutine84                      11
     ZDP_MgmtLqiRsp                    333
     ?Subroutine61                      10
     ?Subroutine58                       6
     ?Subroutine12                       8
     ??Subroutine111_0                   6
     ?Subroutine68                      16
     ZDP_MgmtRtgRsp                    219
     ?Subroutine35                       1
     ?Subroutine74                       4
     ?Subroutine67                       8
     ZDP_MgmtBindRsp                   274
     ?Subroutine48                      10
     ?Subroutine40                       5
     ZDP_MgmtNwkUpdateNotify           242
     ZDO_RegisterForZDOMsg             147
     ZDO_RemoveRegisteredCB            106
     ZDO_SendMsgCBs                    226
     ?Subroutine66                       3
     ZDP_IncomingData                  294
     ?Subroutine62                      10
     ?<Initializer for ZDP_TmpBuf>       2
     ??fillAndSend?relay                 6
     ??ZDP_SendData?relay                6
     ??ZDP_NWKAddrOfInterestReq?relay    6
     ??ZDP_NwkAddrReq?relay              6
     ??ZDP_IEEEAddrReq?relay             6
     ??ZDP_MatchDescReq?relay            6
     ??ZDP_SimpleDescReq?relay           6
     ??ZDP_UserDescSet?relay             6
     ??ZDP_ServerDiscReq?relay           6
     ??ZDP_DeviceAnnce?relay             6
     ??zdpProcessAddrReq?relay           6
     ??ZDP_NodeDescMsg?relay             6
     ??ZDP_PowerDescMsg?relay            6
     ??ZDP_SimpleDescMsg?relay           6
     ??ZDP_EPRsp?relay                   6
     ??ZDP_UserDescRsp?relay             6
     ??ZDP_ServerDiscRsp?relay           6
     ??ZDP_GenericRsp?relay              6
     ??ZDP_EndDeviceBindReq?relay        6
     ??ZDP_BindUnbindReq?relay           6
     ??ZDP_MgmtNwkDiscReq?relay          6
     ??ZDP_MgmtDirectJoinReq?relay       6
     ??ZDP_MgmtPermitJoinReq?relay       6
     ??ZDP_MgmtLeaveReq?relay            6
     ??ZDP_MgmtNwkUpdateReq?relay        6
     ??ZDP_MgmtNwkDiscRsp?relay          6
     ??ZDP_MgmtLqiRsp?relay              6
     ??ZDP_MgmtRtgRsp?relay              6
     ??ZDP_MgmtBindRsp?relay             6
     ??ZDP_MgmtNwkUpdateNotify?relay     6
     ??ZDO_RegisterForZDOMsg?relay       6
     ??ZDO_RemoveRegisteredCB?relay      6
     ??ZDO_SendMsgCBs?relay              6
     ??ZDP_IncomingData?relay            6

 
 6 613 bytes in segment BANKED_CODE
   204 bytes in segment BANK_RELAYS
    37 bytes in segment CODE_C
     2 bytes in segment XDATA_I
     2 bytes in segment XDATA_ID
    84 bytes in segment XDATA_Z
 
 6 856 bytes of CODE  memory
    86 bytes of XDATA memory

Errors: none
Warnings: none
