///////////////////////////////////////////////////////////////////////////////
//                                                                            /
// IAR C/C++ Compiler V8.10.3.10338/W32 for 8051        13/Jan/2016  14:33:29 /
// Copyright 2004-2011 IAR Systems AB.                                        /
//                                                                            /
//    Core               =  plain                                             /
//    Code model         =  banked                                            /
//    Data model         =  large                                             /
//    Calling convention =  xdata reentrant                                   /
//    Constant location  =  data_rom                                          /
//    Dptr setup         =  1,16                                              /
//    Source file        =  E:\Work Codes\ZigBee\Network\Projects\zstack\Samp /
//                          les\SimpleApp_Dul\Source\SimpleController.c       /
//    Command line       =  -f "E:\Work Codes\ZigBee\Network\Projects\zstack\ /
//                          Samples\SimpleApp_Dul\CC2530DB\..\..\..\Tools\CC2 /
//                          530DB\f8wCoord.cfg" (-DCPU32MHZ                   /
//                          -DROOT=__near_func -DMAC_CFG_APP_PENDING_QUEUE=TR /
//                          UE -DZDO_COORDINATOR -DRTR_NWK -DBLINK_LEDS) -f   /
//                          "E:\Work Codes\ZigBee\Network\Projects\zstack\Sam /
//                          ples\SimpleApp_Dul\CC2530DB\..\..\..\Tools\CC2530 /
//                          DB\f8wConfig.cfg" (-DSECURE=0                     /
//                          -DZG_SECURE_DYNAMIC=0 -DREFLECTOR                 /
//                          -DDEFAULT_CHANLIST=0x00000800                     /
//                          -DZDAPP_CONFIG_PAN_ID=0xFFFA                      /
//                          -DNWK_START_DELAY=100 -DEXTENDED_JOINING_RANDOM_M /
//                          ASK=0x007F -DBEACON_REQUEST_DELAY=100             /
//                          -DBEACON_REQ_DELAY_MASK=0x00FF                    /
//                          -DROUTE_EXPIRY_TIME=30 -DAPSC_ACK_WAIT_DURATION_P /
//                          OLLED=3000 -DNWK_INDIRECT_MSG_TIMEOUT=7           /
//                          -DMAX_RREQ_ENTRIES=8 -DAPSC_MAX_FRAME_RETRIES=3   /
//                          -DNWK_MAX_DATA_RETRIES=2                          /
//                          -DMAX_POLL_FAILURE_RETRIES=2 -DMAX_BCAST=9        /
//                          -DAPS_MAX_GROUPS=16 -DMAX_RTG_ENTRIES=40          /
//                          -DNWK_MAX_BINDING_ENTRIES=4                       /
//                          -DMAX_BINDING_CLUSTER_IDS=4                       /
//                          "-DDEFAULT_KEY={0x01, 0x03, 0x05, 0x07, 0x09,     /
//                          0x0B, 0x0D, 0x0F, 0x00, 0x02, 0x04, 0x06, 0x08,   /
//                          0x0A, 0x0C, 0x0D}" -DMAC_MAX_FRAME_SIZE=116       /
//                          "-DCONST=const __code" -DGENERIC=__generic        /
//                          -DRFD_RCVC_ALWAYS_ON=FALSE -DPOLL_RATE=1000       /
//                          -DQUEUED_POLL_RATE=100 -DRESPONSE_POLL_RATE=100)  /
//                          -DREJOIN_POLL_RATE=440 "E:\Work                   /
//                          Codes\ZigBee\Network\Projects\zstack\Samples\Simp /
//                          leApp_Dul\Source\SimpleController.c" -D           /
//                          HOLD_AUTO_START -D BUILD_ALL_DEVICES -D           /
//                          REFLECTOR -D NV_INIT -D xNV_RESTORE -D xZTOOL_P1  /
//                          -D xMT_TASK -D xMT_SYS_FUNC -D xMT_SAPI_FUNC -D   /
//                          xMT_SAPI_CB_FUNC -D LCD_SUPPORTED=DEBUG -D        /
//                          LCD_SUPPORTED -lC "E:\Work                        /
//                          Codes\ZigBee\Network\Projects\zstack\Samples\Simp /
//                          leApp_Dul\CC2530DB\SimpleControllerEB\List\" -lA  /
//                          "E:\Work Codes\ZigBee\Network\Projects\zstack\Sam /
//                          ples\SimpleApp_Dul\CC2530DB\SimpleControllerEB\Li /
//                          st\" --diag_suppress Pe001,Pa010 -o "E:\Work      /
//                          Codes\ZigBee\Network\Projects\zstack\Samples\Simp /
//                          leApp_Dul\CC2530DB\SimpleControllerEB\Obj\" -e    /
//                          --debug --core=plain --dptr=16,1                  /
//                          --data_model=large --code_model=banked            /
//                          --calling_convention=xdata_reentrant              /
//                          --place_constants=data_rom --nr_virtual_regs 16   /
//                          -I "E:\Work Codes\ZigBee\Network\Projects\zstack\ /
//                          Samples\SimpleApp_Dul\CC2530DB\" -I "E:\Work      /
//                          Codes\ZigBee\Network\Projects\zstack\Samples\Simp /
//                          leApp_Dul\CC2530DB\..\SOURCE\" -I "E:\Work        /
//                          Codes\ZigBee\Network\Projects\zstack\Samples\Simp /
//                          leApp_Dul\CC2530DB\..\..\..\ZMAIN\TI2530DB\" -I   /
//                          "E:\Work Codes\ZigBee\Network\Projects\zstack\Sam /
//                          ples\SimpleApp_Dul\CC2530DB\..\..\..\..\..\COMPON /
//                          ENTS\MT\" -I "E:\Work Codes\ZigBee\Network\Projec /
//                          ts\zstack\Samples\SimpleApp_Dul\CC2530DB\..\..\.. /
//                          \..\..\COMPONENTS\HAL\INCLUDE\" -I "E:\Work       /
//                          Codes\ZigBee\Network\Projects\zstack\Samples\Simp /
//                          leApp_Dul\CC2530DB\..\..\..\..\..\COMPONENTS\HAL\ /
//                          TARGET\CC2530EB\" -I "E:\Work                     /
//                          Codes\ZigBee\Network\Projects\zstack\Samples\Simp /
//                          leApp_Dul\CC2530DB\..\..\..\..\..\COMPONENTS\OSAL /
//                          \MCU\CCSOC\" -I "E:\Work                          /
//                          Codes\ZigBee\Network\Projects\zstack\Samples\Simp /
//                          leApp_Dul\CC2530DB\..\..\..\..\..\COMPONENTS\OSAL /
//                          \INCLUDE\" -I "E:\Work Codes\ZigBee\Network\Proje /
//                          cts\zstack\Samples\SimpleApp_Dul\CC2530DB\..\..\. /
//                          .\..\..\COMPONENTS\STACK\AF\" -I "E:\Work         /
//                          Codes\ZigBee\Network\Projects\zstack\Samples\Simp /
//                          leApp_Dul\CC2530DB\..\..\..\..\..\COMPONENTS\STAC /
//                          K\NWK\" -I "E:\Work Codes\ZigBee\Network\Projects /
//                          \zstack\Samples\SimpleApp_Dul\CC2530DB\..\..\..\. /
//                          .\..\COMPONENTS\STACK\SEC\" -I "E:\Work           /
//                          Codes\ZigBee\Network\Projects\zstack\Samples\Simp /
//                          leApp_Dul\CC2530DB\..\..\..\..\..\COMPONENTS\STAC /
//                          K\SAPI\" -I "E:\Work Codes\ZigBee\Network\Project /
//                          s\zstack\Samples\SimpleApp_Dul\CC2530DB\..\..\..\ /
//                          ..\..\COMPONENTS\STACK\SYS\" -I "E:\Work          /
//                          Codes\ZigBee\Network\Projects\zstack\Samples\Simp /
//                          leApp_Dul\CC2530DB\..\..\..\..\..\COMPONENTS\STAC /
//                          K\ZDO\" -I "E:\Work Codes\ZigBee\Network\Projects /
//                          \zstack\Samples\SimpleApp_Dul\CC2530DB\..\..\..\. /
//                          .\..\COMPONENTS\ZMAC\F8W\" -I "E:\Work            /
//                          Codes\ZigBee\Network\Projects\zstack\Samples\Simp /
//                          leApp_Dul\CC2530DB\..\..\..\..\..\COMPONENTS\ZMAC /
//                          \" -I "E:\Work Codes\ZigBee\Network\Projects\zsta /
//                          ck\Samples\SimpleApp_Dul\CC2530DB\..\..\..\..\..\ /
//                          COMPONENTS\SERVICES\SADDR\" -I "E:\Work           /
//                          Codes\ZigBee\Network\Projects\zstack\Samples\Simp /
//                          leApp_Dul\CC2530DB\..\..\..\..\..\COMPONENTS\SERV /
//                          ICES\SDATA\" -I "E:\Work                          /
//                          Codes\ZigBee\Network\Projects\zstack\Samples\Simp /
//                          leApp_Dul\CC2530DB\..\..\..\..\..\COMPONENTS\MAC\ /
//                          INCLUDE\" -I "E:\Work Codes\ZigBee\Network\Projec /
//                          ts\zstack\Samples\SimpleApp_Dul\CC2530DB\..\..\.. /
//                          \..\..\COMPONENTS\MAC\HIGH_LEVEL\" -I "E:\Work    /
//                          Codes\ZigBee\Network\Projects\zstack\Samples\Simp /
//                          leApp_Dul\CC2530DB\..\..\..\..\..\COMPONENTS\MAC\ /
//                          LOW_LEVEL\srf04\" -I "E:\Work                     /
//                          Codes\ZigBee\Network\Projects\zstack\Samples\Simp /
//                          leApp_Dul\CC2530DB\..\..\..\..\..\COMPONENTS\MAC\ /
//                          LOW_LEVEL\srf04\SINGLE_CHIP\" -Ohz                /
//                          --require_prototypes                              /
//    List file          =  E:\Work Codes\ZigBee\Network\Projects\zstack\Samp /
//                          les\SimpleApp_Dul\CC2530DB\SimpleControllerEB\Lis /
//                          t\SimpleController.s51                            /
//                                                                            /
//                                                                            /
///////////////////////////////////////////////////////////////////////////////

        NAME SimpleController

        RTMODEL "__SystemLibrary", "CLib"
        RTMODEL "__calling_convention", "xdata_reentrant"
        RTMODEL "__code_model", "banked"
        RTMODEL "__core", "plain"
        RTMODEL "__data_model", "large"
        RTMODEL "__dptr_size", "16"
        RTMODEL "__extended_stack", "disabled"
        RTMODEL "__location_for_constants", "data"
        RTMODEL "__number_of_dptrs", "1"
        RTMODEL "__rt_version", "1"

        RSEG DOVERLAY:DATA:NOROOT(0)
        RSEG IOVERLAY:IDATA:NOROOT(0)
        RSEG ISTACK:IDATA:NOROOT(0)
        RSEG PSTACK:XDATA:NOROOT(0)
        RSEG XSTACK:XDATA:NOROOT(0)

        EXTERN ?ALLOC_XSTACK8
        EXTERN ?BANKED_ENTER_XDATA
        EXTERN ?BANKED_LEAVE_XDATA
        EXTERN ?BDISPATCH
        EXTERN ?BRET
        EXTERN ?DEALLOC_XSTACK8
        EXTERN ?XSP
        EXTERN ?XSTACK_DISP0_8
        EXTERN __INIT_XDATA_I
        EXTERN __INIT_XDATA_Z

        PUBLIC ??zb_AllowBindConfirm?relay
        FUNCTION ??zb_AllowBindConfirm?relay,0203H
        PUBLIC ??zb_BindConfirm?relay
        FUNCTION ??zb_BindConfirm?relay,0203H
        PUBLIC ??zb_FindDeviceConfirm?relay
        FUNCTION ??zb_FindDeviceConfirm?relay,0203H
        PUBLIC ??zb_HandleKeys?relay
        FUNCTION ??zb_HandleKeys?relay,0203H
        PUBLIC ??zb_HandleOsalEvent?relay
        FUNCTION ??zb_HandleOsalEvent?relay,0203H
        PUBLIC ??zb_ReceiveDataIndication?relay
        FUNCTION ??zb_ReceiveDataIndication?relay,0203H
        PUBLIC ??zb_SendDataConfirm?relay
        FUNCTION ??zb_SendDataConfirm?relay,0203H
        PUBLIC ??zb_StartConfirm?relay
        FUNCTION ??zb_StartConfirm?relay,0203H
        PUBLIC zb_AllowBindConfirm
        FUNCTION zb_AllowBindConfirm,021203H
        ARGFRAME XSTACK, 0, STACK
        LOCFRAME ISTACK, 2, STACK
        PUBLIC zb_BindConfirm
        FUNCTION zb_BindConfirm,0203H
        ARGFRAME XSTACK, 0, STACK
        PUBLIC zb_FindDeviceConfirm
        FUNCTION zb_FindDeviceConfirm,0203H
        ARGFRAME XSTACK, 0, STACK
        PUBLIC zb_HandleKeys
        FUNCTION zb_HandleKeys,021203H
        ARGFRAME XSTACK, 0, STACK
        LOCFRAME XSTACK, 11, STACK
        PUBLIC zb_HandleOsalEvent
        FUNCTION zb_HandleOsalEvent,0203H
        ARGFRAME XSTACK, 0, STACK
        PUBLIC zb_InCmdList
        PUBLIC zb_ReceiveDataIndication
        FUNCTION zb_ReceiveDataIndication,021203H
        ARGFRAME XSTACK, 4, STACK
        LOCFRAME ISTACK, 2, STACK
        PUBLIC zb_SendDataConfirm
        FUNCTION zb_SendDataConfirm,0203H
        ARGFRAME XSTACK, 0, STACK
        PUBLIC zb_SimpleDesc
        PUBLIC zb_StartConfirm
        FUNCTION zb_StartConfirm,021203H
        ARGFRAME XSTACK, 0, STACK
        LOCFRAME XSTACK, 9, STACK
        
        CFI Names cfiNames0
        CFI StackFrame CFA_SP SP IDATA
        CFI StackFrame CFA_PSP16 PSP16 XDATA
        CFI StackFrame CFA_XSP16 XSP16 XDATA
        CFI StaticOverlayFrame CFA_IOVERLAY IOVERLAY
        CFI StaticOverlayFrame CFA_DOVERLAY DOVERLAY
        CFI Resource `PSW.CY`:1, `B.BR0`:1, `B.BR1`:1, `B.BR2`:1, `B.BR3`:1
        CFI Resource `B.BR4`:1, `B.BR5`:1, `B.BR6`:1, `B.BR7`:1, `VB.BR8`:1
        CFI Resource `VB.BR9`:1, `VB.BR10`:1, `VB.BR11`:1, `VB.BR12`:1
        CFI Resource `VB.BR13`:1, `VB.BR14`:1, `VB.BR15`:1, VB:8, B:8, A:8
        CFI Resource PSW:8, DPL0:8, DPH0:8, R0:8, R1:8, R2:8, R3:8, R4:8, R5:8
        CFI Resource R6:8, R7:8, V0:8, V1:8, V2:8, V3:8, V4:8, V5:8, V6:8, V7:8
        CFI Resource V8:8, V9:8, V10:8, V11:8, V12:8, V13:8, V14:8, V15:8, SP:8
        CFI Resource PSPH:8, PSPL:8, PSP16:16, XSPH:8, XSPL:8, XSP16:16
        CFI VirtualResource ?RET:24
        CFI Resource ?BRET_EXT:8
        CFI VirtualResource ?RET_HIGH:8, ?RET_LOW:8
        CFI ResourceParts PSP16 PSPH, PSPL
        CFI ResourceParts XSP16 XSPH, XSPL
        CFI ResourceParts ?RET ?BRET_EXT, ?RET_HIGH, ?RET_LOW
        CFI EndNames cfiNames0
        
        CFI Common cfiCommon0 Using cfiNames0
        CFI CodeAlign 1
        CFI DataAlign -1
        CFI ReturnAddress ?RET CODE
        CFI CFA_DOVERLAY Used
        CFI CFA_IOVERLAY Used
        CFI CFA_SP SP+-3
        CFI CFA_PSP16 PSP16+0
        CFI CFA_XSP16 XSP16+0
        CFI `PSW.CY` SameValue
        CFI `B.BR0` SameValue
        CFI `B.BR1` SameValue
        CFI `B.BR2` SameValue
        CFI `B.BR3` SameValue
        CFI `B.BR4` SameValue
        CFI `B.BR5` SameValue
        CFI `B.BR6` SameValue
        CFI `B.BR7` SameValue
        CFI `VB.BR8` SameValue
        CFI `VB.BR9` SameValue
        CFI `VB.BR10` SameValue
        CFI `VB.BR11` SameValue
        CFI `VB.BR12` SameValue
        CFI `VB.BR13` SameValue
        CFI `VB.BR14` SameValue
        CFI `VB.BR15` SameValue
        CFI VB SameValue
        CFI B Undefined
        CFI A Undefined
        CFI PSW SameValue
        CFI DPL0 SameValue
        CFI DPH0 SameValue
        CFI R0 Undefined
        CFI R1 Undefined
        CFI R2 Undefined
        CFI R3 Undefined
        CFI R4 Undefined
        CFI R5 Undefined
        CFI R6 SameValue
        CFI R7 SameValue
        CFI V0 SameValue
        CFI V1 SameValue
        CFI V2 SameValue
        CFI V3 SameValue
        CFI V4 SameValue
        CFI V5 SameValue
        CFI V6 SameValue
        CFI V7 SameValue
        CFI V8 SameValue
        CFI V9 SameValue
        CFI V10 SameValue
        CFI V11 SameValue
        CFI V12 SameValue
        CFI V13 SameValue
        CFI V14 SameValue
        CFI V15 SameValue
        CFI PSPH Undefined
        CFI PSPL Undefined
        CFI XSPH Undefined
        CFI XSPL Undefined
        CFI ?RET Concat
        CFI ?BRET_EXT Frame(CFA_SP, 3)
        CFI ?RET_HIGH Frame(CFA_SP, 2)
        CFI ?RET_LOW Frame(CFA_SP, 1)
        CFI EndCommon cfiCommon0
        
zb_ReadConfiguration SYMBOL "zb_ReadConfiguration"
zb_WriteConfiguration SYMBOL "zb_WriteConfiguration"
zb_SystemReset      SYMBOL "zb_SystemReset"
zb_AllowBind        SYMBOL "zb_AllowBind"
osal_start_timerEx  SYMBOL "osal_start_timerEx"
HalLedBlink         SYMBOL "HalLedBlink"
HalLedSet           SYMBOL "HalLedSet"
??HalLedBlink?relay SYMBOL "?relay", HalLedBlink
??HalLedSet?relay   SYMBOL "?relay", HalLedSet
??osal_start_timerEx?relay SYMBOL "?relay", osal_start_timerEx
??zb_AllowBind?relay SYMBOL "?relay", zb_AllowBind
??zb_ReadConfiguration?relay SYMBOL "?relay", zb_ReadConfiguration
??zb_SystemReset?relay SYMBOL "?relay", zb_SystemReset
??zb_WriteConfiguration?relay SYMBOL "?relay", zb_WriteConfiguration
zb_AllowBindConfirm SYMBOL "zb_AllowBindConfirm"
??zb_AllowBindConfirm?relay SYMBOL "?relay", zb_AllowBindConfirm
zb_BindConfirm      SYMBOL "zb_BindConfirm"
??zb_BindConfirm?relay SYMBOL "?relay", zb_BindConfirm
zb_FindDeviceConfirm SYMBOL "zb_FindDeviceConfirm"
??zb_FindDeviceConfirm?relay SYMBOL "?relay", zb_FindDeviceConfirm
zb_HandleKeys       SYMBOL "zb_HandleKeys"
??zb_HandleKeys?relay SYMBOL "?relay", zb_HandleKeys
zb_HandleOsalEvent  SYMBOL "zb_HandleOsalEvent"
??zb_HandleOsalEvent?relay SYMBOL "?relay", zb_HandleOsalEvent
zb_ReceiveDataIndication SYMBOL "zb_ReceiveDataIndication"
??zb_ReceiveDataIndication?relay SYMBOL "?relay", zb_ReceiveDataIndication
zb_SendDataConfirm  SYMBOL "zb_SendDataConfirm"
??zb_SendDataConfirm?relay SYMBOL "?relay", zb_SendDataConfirm
zb_StartConfirm     SYMBOL "zb_StartConfirm"
??zb_StartConfirm?relay SYMBOL "?relay", zb_StartConfirm

        EXTERN zb_ReadConfiguration
        FUNCTION zb_ReadConfiguration,0202H
        ARGFRAME ISTACK, 0, STACK
        ARGFRAME PSTACK, 0, STACK
        ARGFRAME XSTACK, 11, STACK
        ARGFRAME IOVERLAY, 0, STATIC
        ARGFRAME DOVERLAY, 0, STATIC
        EXTERN zb_WriteConfiguration
        FUNCTION zb_WriteConfiguration,0202H
        ARGFRAME ISTACK, 0, STACK
        ARGFRAME PSTACK, 0, STACK
        ARGFRAME XSTACK, 11, STACK
        ARGFRAME IOVERLAY, 0, STATIC
        ARGFRAME DOVERLAY, 0, STATIC
        EXTERN zb_SystemReset
        FUNCTION zb_SystemReset,0202H
        ARGFRAME ISTACK, 0, STACK
        ARGFRAME PSTACK, 0, STACK
        ARGFRAME XSTACK, 11, STACK
        ARGFRAME IOVERLAY, 0, STATIC
        ARGFRAME DOVERLAY, 0, STATIC
        EXTERN zb_AllowBind
        FUNCTION zb_AllowBind,0202H
        ARGFRAME ISTACK, 0, STACK
        ARGFRAME PSTACK, 0, STACK
        ARGFRAME XSTACK, 11, STACK
        ARGFRAME IOVERLAY, 0, STATIC
        ARGFRAME DOVERLAY, 0, STATIC
        EXTERN osal_start_timerEx
        FUNCTION osal_start_timerEx,0202H
        ARGFRAME ISTACK, 0, STACK
        ARGFRAME PSTACK, 0, STACK
        ARGFRAME XSTACK, 9, STACK
        ARGFRAME IOVERLAY, 0, STATIC
        ARGFRAME DOVERLAY, 0, STATIC
        EXTERN HalLedBlink
        FUNCTION HalLedBlink,0202H
        ARGFRAME ISTACK, 2, STACK
        ARGFRAME PSTACK, 0, STACK
        ARGFRAME XSTACK, 0, STACK
        ARGFRAME IOVERLAY, 0, STATIC
        ARGFRAME DOVERLAY, 0, STATIC
        EXTERN HalLedSet
        FUNCTION HalLedSet,0202H
        ARGFRAME ISTACK, 2, STACK
        ARGFRAME PSTACK, 0, STACK
        ARGFRAME XSTACK, 0, STACK
        ARGFRAME IOVERLAY, 0, STATIC
        ARGFRAME DOVERLAY, 0, STATIC
        EXTERN ??HalLedBlink?relay
        FUNCTION ??HalLedBlink?relay,00H
        EXTERN ??HalLedSet?relay
        FUNCTION ??HalLedSet?relay,00H
        EXTERN ??osal_start_timerEx?relay
        FUNCTION ??osal_start_timerEx?relay,00H
        EXTERN ??zb_AllowBind?relay
        FUNCTION ??zb_AllowBind?relay,00H
        EXTERN ??zb_ReadConfiguration?relay
        FUNCTION ??zb_ReadConfiguration?relay,00H
        EXTERN ??zb_SystemReset?relay
        FUNCTION ??zb_SystemReset?relay,00H
        EXTERN ??zb_WriteConfiguration?relay
        FUNCTION ??zb_WriteConfiguration?relay,00H
        EXTERN sapi_TaskID

// E:\Work Codes\ZigBee\Network\Projects\zstack\Samples\SimpleApp_Dul\Source\SimpleController.c
//    1 
//    2 /**************************************************************************************************
//    3   Filename:       SimpleController.c
//    4   Revised:        $Date: 2008-04-03 11:05:31 -0700 (Thu, 03 Apr 2008) $
//    5   Revision:       $Revision: 16711 $
//    6 
//    7   Description:    Sample application utilizing the Simple API.
//    8 
//    9 
//   10   Copyright 2007 Texas Instruments Incorporated. All rights reserved.
//   11 
//   12   IMPORTANT: Your use of this Software is limited to those specific rights
//   13   granted under the terms of a software license agreement between the user
//   14   who downloaded the software, his/her employer (which must be your employer)
//   15   and Texas Instruments Incorporated (the "License").  You may not use this
//   16   Software unless you agree to abide by the terms of the License. The License
//   17   limits your use, and you acknowledge, that the Software may not be modified,
//   18   copied or distributed unless embedded on a Texas Instruments microcontroller
//   19   or used solely and exclusively in conjunction with a Texas Instruments radio
//   20   frequency transceiver, which is integrated into your product.  Other than for
//   21   the foregoing purpose, you may not use, reproduce, copy, prepare derivative
//   22   works of, modify, distribute, perform, display or sell this Software and/or
//   23   its documentation for any purpose.
//   24 
//   25   YOU FURTHER ACKNOWLEDGE AND AGREE THAT THE SOFTWARE AND DOCUMENTATION ARE
//   26   PROVIDED AS IS?WITHOUT WARRANTY OF ANY KIND, EITHER EXPRESS OR IMPLIED, 
//   27   INCLUDING WITHOUT LIMITATION, ANY WARRANTY OF MERCHANTABILITY, TITLE, 
//   28   NON-INFRINGEMENT AND FITNESS FOR A PARTICULAR PURPOSE. IN NO EVENT SHALL
//   29   TEXAS INSTRUMENTS OR ITS LICENSORS BE LIABLE OR OBLIGATED UNDER CONTRACT,
//   30   NEGLIGENCE, STRICT LIABILITY, CONTRIBUTION, BREACH OF WARRANTY, OR OTHER
//   31   LEGAL EQUITABLE THEORY ANY DIRECT OR INDIRECT DAMAGES OR EXPENSES
//   32   INCLUDING BUT NOT LIMITED TO ANY INCIDENTAL, SPECIAL, INDIRECT, PUNITIVE
//   33   OR CONSEQUENTIAL DAMAGES, LOST PROFITS OR LOST DATA, COST OF PROCUREMENT
//   34   OF SUBSTITUTE GOODS, TECHNOLOGY, SERVICES, OR ANY CLAIMS BY THIRD PARTIES
//   35   (INCLUDING BUT NOT LIMITED TO ANY DEFENSE THEREOF), OR OTHER SIMILAR COSTS.
//   36 
//   37   Should you have any questions regarding your right to use this Software,
//   38   contact Texas Instruments Incorporated at www.TI.com. 
//   39 **************************************************************************************************/
//   40 
//   41 
//   42 
//   43 /******************************************************************************
//   44  * INCLUDES
//   45  */
//   46 
//   47 #include "ZComDef.h"
//   48 #include "OSAL.h"
//   49 #include "sapi.h"
//   50 #include "hal_key.h"
//   51 #include "hal_led.h"
//   52 
//   53 #include "SimpleApp.h"
//   54 
//   55 /*********************************************************************
//   56  * CONSTANTS
//   57  */
//   58 
//   59 // Application States
//   60 #define APP_INIT                           0
//   61 #define APP_START                          1
//   62 
//   63 // Application osal event identifiers
//   64 #define MY_START_EVT                0x0001
//   65 /*********************************************************************
//   66  * TYPEDEFS
//   67  */
//   68 
//   69 /*********************************************************************
//   70  * LOCAL VARIABLES
//   71  */
//   72 

        RSEG XDATA_Z:XDATA:NOROOT(0)
        DATA8
//   73 static uint8 myAppState = APP_INIT;
myAppState:
        DS 1
        REQUIRE __INIT_XDATA_Z

        RSEG XDATA_I:XDATA:NOROOT(0)
//   74 static uint8 myStartRetryDelay = 10;
myStartRetryDelay:
        DATA8
        DS 1
        REQUIRE `?<Initializer for myStartRetryDelay>`
        REQUIRE __INIT_XDATA_I

        RSEG XDATA_I:XDATA:NOROOT(0)
//   75 static uint8 myAllowBindTimeout = 10;
myAllowBindTimeout:
        DATA8
        DS 1
        REQUIRE `?<Initializer for myAllowBindTimeout>`
        REQUIRE __INIT_XDATA_I
//   76 
//   77 /*********************************************************************
//   78  * GLOBAL VARIABLES
//   79  */
//   80 
//   81 // Inputs and Outputs for Controller device
//   82 #define NUM_OUT_CMD_CONTROLLER                0
//   83 #define NUM_IN_CMD_CONTROLLER                 1
//   84 
//   85 // List of output and input commands for Controller device

        RSEG XDATA_ROM_C:CONST:REORDER:NOROOT(0)
        DATA16
//   86 const cId_t zb_InCmdList[NUM_IN_CMD_CONTROLLER] =
zb_InCmdList:
        DW 1
//   87 {
//   88   TOGGLE_LIGHT_CMD_ID   // 1
//   89 };
//   90 
//   91 // Define SimpleDescriptor for Controller device

        RSEG XDATA_ROM_C:CONST:REORDER:NOROOT(0)
        DATA8
//   92 const SimpleDescriptionFormat_t zb_SimpleDesc =
zb_SimpleDesc:
        DB 2
        DATA16
        DW 3856
        DW 2
        DATA8
        DB 1
        DB 1
        DATA16
        DW zb_InCmdList
        DATA8
        DB 0
        DATA16
        DW 0H
//   93 {
//   94   MY_ENDPOINT_ID,             //  Endpoint, 0x02
//   95   MY_PROFILE_ID,              //  Profile ID, 0x0F10
//   96   DEV_ID_CONTROLLER,          //  Device ID, 2
//   97   DEVICE_VERSION_CONTROLLER,  //  Device Version, 1
//   98   0,                          //  Reserved
//   99   NUM_IN_CMD_CONTROLLER,      //  Number of Input Commands
//  100   (cId_t *) zb_InCmdList,     //  Input Command List, cId_t = uint16
//  101   NUM_OUT_CMD_CONTROLLER,     //  Number of Output Commands
//  102   (cId_t *) NULL              //  Output Command List
//  103 };
//  104 
//  105 /******************************************************************************
//  106  * @fn          zb_HandleOsalEvent
//  107  *
//  108  * @brief       The zb_HandleOsalEvent function is called by the operating
//  109  *              system when a task event is set
//  110  *
//  111  * @param       event - Bitmask containing the events that have been set
//  112  *
//  113  * @return      none
//  114  */

        RSEG BANKED_CODE:CODE:NOROOT(0)
//  115 void zb_HandleOsalEvent( uint16 event )
zb_HandleOsalEvent:
        CFI Block cfiBlock0 Using cfiCommon0
        CFI Function zb_HandleOsalEvent
        CODE
//  116 {
        ; Saved register size: 0
        ; Auto size: 0
//  117 
//  118 }
        LJMP    ?BRET
        CFI EndBlock cfiBlock0
//  119 /*********************************************************************
//  120  * @fn      zb_HandleKeys
//  121  *
//  122  * @brief   Handles all key events for this device.
//  123  *
//  124  * @param   shift - true if in shift/alt.
//  125  * @param   keys - bit field for key events. Valid entries:
//  126  *                 EVAL_SW4
//  127  *                 EVAL_SW3
//  128  *                 EVAL_SW2
//  129  *                 EVAL_SW1
//  130  *
//  131  * @return  none
//  132  */

        RSEG BANKED_CODE:CODE:NOROOT(0)
//  133 void zb_HandleKeys( uint8 shift, uint8 keys )
zb_HandleKeys:
        CFI Block cfiBlock1 Using cfiCommon0
        CFI Function zb_HandleKeys
        CODE
//  134 {
        FUNCALL zb_HandleKeys, zb_ReadConfiguration
        LOCFRAME ISTACK, 0, STACK
        LOCFRAME PSTACK, 0, STACK
        LOCFRAME XSTACK, 11, STACK
        LOCFRAME IOVERLAY, 0, STATIC
        LOCFRAME DOVERLAY, 0, STATIC
        ARGFRAME ISTACK, 0, STACK
        ARGFRAME PSTACK, 0, STACK
        ARGFRAME XSTACK, 11, STACK
        ARGFRAME IOVERLAY, 0, STATIC
        ARGFRAME DOVERLAY, 0, STATIC
        FUNCALL zb_HandleKeys, zb_WriteConfiguration
        LOCFRAME ISTACK, 0, STACK
        LOCFRAME PSTACK, 0, STACK
        LOCFRAME XSTACK, 11, STACK
        LOCFRAME IOVERLAY, 0, STATIC
        LOCFRAME DOVERLAY, 0, STATIC
        ARGFRAME ISTACK, 0, STACK
        ARGFRAME PSTACK, 0, STACK
        ARGFRAME XSTACK, 11, STACK
        ARGFRAME IOVERLAY, 0, STATIC
        ARGFRAME DOVERLAY, 0, STATIC
        FUNCALL zb_HandleKeys, zb_ReadConfiguration
        LOCFRAME ISTACK, 0, STACK
        LOCFRAME PSTACK, 0, STACK
        LOCFRAME XSTACK, 11, STACK
        LOCFRAME IOVERLAY, 0, STATIC
        LOCFRAME DOVERLAY, 0, STATIC
        ARGFRAME ISTACK, 0, STACK
        ARGFRAME PSTACK, 0, STACK
        ARGFRAME XSTACK, 11, STACK
        ARGFRAME IOVERLAY, 0, STATIC
        ARGFRAME DOVERLAY, 0, STATIC
        FUNCALL zb_HandleKeys, zb_WriteConfiguration
        LOCFRAME ISTACK, 0, STACK
        LOCFRAME PSTACK, 0, STACK
        LOCFRAME XSTACK, 11, STACK
        LOCFRAME IOVERLAY, 0, STATIC
        LOCFRAME DOVERLAY, 0, STATIC
        ARGFRAME ISTACK, 0, STACK
        ARGFRAME PSTACK, 0, STACK
        ARGFRAME XSTACK, 11, STACK
        ARGFRAME IOVERLAY, 0, STATIC
        ARGFRAME DOVERLAY, 0, STATIC
        FUNCALL zb_HandleKeys, zb_SystemReset
        LOCFRAME ISTACK, 0, STACK
        LOCFRAME PSTACK, 0, STACK
        LOCFRAME XSTACK, 11, STACK
        LOCFRAME IOVERLAY, 0, STATIC
        LOCFRAME DOVERLAY, 0, STATIC
        ARGFRAME ISTACK, 0, STACK
        ARGFRAME PSTACK, 0, STACK
        ARGFRAME XSTACK, 11, STACK
        ARGFRAME IOVERLAY, 0, STATIC
        ARGFRAME DOVERLAY, 0, STATIC
        FUNCALL zb_HandleKeys, zb_AllowBind
        LOCFRAME ISTACK, 0, STACK
        LOCFRAME PSTACK, 0, STACK
        LOCFRAME XSTACK, 11, STACK
        LOCFRAME IOVERLAY, 0, STATIC
        LOCFRAME DOVERLAY, 0, STATIC
        ARGFRAME ISTACK, 0, STACK
        ARGFRAME PSTACK, 0, STACK
        ARGFRAME XSTACK, 11, STACK
        ARGFRAME IOVERLAY, 0, STATIC
        ARGFRAME DOVERLAY, 0, STATIC
        MOV     A,#-0x9
        LCALL   ?BANKED_ENTER_XDATA
        CFI DPH0 load(1, XDATA, add(CFA_XSP16, literal(-1)))
        CFI DPL0 load(1, XDATA, add(CFA_XSP16, literal(-2)))
        CFI ?BRET_EXT load(1, XDATA, add(CFA_XSP16, literal(-3)))
        CFI ?RET_HIGH load(1, XDATA, add(CFA_XSP16, literal(-4)))
        CFI ?RET_LOW load(1, XDATA, add(CFA_XSP16, literal(-5)))
        CFI R7 load(1, XDATA, add(CFA_XSP16, literal(-6)))
        CFI V0 load(1, XDATA, add(CFA_XSP16, literal(-7)))
        CFI VB load(1, XDATA, add(CFA_XSP16, literal(-8)))
        CFI R6 load(1, XDATA, add(CFA_XSP16, literal(-9)))
        CFI CFA_SP SP+0
        CFI CFA_XSP16 add(XSP16, 9)
        ; Saved register size: 9
        ; Auto size: 2
        MOV     A,#-0x2
        LCALL   ?ALLOC_XSTACK8
        CFI CFA_XSP16 add(XSP16, 11)
        MOV     A,R1
        MOV     R6,A
        MOV     A,R2
        MOV     R7,A
//  135   uint8 startOptions;
//  136   uint8 logicalType;
//  137 
//  138   // Shift is used to make each button/switch dual purpose.
//  139   if ( shift )
        MOV     A,R6
        JNZ     ??zb_HandleKeys_0
//  140   {
//  141     if ( keys & HAL_KEY_SW_1 )
//  142     {
//  143     }
//  144     if ( keys & HAL_KEY_SW_2 )
//  145     {
//  146     }
//  147     if ( keys & HAL_KEY_SW_3 )
//  148     {
//  149     }
//  150     if ( keys & HAL_KEY_SW_4 )
//  151     {
//  152     }
//  153     if ( keys & HAL_KEY_SW_6 ) // 0x20, P0_1 
//  154     {
//  155         
//  156     }
//  157   }
//  158   else
//  159   {
//  160     if ( keys & HAL_KEY_SW_1 )  // 0x01, P2_0(S2)作为建立网络重启按键
        MOV     A,R7
        MOV     C,0xE0 /* A   */.0
        JNC     ??zb_HandleKeys_0
//  161     {
//  162       if ( myAppState == APP_INIT  )
        MOV     DPTR,#myAppState
        MOVX    A,@DPTR
        JNZ     ??zb_HandleKeys_1
//  163       {
//  164         // In the init state, keys are used to indicate the logical mode.
//  165         // Key 1 starts device as a coordinator
//  166         
//  167          // 将 logicalType 设置为协调器，并保存在 NV 中
//  168         zb_ReadConfiguration( ZCD_NV_LOGICAL_TYPE, sizeof(uint8), &logicalType );
        ; Setup parameters for call to function zb_ReadConfiguration
        MOV     DPL,?XSP + 0
        MOV     DPH,?XSP + 1
        MOV     R4,DPL
        MOV     R5,DPH
        MOV     R2,#0x1
        MOV     R1,#-0x79
        LCALL   ??zb_ReadConfiguration?relay
//  169         if ( logicalType != ZG_DEVICETYPE_ENDDEVICE )
        MOV     DPL,?XSP + 0
        MOV     DPH,?XSP + 1
        MOVX    A,@DPTR
        XRL     A,#0x2
        JZ      ??zb_HandleKeys_2
//  170         {
//  171           logicalType = ZG_DEVICETYPE_COORDINATOR;  // 0x00
        CLR     A
        MOVX    @DPTR,A
//  172           zb_WriteConfiguration(ZCD_NV_LOGICAL_TYPE, sizeof(uint8), &logicalType);
        ; Setup parameters for call to function zb_WriteConfiguration
        MOV     R4,DPL
        MOV     R5,DPH
        MOV     R2,#0x1
        MOV     R1,#-0x79
        LCALL   ??zb_WriteConfiguration?relay
//  173         }
//  174 
//  175         // Do more configuration if necessary and then restart device with auto-start bit set
//  176         // write endpoint to simple desc...dont pass it in start req..then reset
//  177 
//  178         // 修改 StartOptions 的值， 并保存在 NV 中
//  179         zb_ReadConfiguration( ZCD_NV_STARTUP_OPTION, sizeof(uint8), &startOptions );
??zb_HandleKeys_2:
        ; Setup parameters for call to function zb_ReadConfiguration
        MOV     A,#0x1
        LCALL   ?XSTACK_DISP0_8
        MOV     R4,DPL
        MOV     R5,DPH
        MOV     R2,#0x1
        MOV     R1,#0x3
        LCALL   ??zb_ReadConfiguration?relay
//  180         startOptions = ZCD_STARTOPT_AUTO_START; // 0x04
        MOV     A,#0x1
        LCALL   ?XSTACK_DISP0_8
        MOV     A,#0x4
        MOVX    @DPTR,A
//  181         zb_WriteConfiguration( ZCD_NV_STARTUP_OPTION, sizeof(uint8), &startOptions );
        ; Setup parameters for call to function zb_WriteConfiguration
        MOV     R4,DPL
        MOV     R5,DPH
        MOV     R2,#0x1
        MOV     R1,#0x3
        LCALL   ??zb_WriteConfiguration?relay
//  182       
//  183         zb_SystemReset(); // 重启协调器设备, 看门狗复位
        ; Setup parameters for call to function zb_SystemReset
        LCALL   ??zb_SystemReset?relay
        SJMP    ??zb_HandleKeys_0
//  184       }
//  185       else
//  186       {
//  187         // Initiate a binding
//  188         zb_AllowBind( myAllowBindTimeout );     // 10
??zb_HandleKeys_1:
        ; Setup parameters for call to function zb_AllowBind
        MOV     DPTR,#myAllowBindTimeout
        MOVX    A,@DPTR
        MOV     R1,A
        LCALL   ??zb_AllowBind?relay
//  189       }
//  190     }
//  191     if ( keys & HAL_KEY_SW_2 )  // 0x02
//  192     {
//  193 //      if ( myAppState == APP_INIT )
//  194 //      {
//  195 //        // In the init state, keys are used to indicate the logical mode.
//  196 //        // Key 2 starts device as a router
//  197 //
//  198 //        zb_ReadConfiguration( ZCD_NV_LOGICAL_TYPE, sizeof(uint8), &logicalType );
//  199 //        if ( logicalType != ZG_DEVICETYPE_ENDDEVICE )
//  200 //        {
//  201 //          logicalType = ZG_DEVICETYPE_ROUTER;
//  202 //          zb_WriteConfiguration(ZCD_NV_LOGICAL_TYPE, sizeof(uint8), &logicalType);
//  203 //        }
//  204 //
//  205 //        zb_ReadConfiguration( ZCD_NV_STARTUP_OPTION, sizeof(uint8), &startOptions );
//  206 //        startOptions = ZCD_STARTOPT_AUTO_START;
//  207 //        zb_WriteConfiguration( ZCD_NV_STARTUP_OPTION, sizeof(uint8), &startOptions );
//  208 //        zb_SystemReset();
//  209 //      }
//  210 //      else
//  211 //      {
//  212 //      }
//  213 #pragma message("HAL_KEY_SW_2 被触发")
//  214     }
//  215     if ( keys & HAL_KEY_SW_3 )
//  216     {
//  217     }
//  218     if ( keys & HAL_KEY_SW_4 )
//  219     {
//  220     }
//  221   }
//  222 }
??zb_HandleKeys_0:
        MOV     A,#0x2
        LCALL   ?DEALLOC_XSTACK8
        CFI EndBlock cfiBlock1
        REQUIRE ?Subroutine0
        ; // Fall through to label ?Subroutine0

        RSEG BANKED_CODE:CODE:NOROOT(0)
?Subroutine0:
        CFI Block cfiBlock2 Using cfiCommon0
        CFI NoFunction
        CFI CFA_SP SP+0
        CFI CFA_XSP16 add(XSP16, 9)
        CFI VB load(1, XDATA, add(CFA_XSP16, literal(-8)))
        CFI DPL0 load(1, XDATA, add(CFA_XSP16, literal(-2)))
        CFI DPH0 load(1, XDATA, add(CFA_XSP16, literal(-1)))
        CFI R6 load(1, XDATA, add(CFA_XSP16, literal(-9)))
        CFI R7 load(1, XDATA, add(CFA_XSP16, literal(-6)))
        CFI V0 load(1, XDATA, add(CFA_XSP16, literal(-7)))
        CFI ?BRET_EXT load(1, XDATA, add(CFA_XSP16, literal(-3)))
        CFI ?RET_HIGH load(1, XDATA, add(CFA_XSP16, literal(-4)))
        CFI ?RET_LOW load(1, XDATA, add(CFA_XSP16, literal(-5)))
        MOV     R7,#0x1
        LJMP    ?BANKED_LEAVE_XDATA
        CFI EndBlock cfiBlock2
//  223 /******************************************************************************
//  224  * @fn          zb_StartConfirm
//  225  *
//  226  * @brief       The zb_StartConfirm callback is called by the ZigBee stack
//  227  *              after a start request operation completes
//  228  *
//  229  * @param       status - The status of the start operation.  Status of
//  230  *                       ZB_SUCCESS indicates the start operation completed
//  231  *                       successfully.  Else the status is an error code.
//  232  *
//  233  * @return      none
//  234  */

        RSEG BANKED_CODE:CODE:NOROOT(0)
//  235 void zb_StartConfirm( uint8 status )
zb_StartConfirm:
        CFI Block cfiBlock3 Using cfiCommon0
        CFI Function zb_StartConfirm
        CODE
//  236 {
        FUNCALL zb_StartConfirm, osal_start_timerEx
        LOCFRAME ISTACK, 0, STACK
        LOCFRAME PSTACK, 0, STACK
        LOCFRAME XSTACK, 9, STACK
        LOCFRAME IOVERLAY, 0, STATIC
        LOCFRAME DOVERLAY, 0, STATIC
        ARGFRAME ISTACK, 0, STACK
        ARGFRAME PSTACK, 0, STACK
        ARGFRAME XSTACK, 9, STACK
        ARGFRAME IOVERLAY, 0, STATIC
        ARGFRAME DOVERLAY, 0, STATIC
        MOV     A,#-0x9
        LCALL   ?BANKED_ENTER_XDATA
        CFI DPH0 load(1, XDATA, add(CFA_XSP16, literal(-1)))
        CFI DPL0 load(1, XDATA, add(CFA_XSP16, literal(-2)))
        CFI ?BRET_EXT load(1, XDATA, add(CFA_XSP16, literal(-3)))
        CFI ?RET_HIGH load(1, XDATA, add(CFA_XSP16, literal(-4)))
        CFI ?RET_LOW load(1, XDATA, add(CFA_XSP16, literal(-5)))
        CFI R7 load(1, XDATA, add(CFA_XSP16, literal(-6)))
        CFI V0 load(1, XDATA, add(CFA_XSP16, literal(-7)))
        CFI VB load(1, XDATA, add(CFA_XSP16, literal(-8)))
        CFI R6 load(1, XDATA, add(CFA_XSP16, literal(-9)))
        CFI CFA_SP SP+0
        CFI CFA_XSP16 add(XSP16, 9)
        ; Saved register size: 9
        ; Auto size: 0
        MOV     A,R1
//  237  // If the device sucessfully started, change state to running
//  238   if ( status == ZB_SUCCESS )
        JNZ     ??zb_StartConfirm_0
//  239   {
//  240     myAppState = APP_START;
        MOV     DPTR,#myAppState
        MOV     A,#0x1
        MOVX    @DPTR,A
        SJMP    ??zb_StartConfirm_1
//  241   }
//  242   else
//  243   {
//  244     // Try again later with a delay
//  245     osal_start_timerEx(sapi_TaskID, MY_START_EVT, myStartRetryDelay);
??zb_StartConfirm_0:
        ; Setup parameters for call to function osal_start_timerEx
        MOV     DPTR,#myStartRetryDelay
        MOVX    A,@DPTR
        MOV     R4,A
        MOV     R5,#0x0
        MOV     R2,#0x1
        MOV     R3,#0x0
        MOV     DPTR,#sapi_TaskID
        MOVX    A,@DPTR
        MOV     R1,A
        LCALL   ??osal_start_timerEx?relay
//  246   }
//  247 }
??zb_StartConfirm_1:
        SJMP    ?Subroutine0
        CFI EndBlock cfiBlock3
//  248 
//  249 /******************************************************************************
//  250  * @fn          zb_SendDataConfirm
//  251  *
//  252  * @brief       The zb_SendDataConfirm callback function is called by the
//  253  *              ZigBee after a send data operation completes
//  254  *
//  255  * @param       handle - The handle identifying the data transmission.
//  256  *              status - The status of the operation.
//  257  *
//  258  * @return      none
//  259  */

        RSEG BANKED_CODE:CODE:NOROOT(0)
//  260 void zb_SendDataConfirm( uint8 handle, uint8 status )
zb_SendDataConfirm:
        CFI Block cfiBlock4 Using cfiCommon0
        CFI Function zb_SendDataConfirm
        CODE
//  261 {
        ; Saved register size: 0
        ; Auto size: 0
//  262 }
        LJMP    ?BRET
        CFI EndBlock cfiBlock4
//  263 
//  264 /******************************************************************************
//  265  * @fn          zb_BindConfirm
//  266  *
//  267  * @brief       The zb_BindConfirm callback is called by the ZigBee stack
//  268  *              after a bind operation completes.
//  269  *
//  270  * @param       commandId - The command ID of the binding being confirmed.
//  271  *              status - The status of the bind operation.
//  272  *
//  273  * @return      none
//  274  */

        RSEG BANKED_CODE:CODE:NOROOT(0)
//  275 void zb_BindConfirm( uint16 commandId, uint8 status )
zb_BindConfirm:
        CFI Block cfiBlock5 Using cfiCommon0
        CFI Function zb_BindConfirm
        CODE
//  276 {
        ; Saved register size: 0
        ; Auto size: 0
//  277 }
        LJMP    ?BRET
        CFI EndBlock cfiBlock5
//  278 /******************************************************************************
//  279  * @fn          zb_AllowBindConfirm
//  280  *
//  281  * @brief       Indicates when another device attempted to bind to this device
//  282  *
//  283  * @param
//  284  *
//  285  * @return      none
//  286  */

        RSEG BANKED_CODE:CODE:NOROOT(0)
//  287 void zb_AllowBindConfirm( uint16 source )
zb_AllowBindConfirm:
        CFI Block cfiBlock6 Using cfiCommon0
        CFI Function zb_AllowBindConfirm
        CODE
//  288 {
        FUNCALL zb_AllowBindConfirm, HalLedBlink
        LOCFRAME ISTACK, 2, STACK
        LOCFRAME PSTACK, 0, STACK
        LOCFRAME XSTACK, 0, STACK
        LOCFRAME IOVERLAY, 0, STATIC
        LOCFRAME DOVERLAY, 0, STATIC
        ARGFRAME ISTACK, 2, STACK
        ARGFRAME PSTACK, 0, STACK
        ARGFRAME XSTACK, 0, STACK
        ARGFRAME IOVERLAY, 0, STATIC
        ARGFRAME DOVERLAY, 0, STATIC
        PUSH    DPL
        CFI DPL0 Frame(CFA_SP, 4)
        CFI CFA_SP SP+-4
        PUSH    DPH
        CFI DPH0 Frame(CFA_SP, 5)
        CFI CFA_SP SP+-5
        ; Saved register size: 2
        ; Auto size: 0
//  289   // Flash LED
//  290   //HalLedSet( HAL_LED_1, HAL_LED_MODE_BLINK );
//  291 	HalLedBlink (HAL_LED_1, 5, HAL_LED_DEFAULT_DUTY_CYCLE, HAL_LED_DEFAULT_FLASH_TIME);
        ; Setup parameters for call to function HalLedBlink
        MOV     R4,#-0x18
        MOV     R5,#0x3
        MOV     R3,#0x32
        MOV     R2,#0x5
        MOV     R1,#0x1
        LCALL   ??HalLedBlink?relay
        CFI EndBlock cfiBlock6
//  292 }
        REQUIRE ?Subroutine1
        ; // Fall through to label ?Subroutine1

        RSEG BANKED_CODE:CODE:NOROOT(0)
?Subroutine1:
        CFI Block cfiBlock7 Using cfiCommon0
        CFI NoFunction
        CFI CFA_SP SP+-5
        CFI DPL0 Frame(CFA_SP, 4)
        CFI DPH0 Frame(CFA_SP, 5)
        POP     DPH
        CFI CFA_SP SP+-4
        CFI DPH0 SameValue
        POP     DPL
        CFI CFA_SP SP+-3
        CFI DPL0 SameValue
        LJMP    ?BRET
        CFI EndBlock cfiBlock7
//  293 /******************************************************************************
//  294  * @fn          zb_FindDeviceConfirm
//  295  *
//  296  * @brief       The zb_FindDeviceConfirm callback function is called by the
//  297  *              ZigBee stack when a find device operation completes.
//  298  *
//  299  * @param       searchType - The type of search that was performed.
//  300  *              searchKey - Value that the search was executed on.
//  301  *              result - The result of the search.
//  302  *
//  303  * @return      none
//  304  */

        RSEG BANKED_CODE:CODE:NOROOT(0)
//  305 void zb_FindDeviceConfirm( uint8 searchType, uint8 *searchKey, uint8 *result )
zb_FindDeviceConfirm:
        CFI Block cfiBlock8 Using cfiCommon0
        CFI Function zb_FindDeviceConfirm
        CODE
//  306 {
        ; Saved register size: 0
        ; Auto size: 0
//  307 }
        LJMP    ?BRET
        CFI EndBlock cfiBlock8
//  308 
//  309 /******************************************************************************
//  310  * @fn          zb_ReceiveDataIndication
//  311  *
//  312  * @brief       The zb_ReceiveDataIndication callback function is called
//  313  *              asynchronously by the ZigBee stack to notify the application
//  314  *              when data is received from a peer device.
//  315  *
//  316  * @param       source - The short address of the peer device that sent the data
//  317  *              command - The commandId associated with the data
//  318  *              len - The number of bytes in the pData parameter
//  319  *              pData - The data sent by the peer device
//  320  *
//  321  * @return      none
//  322  */

        RSEG BANKED_CODE:CODE:NOROOT(0)
//  323 void zb_ReceiveDataIndication( uint16 source, uint16 command, uint16 len, uint8 *pData  )
zb_ReceiveDataIndication:
        CFI Block cfiBlock9 Using cfiCommon0
        CFI Function zb_ReceiveDataIndication
        CODE
//  324 {
        FUNCALL zb_ReceiveDataIndication, HalLedSet
        LOCFRAME ISTACK, 2, STACK
        LOCFRAME PSTACK, 0, STACK
        LOCFRAME XSTACK, 0, STACK
        LOCFRAME IOVERLAY, 0, STATIC
        LOCFRAME DOVERLAY, 0, STATIC
        ARGFRAME ISTACK, 2, STACK
        ARGFRAME PSTACK, 0, STACK
        ARGFRAME XSTACK, 0, STACK
        ARGFRAME IOVERLAY, 0, STATIC
        ARGFRAME DOVERLAY, 0, STATIC
        PUSH    DPL
        CFI DPL0 Frame(CFA_SP, 4)
        CFI CFA_SP SP+-4
        PUSH    DPH
        CFI DPH0 Frame(CFA_SP, 5)
        CFI CFA_SP SP+-5
        ; Saved register size: 2
        ; Auto size: 0
//  325   if (command == TOGGLE_LIGHT_CMD_ID)
        MOV     A,#0x1
        XRL     A,R4
        JNZ     ??zb_ReceiveDataIndication_0
        MOV     A,R5
??zb_ReceiveDataIndication_0:
        JNZ     ??zb_ReceiveDataIndication_1
//  326   {
//  327     // Received application command to toggle the LED
//  328     HalLedSet(HAL_LED_1, HAL_LED_MODE_TOGGLE);
        ; Setup parameters for call to function HalLedSet
        MOV     R2,#0x8
        MOV     R1,#0x1
        LCALL   ??HalLedSet?relay
//  329   }
//  330 }
??zb_ReceiveDataIndication_1:
        SJMP    ?Subroutine1
        CFI EndBlock cfiBlock9

        RSEG XDATA_ID:CODE:NOROOT(0)
`?<Initializer for myStartRetryDelay>`:
        DATA8
        DB 10

        RSEG XDATA_ID:CODE:NOROOT(0)
`?<Initializer for myAllowBindTimeout>`:
        DATA8
        DB 10

        RSEG BANK_RELAYS:CODE:REORDER:NOROOT(0)
??zb_HandleOsalEvent?relay:
        LCALL   ?BDISPATCH
        DATA
        DC24    zb_HandleOsalEvent

        RSEG BANK_RELAYS:CODE:REORDER:NOROOT(0)
??zb_HandleKeys?relay:
        LCALL   ?BDISPATCH
        DATA
        DC24    zb_HandleKeys

        RSEG BANK_RELAYS:CODE:REORDER:NOROOT(0)
??zb_StartConfirm?relay:
        LCALL   ?BDISPATCH
        DATA
        DC24    zb_StartConfirm

        RSEG BANK_RELAYS:CODE:REORDER:NOROOT(0)
??zb_SendDataConfirm?relay:
        LCALL   ?BDISPATCH
        DATA
        DC24    zb_SendDataConfirm

        RSEG BANK_RELAYS:CODE:REORDER:NOROOT(0)
??zb_BindConfirm?relay:
        LCALL   ?BDISPATCH
        DATA
        DC24    zb_BindConfirm

        RSEG BANK_RELAYS:CODE:REORDER:NOROOT(0)
??zb_AllowBindConfirm?relay:
        LCALL   ?BDISPATCH
        DATA
        DC24    zb_AllowBindConfirm

        RSEG BANK_RELAYS:CODE:REORDER:NOROOT(0)
??zb_FindDeviceConfirm?relay:
        LCALL   ?BDISPATCH
        DATA
        DC24    zb_FindDeviceConfirm

        RSEG BANK_RELAYS:CODE:REORDER:NOROOT(0)
??zb_ReceiveDataIndication?relay:
        LCALL   ?BDISPATCH
        DATA
        DC24    zb_ReceiveDataIndication

        END
// 
// 221 bytes in segment BANKED_CODE
//  48 bytes in segment BANK_RELAYS
//   2 bytes in segment XDATA_I
//   2 bytes in segment XDATA_ID
//  14 bytes in segment XDATA_ROM_C
//   1 byte  in segment XDATA_Z
// 
// 271 bytes of CODE  memory
//  14 bytes of CONST memory
//   3 bytes of XDATA memory
//
//Errors: none
//Warnings: none
