///////////////////////////////////////////////////////////////////////////////
//                                                                            /
// IAR C/C++ Compiler V8.10.3.10338/W32 for 8051        13/Jan/2016  14:32:44 /
// Copyright 2004-2011 IAR Systems AB.                                        /
//                                                                            /
//    Core               =  plain                                             /
//    Code model         =  banked                                            /
//    Data model         =  large                                             /
//    Calling convention =  xdata reentrant                                   /
//    Constant location  =  data_rom                                          /
//    Dptr setup         =  1,16                                              /
//    Source file        =  E:\Work Codes\ZigBee\Network\Components\stack\zdo /
//                          \ZDApp.c                                          /
//    Command line       =  -f "E:\Work Codes\ZigBee\Network\Projects\zstack\ /
//                          Samples\SimpleApp_Dul\CC2530DB\..\..\..\Tools\CC2 /
//                          530DB\f8wCoord.cfg" (-DCPU32MHZ                   /
//                          -DROOT=__near_func -DMAC_CFG_APP_PENDING_QUEUE=TR /
//                          UE -DZDO_COORDINATOR -DRTR_NWK -DBLINK_LEDS) -f   /
//                          "E:\Work Codes\ZigBee\Network\Projects\zstack\Sam /
//                          ples\SimpleApp_Dul\CC2530DB\..\..\..\Tools\CC2530 /
//                          DB\f8wConfig.cfg" (-DSECURE=0                     /
//                          -DZG_SECURE_DYNAMIC=0 -DREFLECTOR                 /
//                          -DDEFAULT_CHANLIST=0x00000800                     /
//                          -DZDAPP_CONFIG_PAN_ID=0xFFFA                      /
//                          -DNWK_START_DELAY=100 -DEXTENDED_JOINING_RANDOM_M /
//                          ASK=0x007F -DBEACON_REQUEST_DELAY=100             /
//                          -DBEACON_REQ_DELAY_MASK=0x00FF                    /
//                          -DROUTE_EXPIRY_TIME=30 -DAPSC_ACK_WAIT_DURATION_P /
//                          OLLED=3000 -DNWK_INDIRECT_MSG_TIMEOUT=7           /
//                          -DMAX_RREQ_ENTRIES=8 -DAPSC_MAX_FRAME_RETRIES=3   /
//                          -DNWK_MAX_DATA_RETRIES=2                          /
//                          -DMAX_POLL_FAILURE_RETRIES=2 -DMAX_BCAST=9        /
//                          -DAPS_MAX_GROUPS=16 -DMAX_RTG_ENTRIES=40          /
//                          -DNWK_MAX_BINDING_ENTRIES=4                       /
//                          -DMAX_BINDING_CLUSTER_IDS=4                       /
//                          "-DDEFAULT_KEY={0x01, 0x03, 0x05, 0x07, 0x09,     /
//                          0x0B, 0x0D, 0x0F, 0x00, 0x02, 0x04, 0x06, 0x08,   /
//                          0x0A, 0x0C, 0x0D}" -DMAC_MAX_FRAME_SIZE=116       /
//                          "-DCONST=const __code" -DGENERIC=__generic        /
//                          -DRFD_RCVC_ALWAYS_ON=FALSE -DPOLL_RATE=1000       /
//                          -DQUEUED_POLL_RATE=100 -DRESPONSE_POLL_RATE=100)  /
//                          -DREJOIN_POLL_RATE=440 "E:\Work                   /
//                          Codes\ZigBee\Network\Components\stack\zdo\ZDApp.c /
//                          " -D HOLD_AUTO_START -D BUILD_ALL_DEVICES -D      /
//                          REFLECTOR -D NV_INIT -D xNV_RESTORE -D xZTOOL_P1  /
//                          -D xMT_TASK -D xMT_SYS_FUNC -D xMT_SAPI_FUNC -D   /
//                          xMT_SAPI_CB_FUNC -D LCD_SUPPORTED=DEBUG -D        /
//                          LCD_SUPPORTED -lC "E:\Work                        /
//                          Codes\ZigBee\Network\Projects\zstack\Samples\Simp /
//                          leApp_Dul\CC2530DB\SimpleControllerEB\List\" -lA  /
//                          "E:\Work Codes\ZigBee\Network\Projects\zstack\Sam /
//                          ples\SimpleApp_Dul\CC2530DB\SimpleControllerEB\Li /
//                          st\" --diag_suppress Pe001,Pa010 -o "E:\Work      /
//                          Codes\ZigBee\Network\Projects\zstack\Samples\Simp /
//                          leApp_Dul\CC2530DB\SimpleControllerEB\Obj\" -e    /
//                          --debug --core=plain --dptr=16,1                  /
//                          --data_model=large --code_model=banked            /
//                          --calling_convention=xdata_reentrant              /
//                          --place_constants=data_rom --nr_virtual_regs 16   /
//                          -I "E:\Work Codes\ZigBee\Network\Projects\zstack\ /
//                          Samples\SimpleApp_Dul\CC2530DB\" -I "E:\Work      /
//                          Codes\ZigBee\Network\Projects\zstack\Samples\Simp /
//                          leApp_Dul\CC2530DB\..\SOURCE\" -I "E:\Work        /
//                          Codes\ZigBee\Network\Projects\zstack\Samples\Simp /
//                          leApp_Dul\CC2530DB\..\..\..\ZMAIN\TI2530DB\" -I   /
//                          "E:\Work Codes\ZigBee\Network\Projects\zstack\Sam /
//                          ples\SimpleApp_Dul\CC2530DB\..\..\..\..\..\COMPON /
//                          ENTS\MT\" -I "E:\Work Codes\ZigBee\Network\Projec /
//                          ts\zstack\Samples\SimpleApp_Dul\CC2530DB\..\..\.. /
//                          \..\..\COMPONENTS\HAL\INCLUDE\" -I "E:\Work       /
//                          Codes\ZigBee\Network\Projects\zstack\Samples\Simp /
//                          leApp_Dul\CC2530DB\..\..\..\..\..\COMPONENTS\HAL\ /
//                          TARGET\CC2530EB\" -I "E:\Work                     /
//                          Codes\ZigBee\Network\Projects\zstack\Samples\Simp /
//                          leApp_Dul\CC2530DB\..\..\..\..\..\COMPONENTS\OSAL /
//                          \MCU\CCSOC\" -I "E:\Work                          /
//                          Codes\ZigBee\Network\Projects\zstack\Samples\Simp /
//                          leApp_Dul\CC2530DB\..\..\..\..\..\COMPONENTS\OSAL /
//                          \INCLUDE\" -I "E:\Work Codes\ZigBee\Network\Proje /
//                          cts\zstack\Samples\SimpleApp_Dul\CC2530DB\..\..\. /
//                          .\..\..\COMPONENTS\STACK\AF\" -I "E:\Work         /
//                          Codes\ZigBee\Network\Projects\zstack\Samples\Simp /
//                          leApp_Dul\CC2530DB\..\..\..\..\..\COMPONENTS\STAC /
//                          K\NWK\" -I "E:\Work Codes\ZigBee\Network\Projects /
//                          \zstack\Samples\SimpleApp_Dul\CC2530DB\..\..\..\. /
//                          .\..\COMPONENTS\STACK\SEC\" -I "E:\Work           /
//                          Codes\ZigBee\Network\Projects\zstack\Samples\Simp /
//                          leApp_Dul\CC2530DB\..\..\..\..\..\COMPONENTS\STAC /
//                          K\SAPI\" -I "E:\Work Codes\ZigBee\Network\Project /
//                          s\zstack\Samples\SimpleApp_Dul\CC2530DB\..\..\..\ /
//                          ..\..\COMPONENTS\STACK\SYS\" -I "E:\Work          /
//                          Codes\ZigBee\Network\Projects\zstack\Samples\Simp /
//                          leApp_Dul\CC2530DB\..\..\..\..\..\COMPONENTS\STAC /
//                          K\ZDO\" -I "E:\Work Codes\ZigBee\Network\Projects /
//                          \zstack\Samples\SimpleApp_Dul\CC2530DB\..\..\..\. /
//                          .\..\COMPONENTS\ZMAC\F8W\" -I "E:\Work            /
//                          Codes\ZigBee\Network\Projects\zstack\Samples\Simp /
//                          leApp_Dul\CC2530DB\..\..\..\..\..\COMPONENTS\ZMAC /
//                          \" -I "E:\Work Codes\ZigBee\Network\Projects\zsta /
//                          ck\Samples\SimpleApp_Dul\CC2530DB\..\..\..\..\..\ /
//                          COMPONENTS\SERVICES\SADDR\" -I "E:\Work           /
//                          Codes\ZigBee\Network\Projects\zstack\Samples\Simp /
//                          leApp_Dul\CC2530DB\..\..\..\..\..\COMPONENTS\SERV /
//                          ICES\SDATA\" -I "E:\Work                          /
//                          Codes\ZigBee\Network\Projects\zstack\Samples\Simp /
//                          leApp_Dul\CC2530DB\..\..\..\..\..\COMPONENTS\MAC\ /
//                          INCLUDE\" -I "E:\Work Codes\ZigBee\Network\Projec /
//                          ts\zstack\Samples\SimpleApp_Dul\CC2530DB\..\..\.. /
//                          \..\..\COMPONENTS\MAC\HIGH_LEVEL\" -I "E:\Work    /
//                          Codes\ZigBee\Network\Projects\zstack\Samples\Simp /
//                          leApp_Dul\CC2530DB\..\..\..\..\..\COMPONENTS\MAC\ /
//                          LOW_LEVEL\srf04\" -I "E:\Work                     /
//                          Codes\ZigBee\Network\Projects\zstack\Samples\Simp /
//                          leApp_Dul\CC2530DB\..\..\..\..\..\COMPONENTS\MAC\ /
//                          LOW_LEVEL\srf04\SINGLE_CHIP\" -Ohz                /
//                          --require_prototypes                              /
//    List file          =  E:\Work Codes\ZigBee\Network\Projects\zstack\Samp /
//                          les\SimpleApp_Dul\CC2530DB\SimpleControllerEB\Lis /
//                          t\ZDApp.s51                                       /
//                                                                            /
//                                                                            /
///////////////////////////////////////////////////////////////////////////////

        NAME ZDApp

        RTMODEL "__SystemLibrary", "CLib"
        RTMODEL "__calling_convention", "xdata_reentrant"
        RTMODEL "__code_model", "banked"
        RTMODEL "__core", "plain"
        RTMODEL "__data_model", "large"
        RTMODEL "__dptr_size", "16"
        RTMODEL "__extended_stack", "disabled"
        RTMODEL "__location_for_constants", "data"
        RTMODEL "__number_of_dptrs", "1"
        RTMODEL "__rt_version", "1"

        RSEG DOVERLAY:DATA:NOROOT(0)
        RSEG IOVERLAY:IDATA:NOROOT(0)
        RSEG ISTACK:IDATA:NOROOT(0)
        RSEG PSTACK:XDATA:NOROOT(0)
        RSEG XSTACK:XDATA:NOROOT(0)

        EXTERN ?ALLOC_XSTACK8
        EXTERN ?BANKED_ENTER_XDATA
        EXTERN ?BANKED_LEAVE_XDATA
        EXTERN ?BDISPATCH
        EXTERN ?BRET
        EXTERN ?CALL_IND
        EXTERN ?DEALLOC_XSTACK8
        EXTERN ?L_ADD_TO_X
        EXTERN ?L_ADD_X
        EXTERN ?L_MOV_TO_X
        EXTERN ?L_MOV_X
        EXTERN ?PUSH_XSTACK_I_ONE
        EXTERN ?PUSH_XSTACK_I_THREE
        EXTERN ?PUSH_XSTACK_I_TWO
        EXTERN ?US_SWITCH_SPARSE
        EXTERN ?V0
        EXTERN ?XSP
        EXTERN ?XSTACK_DISP0_8
        EXTERN __INIT_XDATA_I
        EXTERN __INIT_XDATA_Z

        PUBLIC ??AddrMgrWriteNVRequest?relay
        FUNCTION ??AddrMgrWriteNVRequest?relay,0203H
        PUBLIC ??ZDAppCheckForHoldKey?relay
        FUNCTION ??ZDAppCheckForHoldKey?relay,0203H
        PUBLIC ??ZDAppDetermineDeviceType?relay
        FUNCTION ??ZDAppDetermineDeviceType?relay,0203H
        PUBLIC ??ZDApp_AnnounceNewAddress?relay
        FUNCTION ??ZDApp_AnnounceNewAddress?relay,0203H
        PUBLIC ??ZDApp_ChangeMatchDescRespPermission?relay
        FUNCTION ??ZDApp_ChangeMatchDescRespPermission?relay,0203H
        PUBLIC ??ZDApp_CoordStartPANIDConflictCB?relay
        FUNCTION ??ZDApp_CoordStartPANIDConflictCB?relay,0203H
        PUBLIC ??ZDApp_DeviceAuthEvt?relay
        FUNCTION ??ZDApp_DeviceAuthEvt?relay,0203H
        PUBLIC ??ZDApp_InMsgCB?relay
        FUNCTION ??ZDApp_InMsgCB?relay,0203H
        PUBLIC ??ZDApp_Init?relay
        FUNCTION ??ZDApp_Init?relay,0203H
        PUBLIC ??ZDApp_InitUserDesc?relay
        FUNCTION ??ZDApp_InitUserDesc?relay,0203H
        PUBLIC ??ZDApp_LeaveCtrlBypass?relay
        FUNCTION ??ZDApp_LeaveCtrlBypass?relay,0203H
        PUBLIC ??ZDApp_LeaveCtrlInit?relay
        FUNCTION ??ZDApp_LeaveCtrlInit?relay,0203H
        PUBLIC ??ZDApp_LeaveCtrlSet?relay
        FUNCTION ??ZDApp_LeaveCtrlSet?relay,0203H
        PUBLIC ??ZDApp_LeaveCtrlStartup?relay
        FUNCTION ??ZDApp_LeaveCtrlStartup?relay,0203H
        PUBLIC ??ZDApp_LeaveReset?relay
        FUNCTION ??ZDApp_LeaveReset?relay,0203H
        PUBLIC ??ZDApp_LeaveUpdate?relay
        FUNCTION ??ZDApp_LeaveUpdate?relay,0203H
        PUBLIC ??ZDApp_NVUpdate?relay
        FUNCTION ??ZDApp_NVUpdate?relay,0203H
        PUBLIC ??ZDApp_NetworkInit?relay
        FUNCTION ??ZDApp_NetworkInit?relay,0203H
        PUBLIC ??ZDApp_NetworkStartEvt?relay
        FUNCTION ??ZDApp_NetworkStartEvt?relay,0203H
        PUBLIC ??ZDApp_NodeProfileSync?relay
        FUNCTION ??ZDApp_NodeProfileSync?relay,0203H
        PUBLIC ??ZDApp_NwkStateUpdateCB?relay
        FUNCTION ??ZDApp_NwkStateUpdateCB?relay,0203H
        PUBLIC ??ZDApp_ProcessMsgCBs?relay
        FUNCTION ??ZDApp_ProcessMsgCBs?relay,0203H
        PUBLIC ??ZDApp_ProcessNetworkJoin?relay
        FUNCTION ??ZDApp_ProcessNetworkJoin?relay,0203H
        PUBLIC ??ZDApp_ProcessOSALMsg?relay
        FUNCTION ??ZDApp_ProcessOSALMsg?relay,0203H
        PUBLIC ??ZDApp_ProcessSecEvent?relay
        FUNCTION ??ZDApp_ProcessSecEvent?relay,0203H
        PUBLIC ??ZDApp_ProcessSecMsg?relay
        FUNCTION ??ZDApp_ProcessSecMsg?relay,0203H
        PUBLIC ??ZDApp_ReadNetworkRestoreState?relay
        FUNCTION ??ZDApp_ReadNetworkRestoreState?relay,0203H
        PUBLIC ??ZDApp_RegisterCBs?relay
        FUNCTION ??ZDApp_RegisterCBs?relay,0203H
        PUBLIC ??ZDApp_ResetNwkKey?relay
        FUNCTION ??ZDApp_ResetNwkKey?relay,0203H
        PUBLIC ??ZDApp_ResetTimerCancel?relay
        FUNCTION ??ZDApp_ResetTimerCancel?relay,0203H
        PUBLIC ??ZDApp_ResetTimerStart?relay
        FUNCTION ??ZDApp_ResetTimerStart?relay,0203H
        PUBLIC ??ZDApp_RestoreNetworkState?relay
        FUNCTION ??ZDApp_RestoreNetworkState?relay,0203H
        PUBLIC ??ZDApp_RestoreNwkKey?relay
        FUNCTION ??ZDApp_RestoreNwkKey?relay,0203H
        PUBLIC ??ZDApp_SaveNetworkStateEvt?relay
        FUNCTION ??ZDApp_SaveNetworkStateEvt?relay,0203H
        PUBLIC ??ZDApp_SaveNwkKey?relay
        FUNCTION ??ZDApp_SaveNwkKey?relay,0203H
        PUBLIC ??ZDApp_SecInit?relay
        FUNCTION ??ZDApp_SecInit?relay,0203H
        PUBLIC ??ZDApp_SendEventMsg?relay
        FUNCTION ??ZDApp_SendEventMsg?relay,0203H
        PUBLIC ??ZDApp_SendMsg?relay
        FUNCTION ??ZDApp_SendMsg?relay,0203H
        PUBLIC ??ZDApp_StartJoiningCycle?relay
        FUNCTION ??ZDApp_StartJoiningCycle?relay,0203H
        PUBLIC ??ZDApp_StopJoiningCycle?relay
        FUNCTION ??ZDApp_StopJoiningCycle?relay,0203H
        PUBLIC ??ZDApp_event_loop?relay
        FUNCTION ??ZDApp_event_loop?relay,0203H
        PUBLIC ??ZDOInitDevice?relay
        FUNCTION ??ZDOInitDevice?relay,0203H
        PUBLIC ??ZDO_AddrChangeIndicationCB?relay
        FUNCTION ??ZDO_AddrChangeIndicationCB?relay,0203H
        PUBLIC ??ZDO_ConcentratorIndicationCB?relay
        FUNCTION ??ZDO_ConcentratorIndicationCB?relay,0203H
        PUBLIC ??ZDO_JoinConfirmCB?relay
        FUNCTION ??ZDO_JoinConfirmCB?relay,0203H
        PUBLIC ??ZDO_JoinIndicationCB?relay
        FUNCTION ??ZDO_JoinIndicationCB?relay,0203H
        PUBLIC ??ZDO_LeaveCnf?relay
        FUNCTION ??ZDO_LeaveCnf?relay,0203H
        PUBLIC ??ZDO_LeaveInd?relay
        FUNCTION ??ZDO_LeaveInd?relay,0203H
        PUBLIC ??ZDO_ManytoOneFailureIndicationCB?relay
        FUNCTION ??ZDO_ManytoOneFailureIndicationCB?relay,0203H
        PUBLIC ??ZDO_NetworkDiscoveryConfirmCB?relay
        FUNCTION ??ZDO_NetworkDiscoveryConfirmCB?relay,0203H
        PUBLIC ??ZDO_NetworkFormationConfirmCB?relay
        FUNCTION ??ZDO_NetworkFormationConfirmCB?relay,0203H
        PUBLIC ??ZDO_PollConfirmCB?relay
        FUNCTION ??ZDO_PollConfirmCB?relay,0203H
        PUBLIC ??ZDO_RegisterForZdoCB?relay
        FUNCTION ??ZDO_RegisterForZdoCB?relay,0203H
        PUBLIC ??ZDO_SrcRtgIndCB?relay
        FUNCTION ??ZDO_SrcRtgIndCB?relay,0203H
        PUBLIC ??ZDO_StartRouterConfirmCB?relay
        FUNCTION ??ZDO_StartRouterConfirmCB?relay,0203H
        PUBLIC ??ZDO_SyncIndicationCB?relay
        FUNCTION ??ZDO_SyncIndicationCB?relay,0203H
        PUBLIC ??ZDO_UpdateDeviceIndication?relay
        FUNCTION ??ZDO_UpdateDeviceIndication?relay,0203H
        PUBLIC AddrMgrWriteNVRequest
        FUNCTION AddrMgrWriteNVRequest,0203H
        ARGFRAME XSTACK, 0, STACK
        PUBLIC MatchRsps
        PUBWEAK WDCTL
        PUBLIC ZDAppCheckForHoldKey
        FUNCTION ZDAppCheckForHoldKey,021203H
        ARGFRAME XSTACK, 9, STACK
        ARGFRAME IOVERLAY, 0, STATIC
        ARGFRAME DOVERLAY, 0, STATIC
        LOCFRAME ISTACK, 2, STACK
        PUBLIC ZDAppDetermineDeviceType
        FUNCTION ZDAppDetermineDeviceType,021203H
        ARGFRAME XSTACK, 12, STACK
        ARGFRAME IOVERLAY, 0, STATIC
        ARGFRAME DOVERLAY, 0, STATIC
        LOCFRAME ISTACK, 2, STACK
        PUBLIC ZDAppNwkAddr
        PUBLIC ZDAppTaskID
        PUBLIC ZDApp_AnnounceNewAddress
        FUNCTION ZDApp_AnnounceNewAddress,021203H
        ARGFRAME XSTACK, 12, STACK
        ARGFRAME IOVERLAY, 0, STATIC
        ARGFRAME DOVERLAY, 0, STATIC
        LOCFRAME XSTACK, 11, STACK
        PUBLIC ZDApp_AutoFindMode_epDesc
        PUBLIC ZDApp_ChangeMatchDescRespPermission
        FUNCTION ZDApp_ChangeMatchDescRespPermission,021203H
        ARGFRAME XSTACK, 0, STACK
        LOCFRAME XSTACK, 9, STACK
        PUBLIC ZDApp_CoordStartPANIDConflictCB
        FUNCTION ZDApp_CoordStartPANIDConflictCB,0203H
        ARGFRAME XSTACK, 0, STACK
        PUBLIC ZDApp_DeviceAuthEvt
        FUNCTION ZDApp_DeviceAuthEvt,021203H
        ARGFRAME XSTACK, 9, STACK
        ARGFRAME IOVERLAY, 0, STATIC
        ARGFRAME DOVERLAY, 0, STATIC
        LOCFRAME ISTACK, 2, STACK
        PUBLIC ZDApp_InMsgCB
        FUNCTION ZDApp_InMsgCB,021203H
        ARGFRAME XSTACK, 0, STACK
        LOCFRAME XSTACK, 14, STACK
        PUBLIC ZDApp_Init
        FUNCTION ZDApp_Init,021203H
        ARGFRAME XSTACK, 0, STACK
        LOCFRAME XSTACK, 9, STACK
        PUBLIC ZDApp_InitUserDesc
        FUNCTION ZDApp_InitUserDesc,021203H
        ARGFRAME XSTACK, 0, STACK
        LOCFRAME XSTACK, 31, STACK
        PUBLIC ZDApp_LeaveCtrl
        PUBLIC ZDApp_LeaveCtrlBypass
        FUNCTION ZDApp_LeaveCtrlBypass,0203H
        ARGFRAME XSTACK, 0, STACK
        LOCFRAME ISTACK, 2, STACK
        PUBLIC ZDApp_LeaveCtrlInit
        FUNCTION ZDApp_LeaveCtrlInit,021203H
        ARGFRAME XSTACK, 12, STACK
        ARGFRAME IOVERLAY, 0, STATIC
        ARGFRAME DOVERLAY, 0, STATIC
        LOCFRAME XSTACK, 14, STACK
        PUBLIC ZDApp_LeaveCtrlSet
        FUNCTION ZDApp_LeaveCtrlSet,021203H
        ARGFRAME XSTACK, 9, STACK
        ARGFRAME IOVERLAY, 0, STATIC
        ARGFRAME DOVERLAY, 0, STATIC
        LOCFRAME XSTACK, 14, STACK
        PUBLIC ZDApp_LeaveCtrlStartup
        FUNCTION ZDApp_LeaveCtrlStartup,021203H
        ARGFRAME XSTACK, 12, STACK
        ARGFRAME IOVERLAY, 0, STATIC
        ARGFRAME DOVERLAY, 0, STATIC
        LOCFRAME XSTACK, 14, STACK
        PUBLIC ZDApp_LeaveReset
        FUNCTION ZDApp_LeaveReset,021203H
        ARGFRAME XSTACK, 16, STACK
        ARGFRAME IOVERLAY, 0, STATIC
        ARGFRAME DOVERLAY, 0, STATIC
        LOCFRAME XSTACK, 9, STACK
        PUBLIC ZDApp_LeaveUpdate
        FUNCTION ZDApp_LeaveUpdate,021203H
        ARGFRAME XSTACK, 16, STACK
        ARGFRAME IOVERLAY, 0, STATIC
        ARGFRAME DOVERLAY, 0, STATIC
        LOCFRAME XSTACK, 9, STACK
        PUBLIC ZDApp_NVUpdate
        FUNCTION ZDApp_NVUpdate,0203H
        ARGFRAME XSTACK, 0, STACK
        PUBLIC ZDApp_NetworkInit
        FUNCTION ZDApp_NetworkInit,021203H
        ARGFRAME XSTACK, 16, STACK
        ARGFRAME IOVERLAY, 0, STATIC
        ARGFRAME DOVERLAY, 0, STATIC
        LOCFRAME ISTACK, 2, STACK
        PUBLIC ZDApp_NetworkStartEvt
        FUNCTION ZDApp_NetworkStartEvt,021203H
        ARGFRAME XSTACK, 10, STACK
        ARGFRAME IOVERLAY, 0, STATIC
        ARGFRAME DOVERLAY, 0, STATIC
        LOCFRAME ISTACK, 2, STACK
        PUBLIC ZDApp_NodeProfileSync
        FUNCTION ZDApp_NodeProfileSync,021203H
        ARGFRAME XSTACK, 16, STACK
        ARGFRAME IOVERLAY, 0, STATIC
        ARGFRAME DOVERLAY, 0, STATIC
        LOCFRAME XSTACK, 10, STACK
        PUBLIC ZDApp_NwkStateUpdateCB
        FUNCTION ZDApp_NwkStateUpdateCB,021203H
        ARGFRAME XSTACK, 0, STACK
        LOCFRAME ISTACK, 2, STACK
        PUBLIC ZDApp_ProcessMsgCBs
        FUNCTION ZDApp_ProcessMsgCBs,0a1203H
        ARGFRAME XSTACK, 16, STACK
        ARGFRAME IOVERLAY, 0, STATIC
        ARGFRAME DOVERLAY, 0, STATIC
        LOCFRAME XSTACK, 54, STACK
        PUBLIC ZDApp_ProcessNetworkJoin
        FUNCTION ZDApp_ProcessNetworkJoin,021203H
        ARGFRAME XSTACK, 16, STACK
        ARGFRAME IOVERLAY, 0, STATIC
        ARGFRAME DOVERLAY, 0, STATIC
        LOCFRAME XSTACK, 12, STACK
        PUBLIC ZDApp_ProcessOSALMsg
        FUNCTION ZDApp_ProcessOSALMsg,021203H
        ARGFRAME XSTACK, 10, STACK
        ARGFRAME IOVERLAY, 0, STATIC
        ARGFRAME DOVERLAY, 0, STATIC
        LOCFRAME XSTACK, 17, STACK
        PUBLIC ZDApp_ProcessSecEvent
        FUNCTION ZDApp_ProcessSecEvent,021203H
        ARGFRAME XSTACK, 0, STACK
        LOCFRAME XSTACK, 9, STACK
        PUBLIC ZDApp_ProcessSecMsg
        FUNCTION ZDApp_ProcessSecMsg,021203H
        ARGFRAME XSTACK, 0, STACK
        LOCFRAME ISTACK, 2, STACK
        PUBLIC ZDApp_ReadNetworkRestoreState
        FUNCTION ZDApp_ReadNetworkRestoreState,021203H
        ARGFRAME XSTACK, 0, STACK
        LOCFRAME XSTACK, 9, STACK
        PUBLIC ZDApp_RegisterCBs
        FUNCTION ZDApp_RegisterCBs,021203H
        ARGFRAME XSTACK, 9, STACK
        ARGFRAME IOVERLAY, 0, STATIC
        ARGFRAME DOVERLAY, 0, STATIC
        LOCFRAME ISTACK, 2, STACK
        PUBLIC ZDApp_ResetNwkKey
        FUNCTION ZDApp_ResetNwkKey,021203H
        ARGFRAME XSTACK, 0, STACK
        LOCFRAME XSTACK, 35, STACK
        PUBLIC ZDApp_ResetTimerCancel
        FUNCTION ZDApp_ResetTimerCancel,021203H
        ARGFRAME XSTACK, 0, STACK
        ARGFRAME IOVERLAY, 0, STATIC
        ARGFRAME DOVERLAY, 0, STATIC
        LOCFRAME ISTACK, 2, STACK
        PUBLIC ZDApp_ResetTimerStart
        FUNCTION ZDApp_ResetTimerStart,021203H
        ARGFRAME XSTACK, 9, STACK
        ARGFRAME IOVERLAY, 0, STATIC
        ARGFRAME DOVERLAY, 0, STATIC
        LOCFRAME ISTACK, 2, STACK
        PUBLIC ZDApp_RestoreNetworkState
        FUNCTION ZDApp_RestoreNetworkState,021203H
        ARGFRAME XSTACK, 0, STACK
        LOCFRAME XSTACK, 9, STACK
        PUBLIC ZDApp_RestoreNwkKey
        FUNCTION ZDApp_RestoreNwkKey,021203H
        ARGFRAME XSTACK, 0, STACK
        LOCFRAME XSTACK, 37, STACK
        PUBLIC ZDApp_SaveNetworkStateEvt
        FUNCTION ZDApp_SaveNetworkStateEvt,0203H
        ARGFRAME XSTACK, 0, STACK
        PUBLIC ZDApp_SaveNwkKey
        FUNCTION ZDApp_SaveNwkKey,021203H
        ARGFRAME XSTACK, 9, STACK
        ARGFRAME IOVERLAY, 0, STATIC
        ARGFRAME DOVERLAY, 0, STATIC
        LOCFRAME XSTACK, 37, STACK
        PUBLIC ZDApp_SavedPollRate
        PUBLIC ZDApp_SecInit
        FUNCTION ZDApp_SecInit,021203H
        ARGFRAME XSTACK, 0, STACK
        LOCFRAME XSTACK, 9, STACK
        PUBLIC ZDApp_SendEventMsg
        FUNCTION ZDApp_SendEventMsg,021203H
        ARGFRAME XSTACK, 0, STACK
        LOCFRAME XSTACK, 9, STACK
        PUBLIC ZDApp_SendMsg
        FUNCTION ZDApp_SendMsg,021203H
        ARGFRAME XSTACK, 32, STACK
        ARGFRAME IOVERLAY, 0, STATIC
        ARGFRAME DOVERLAY, 0, STATIC
        LOCFRAME ISTACK, 1, STACK
        LOCFRAME XSTACK, 22, STACK
        PUBLIC ZDApp_StartJoiningCycle
        FUNCTION ZDApp_StartJoiningCycle,021203H
        ARGFRAME XSTACK, 0, STACK
        LOCFRAME ISTACK, 2, STACK
        PUBLIC ZDApp_StopJoiningCycle
        FUNCTION ZDApp_StopJoiningCycle,0203H
        ARGFRAME XSTACK, 0, STACK
        LOCFRAME ISTACK, 2, STACK
        PUBLIC ZDApp_epDesc
        PUBLIC ZDApp_event_loop
        FUNCTION ZDApp_event_loop,021203H
        ARGFRAME XSTACK, 0, STACK
        LOCFRAME XSTACK, 10, STACK
        PUBLIC ZDOInitDevice
        FUNCTION ZDOInitDevice,021203H
        ARGFRAME XSTACK, 9, STACK
        ARGFRAME IOVERLAY, 0, STATIC
        ARGFRAME DOVERLAY, 0, STATIC
        LOCFRAME XSTACK, 12, STACK
        PUBLIC ZDO_AddrChangeIndicationCB
        FUNCTION ZDO_AddrChangeIndicationCB,021203H
        ARGFRAME XSTACK, 0, STACK
        LOCFRAME ISTACK, 2, STACK
        PUBLIC ZDO_ConcentratorIndicationCB
        FUNCTION ZDO_ConcentratorIndicationCB,0203H
        ARGFRAME XSTACK, 0, STACK
        PUBLIC ZDO_JoinConfirmCB
        FUNCTION ZDO_JoinConfirmCB,021203H
        ARGFRAME XSTACK, 0, STACK
        LOCFRAME XSTACK, 9, STACK
        PUBLIC ZDO_JoinIndicationCB
        FUNCTION ZDO_JoinIndicationCB,0203H
        ARGFRAME XSTACK, 1, STACK
        PUBLIC ZDO_LeaveCnf
        FUNCTION ZDO_LeaveCnf,021203H
        ARGFRAME XSTACK, 0, STACK
        LOCFRAME XSTACK, 10, STACK
        PUBLIC ZDO_LeaveInd
        FUNCTION ZDO_LeaveInd,021203H
        ARGFRAME XSTACK, 0, STACK
        LOCFRAME ISTACK, 1, STACK
        LOCFRAME XSTACK, 16, STACK
        PUBLIC ZDO_ManytoOneFailureIndicationCB
        FUNCTION ZDO_ManytoOneFailureIndicationCB,021203H
        ARGFRAME XSTACK, 0, STACK
        LOCFRAME ISTACK, 2, STACK
        PUBLIC ZDO_NetworkDiscoveryConfirmCB
        FUNCTION ZDO_NetworkDiscoveryConfirmCB,021203H
        ARGFRAME XSTACK, 0, STACK
        LOCFRAME ISTACK, 1, STACK
        LOCFRAME XSTACK, 32, STACK
        PUBLIC ZDO_NetworkFormationConfirmCB
        FUNCTION ZDO_NetworkFormationConfirmCB,021203H
        ARGFRAME XSTACK, 0, STACK
        LOCFRAME XSTACK, 9, STACK
        PUBLIC ZDO_PollConfirmCB
        FUNCTION ZDO_PollConfirmCB,0203H
        ARGFRAME XSTACK, 0, STACK
        PUBLIC ZDO_RegisterForZdoCB
        FUNCTION ZDO_RegisterForZdoCB,0203H
        ARGFRAME XSTACK, 0, STACK
        LOCFRAME ISTACK, 2, STACK
        PUBLIC ZDO_SrcRtgIndCB
        FUNCTION ZDO_SrcRtgIndCB,0203H
        ARGFRAME XSTACK, 0, STACK
        LOCFRAME ISTACK, 1, STACK
        LOCFRAME XSTACK, 14, STACK
        PUBLIC ZDO_StartRouterConfirmCB
        FUNCTION ZDO_StartRouterConfirmCB,021203H
        ARGFRAME XSTACK, 0, STACK
        LOCFRAME XSTACK, 9, STACK
        PUBLIC ZDO_SyncIndicationCB
        FUNCTION ZDO_SyncIndicationCB,021203H
        ARGFRAME XSTACK, 0, STACK
        LOCFRAME XSTACK, 9, STACK
        PUBLIC ZDO_UpdateDeviceIndication
        FUNCTION ZDO_UpdateDeviceIndication,0203H
        ARGFRAME XSTACK, 0, STACK
        PUBLIC ZDO_UseExtendedPANID
        PUBWEAK _A_IEN0
        PUBWEAK __Constant_1
        PUBWEAK __Constant_3e8
        PUBLIC _tmpRejoinState
        PUBLIC continueJoining
        PUBLIC devStartMode
        PUBLIC devState
        PUBLIC nwkFrameCounterChanges
        PUBLIC nwkStatus
        PUBLIC retryCnt
        PUBLIC zdappMgmtNwkDiscReqInProgress
        PUBLIC zdappMgmtNwkDiscRspAddr
        PUBLIC zdappMgmtNwkDiscRspTransSeq
        PUBLIC zdappMgmtNwkDiscStartIndex
        PUBLIC zdappMgmtSavedNwkState
        PUBLIC zdoCBFunc
        PUBLIC zdoDiscCounter
        
        CFI Names cfiNames0
        CFI StackFrame CFA_SP SP IDATA
        CFI StackFrame CFA_PSP16 PSP16 XDATA
        CFI StackFrame CFA_XSP16 XSP16 XDATA
        CFI StaticOverlayFrame CFA_IOVERLAY IOVERLAY
        CFI StaticOverlayFrame CFA_DOVERLAY DOVERLAY
        CFI Resource `PSW.CY`:1, `B.BR0`:1, `B.BR1`:1, `B.BR2`:1, `B.BR3`:1
        CFI Resource `B.BR4`:1, `B.BR5`:1, `B.BR6`:1, `B.BR7`:1, `VB.BR8`:1
        CFI Resource `VB.BR9`:1, `VB.BR10`:1, `VB.BR11`:1, `VB.BR12`:1
        CFI Resource `VB.BR13`:1, `VB.BR14`:1, `VB.BR15`:1, VB:8, B:8, A:8
        CFI Resource PSW:8, DPL0:8, DPH0:8, R0:8, R1:8, R2:8, R3:8, R4:8, R5:8
        CFI Resource R6:8, R7:8, V0:8, V1:8, V2:8, V3:8, V4:8, V5:8, V6:8, V7:8
        CFI Resource V8:8, V9:8, V10:8, V11:8, V12:8, V13:8, V14:8, V15:8, SP:8
        CFI Resource PSPH:8, PSPL:8, PSP16:16, XSPH:8, XSPL:8, XSP16:16
        CFI VirtualResource ?RET:24
        CFI Resource ?BRET_EXT:8
        CFI VirtualResource ?RET_HIGH:8, ?RET_LOW:8
        CFI ResourceParts PSP16 PSPH, PSPL
        CFI ResourceParts XSP16 XSPH, XSPL
        CFI ResourceParts ?RET ?BRET_EXT, ?RET_HIGH, ?RET_LOW
        CFI EndNames cfiNames0
        
        CFI Common cfiCommon0 Using cfiNames0
        CFI CodeAlign 1
        CFI DataAlign -1
        CFI ReturnAddress ?RET CODE
        CFI CFA_DOVERLAY Used
        CFI CFA_IOVERLAY Used
        CFI CFA_SP SP+-3
        CFI CFA_PSP16 PSP16+0
        CFI CFA_XSP16 XSP16+0
        CFI `PSW.CY` SameValue
        CFI `B.BR0` SameValue
        CFI `B.BR1` SameValue
        CFI `B.BR2` SameValue
        CFI `B.BR3` SameValue
        CFI `B.BR4` SameValue
        CFI `B.BR5` SameValue
        CFI `B.BR6` SameValue
        CFI `B.BR7` SameValue
        CFI `VB.BR8` SameValue
        CFI `VB.BR9` SameValue
        CFI `VB.BR10` SameValue
        CFI `VB.BR11` SameValue
        CFI `VB.BR12` SameValue
        CFI `VB.BR13` SameValue
        CFI `VB.BR14` SameValue
        CFI `VB.BR15` SameValue
        CFI VB SameValue
        CFI B Undefined
        CFI A Undefined
        CFI PSW SameValue
        CFI DPL0 SameValue
        CFI DPH0 SameValue
        CFI R0 Undefined
        CFI R1 Undefined
        CFI R2 Undefined
        CFI R3 Undefined
        CFI R4 Undefined
        CFI R5 Undefined
        CFI R6 SameValue
        CFI R7 SameValue
        CFI V0 SameValue
        CFI V1 SameValue
        CFI V2 SameValue
        CFI V3 SameValue
        CFI V4 SameValue
        CFI V5 SameValue
        CFI V6 SameValue
        CFI V7 SameValue
        CFI V8 SameValue
        CFI V9 SameValue
        CFI V10 SameValue
        CFI V11 SameValue
        CFI V12 SameValue
        CFI V13 SameValue
        CFI V14 SameValue
        CFI V15 SameValue
        CFI PSPH Undefined
        CFI PSPL Undefined
        CFI XSPH Undefined
        CFI XSPL Undefined
        CFI ?RET Concat
        CFI ?BRET_EXT Frame(CFA_SP, 3)
        CFI ?RET_HIGH Frame(CFA_SP, 2)
        CFI ?RET_LOW Frame(CFA_SP, 1)
        CFI EndCommon cfiCommon0
        
        
        CFI Common cfiCommon1 Using cfiNames0
        CFI CodeAlign 1
        CFI DataAlign -1
        CFI ReturnAddress ?RET CODE
        CFI CFA_DOVERLAY Used
        CFI CFA_IOVERLAY Used
        CFI CFA_SP SP+-2
        CFI CFA_PSP16 PSP16+0
        CFI CFA_XSP16 XSP16+0
        CFI `PSW.CY` SameValue
        CFI `B.BR0` SameValue
        CFI `B.BR1` SameValue
        CFI `B.BR2` SameValue
        CFI `B.BR3` SameValue
        CFI `B.BR4` SameValue
        CFI `B.BR5` SameValue
        CFI `B.BR6` SameValue
        CFI `B.BR7` SameValue
        CFI `VB.BR8` SameValue
        CFI `VB.BR9` SameValue
        CFI `VB.BR10` SameValue
        CFI `VB.BR11` SameValue
        CFI `VB.BR12` SameValue
        CFI `VB.BR13` SameValue
        CFI `VB.BR14` SameValue
        CFI `VB.BR15` SameValue
        CFI VB SameValue
        CFI B SameValue
        CFI A SameValue
        CFI PSW SameValue
        CFI DPL0 SameValue
        CFI DPH0 SameValue
        CFI R0 SameValue
        CFI R1 SameValue
        CFI R2 SameValue
        CFI R3 SameValue
        CFI R4 SameValue
        CFI R5 SameValue
        CFI R6 SameValue
        CFI R7 SameValue
        CFI V0 SameValue
        CFI V1 SameValue
        CFI V2 SameValue
        CFI V3 SameValue
        CFI V4 SameValue
        CFI V5 SameValue
        CFI V6 SameValue
        CFI V7 SameValue
        CFI V8 SameValue
        CFI V9 SameValue
        CFI V10 SameValue
        CFI V11 SameValue
        CFI V12 SameValue
        CFI V13 SameValue
        CFI V14 SameValue
        CFI V15 SameValue
        CFI PSPH Undefined
        CFI PSPL Undefined
        CFI XSPH Undefined
        CFI XSPL Undefined
        CFI ?RET Concat
        CFI ?BRET_EXT SameValue
        CFI ?RET_HIGH Frame(CFA_SP, 2)
        CFI ?RET_LOW Frame(CFA_SP, 1)
        CFI EndCommon cfiCommon1
        
NLME_GetExtAddr     SYMBOL "NLME_GetExtAddr"
ZDO_Init            SYMBOL "ZDO_Init"
afRegister          SYMBOL "afRegister"
HalLedBlink         SYMBOL "HalLedBlink"
ZDSecMgrInit        SYMBOL "ZDSecMgrInit"
ZDO_StartDevice     SYMBOL "ZDO_StartDevice"
osal_msg_deallocate SYMBOL "osal_msg_deallocate"
osal_msg_receive    SYMBOL "osal_msg_receive"
osal_pwrmgr_device  SYMBOL "osal_pwrmgr_device"
osal_set_event      SYMBOL "osal_set_event"
ZDO_UpdateNwkStatus SYMBOL "ZDO_UpdateNwkStatus"
osal_start_timerEx  SYMBOL "osal_start_timerEx"
ZDSecMgrNewDeviceEvent SYMBOL "ZDSecMgrNewDeviceEvent"
zgInitItems         SYMBOL "zgInitItems"
ZDConfig_InitDescriptors SYMBOL "ZDConfig_InitDescriptors"
zgWriteStartupOptions SYMBOL "zgWriteStartupOptions"
osal_rand           SYMBOL "osal_rand"
NLME_SetBroadcastFilter SYMBOL "NLME_SetBroadcastFilter"
zgReadStartupOptions SYMBOL "zgReadStartupOptions"
nwk_ExtPANIDValid   SYMBOL "nwk_ExtPANIDValid"
NLME_GetEnergyThreshold SYMBOL "NLME_GetEnergyThreshold"
NLME_SetEnergyThreshold SYMBOL "NLME_SetEnergyThreshold"
NLME_StartRouterRequest SYMBOL "NLME_StartRouterRequest"
NLME_SetPollRate    SYMBOL "NLME_SetPollRate"
NLME_InitNV         SYMBOL "NLME_InitNV"
NLME_RestoreFromNV  SYMBOL "NLME_RestoreFromNV"
NLME_GetShortAddr   SYMBOL "NLME_GetShortAddr"
sAddrExtCpy         SYMBOL "sAddrExtCpy"
osal_memset         SYMBOL "osal_memset"
osal_nv_item_init   SYMBOL "osal_nv_item_init"
osal_nv_read        SYMBOL "osal_nv_read"
HalKeyRead          SYMBOL "HalKeyRead"
ZDP_IncomingData    SYMBOL "ZDP_IncomingData"
NLME_JoinRequest    SYMBOL "NLME_JoinRequest"
ZMacSetReq          SYMBOL "ZMacSetReq"
NLME_ReJoinRequest  SYMBOL "NLME_ReJoinRequest"
NLME_SetQueuedPollRate SYMBOL "NLME_SetQueuedPollRate"
NLME_SetResponseRate SYMBOL "NLME_SetResponseRate"
ZDO_ParseAddrRsp    SYMBOL "ZDO_ParseAddrRsp"
ZDO_UpdateAddrManager SYMBOL "ZDO_UpdateAddrManager"
osal_mem_free       SYMBOL "osal_mem_free"
ZDO_ParseBindUnbindReq SYMBOL "ZDO_ParseBindUnbindReq"
ZDO_ProcessBindUnbindReq SYMBOL "ZDO_ProcessBindUnbindReq"
ZDMatchSendState    SYMBOL "ZDMatchSendState"
ZDO_ParseEndDeviceBindReq SYMBOL "ZDO_ParseEndDeviceBindReq"
ZDO_MatchEndDeviceBind SYMBOL "ZDO_MatchEndDeviceBind"
ZDO_RegisterForZDOMsg SYMBOL "ZDO_RegisterForZDOMsg"
ZDSecMgrTransportKeyInd SYMBOL "ZDSecMgrTransportKeyInd"
ZDSecMgrUpdateDeviceInd SYMBOL "ZDSecMgrUpdateDeviceInd"
ZDSecMgrSwitchKeyInd SYMBOL "ZDSecMgrSwitchKeyInd"
nwkNeighborInitTable SYMBOL "nwkNeighborInitTable"
NLME_NwkDiscTerm    SYMBOL "NLME_NwkDiscTerm"
SSP_ReadNwkActiveKey SYMBOL "SSP_ReadNwkActiveKey"
osal_nv_write       SYMBOL "osal_nv_write"
osal_stop_timerEx   SYMBOL "osal_stop_timerEx"
NLME_RemoveChild    SYMBOL "NLME_RemoveChild"
osal_msg_allocate   SYMBOL "osal_msg_allocate"
osal_memcpy         SYMBOL "osal_memcpy"
osal_msg_send       SYMBOL "osal_msg_send"
sAddrExtCmp         SYMBOL "sAddrExtCmp"
HalLedSet           SYMBOL "HalLedSet"
NLME_LeaveRsp       SYMBOL "NLME_LeaveRsp"
NLME_GetCoordShortAddr SYMBOL "NLME_GetCoordShortAddr"
RTG_MTORouteReq     SYMBOL "RTG_MTORouteReq"
ZDP_GenericRsp      SYMBOL "ZDP_GenericRsp"
afSetMatch          SYMBOL "afSetMatch"
osal_get_timeoutEx  SYMBOL "osal_get_timeoutEx"
nwk_getNetworkDesc  SYMBOL "nwk_getNetworkDesc"
ZDP_DeviceAnnce     SYMBOL "ZDP_DeviceAnnce"
??HalKeyRead?relay  SYMBOL "?relay", HalKeyRead
??HalLedBlink?relay SYMBOL "?relay", HalLedBlink
??HalLedSet?relay   SYMBOL "?relay", HalLedSet
??NLME_GetCoordShortAddr?relay SYMBOL "?relay", NLME_GetCoordShortAddr
??NLME_GetEnergyThreshold?relay SYMBOL "?relay", NLME_GetEnergyThreshold
??NLME_GetExtAddr?relay SYMBOL "?relay", NLME_GetExtAddr
??NLME_GetShortAddr?relay SYMBOL "?relay", NLME_GetShortAddr
??NLME_InitNV?relay SYMBOL "?relay", NLME_InitNV
??NLME_JoinRequest?relay SYMBOL "?relay", NLME_JoinRequest
??NLME_LeaveRsp?relay SYMBOL "?relay", NLME_LeaveRsp
??NLME_NwkDiscTerm?relay SYMBOL "?relay", NLME_NwkDiscTerm
??NLME_ReJoinRequest?relay SYMBOL "?relay", NLME_ReJoinRequest
??NLME_RemoveChild?relay SYMBOL "?relay", NLME_RemoveChild
??NLME_RestoreFromNV?relay SYMBOL "?relay", NLME_RestoreFromNV
??NLME_SetBroadcastFilter?relay SYMBOL "?relay", NLME_SetBroadcastFilter
??NLME_SetEnergyThreshold?relay SYMBOL "?relay", NLME_SetEnergyThreshold
??NLME_SetPollRate?relay SYMBOL "?relay", NLME_SetPollRate
??NLME_SetQueuedPollRate?relay SYMBOL "?relay", NLME_SetQueuedPollRate
??NLME_SetResponseRate?relay SYMBOL "?relay", NLME_SetResponseRate
??NLME_StartRouterRequest?relay SYMBOL "?relay", NLME_StartRouterRequest
??RTG_MTORouteReq?relay SYMBOL "?relay", RTG_MTORouteReq
??SSP_ReadNwkActiveKey?relay SYMBOL "?relay", SSP_ReadNwkActiveKey
??ZDConfig_InitDescriptors?relay SYMBOL "?relay", ZDConfig_InitDescriptors
??ZDMatchSendState?relay SYMBOL "?relay", ZDMatchSendState
??ZDO_Init?relay    SYMBOL "?relay", ZDO_Init
??ZDO_MatchEndDeviceBind?relay SYMBOL "?relay", ZDO_MatchEndDeviceBind
??ZDO_ParseAddrRsp?relay SYMBOL "?relay", ZDO_ParseAddrRsp
??ZDO_ParseBindUnbindReq?relay SYMBOL "?relay", ZDO_ParseBindUnbindReq
??ZDO_ParseEndDeviceBindReq?relay SYMBOL "?relay", ZDO_ParseEndDeviceBindReq
??ZDO_ProcessBindUnbindReq?relay SYMBOL "?relay", ZDO_ProcessBindUnbindReq
??ZDO_RegisterForZDOMsg?relay SYMBOL "?relay", ZDO_RegisterForZDOMsg
??ZDO_StartDevice?relay SYMBOL "?relay", ZDO_StartDevice
??ZDO_UpdateAddrManager?relay SYMBOL "?relay", ZDO_UpdateAddrManager
??ZDO_UpdateNwkStatus?relay SYMBOL "?relay", ZDO_UpdateNwkStatus
??ZDP_DeviceAnnce?relay SYMBOL "?relay", ZDP_DeviceAnnce
??ZDP_GenericRsp?relay SYMBOL "?relay", ZDP_GenericRsp
??ZDP_IncomingData?relay SYMBOL "?relay", ZDP_IncomingData
??ZDSecMgrInit?relay SYMBOL "?relay", ZDSecMgrInit
??ZDSecMgrNewDeviceEvent?relay SYMBOL "?relay", ZDSecMgrNewDeviceEvent
??ZDSecMgrSwitchKeyInd?relay SYMBOL "?relay", ZDSecMgrSwitchKeyInd
??ZDSecMgrTransportKeyInd?relay SYMBOL "?relay", ZDSecMgrTransportKeyInd
??ZDSecMgrUpdateDeviceInd?relay SYMBOL "?relay", ZDSecMgrUpdateDeviceInd
??ZMacSetReq?relay  SYMBOL "?relay", ZMacSetReq
??afRegister?relay  SYMBOL "?relay", afRegister
??afSetMatch?relay  SYMBOL "?relay", afSetMatch
??nwkNeighborInitTable?relay SYMBOL "?relay", nwkNeighborInitTable
??nwk_ExtPANIDValid?relay SYMBOL "?relay", nwk_ExtPANIDValid
??nwk_getNetworkDesc?relay SYMBOL "?relay", nwk_getNetworkDesc
??osal_get_timeoutEx?relay SYMBOL "?relay", osal_get_timeoutEx
??osal_mem_free?relay SYMBOL "?relay", osal_mem_free
??osal_memcpy?relay SYMBOL "?relay", osal_memcpy
??osal_memset?relay SYMBOL "?relay", osal_memset
??osal_msg_allocate?relay SYMBOL "?relay", osal_msg_allocate
??osal_msg_deallocate?relay SYMBOL "?relay", osal_msg_deallocate
??osal_msg_receive?relay SYMBOL "?relay", osal_msg_receive
??osal_msg_send?relay SYMBOL "?relay", osal_msg_send
??osal_nv_item_init?relay SYMBOL "?relay", osal_nv_item_init
??osal_nv_read?relay SYMBOL "?relay", osal_nv_read
??osal_nv_write?relay SYMBOL "?relay", osal_nv_write
??osal_pwrmgr_device?relay SYMBOL "?relay", osal_pwrmgr_device
??osal_rand?relay   SYMBOL "?relay", osal_rand
??osal_set_event?relay SYMBOL "?relay", osal_set_event
??osal_start_timerEx?relay SYMBOL "?relay", osal_start_timerEx
??osal_stop_timerEx?relay SYMBOL "?relay", osal_stop_timerEx
??sAddrExtCmp?relay SYMBOL "?relay", sAddrExtCmp
??sAddrExtCpy?relay SYMBOL "?relay", sAddrExtCpy
??zgInitItems?relay SYMBOL "?relay", zgInitItems
??zgReadStartupOptions?relay SYMBOL "?relay", zgReadStartupOptions
??zgWriteStartupOptions?relay SYMBOL "?relay", zgWriteStartupOptions
AddrMgrWriteNVRequest SYMBOL "AddrMgrWriteNVRequest"
??AddrMgrWriteNVRequest?relay SYMBOL "?relay", AddrMgrWriteNVRequest
ZDAppCheckForHoldKey SYMBOL "ZDAppCheckForHoldKey"
??ZDAppCheckForHoldKey?relay SYMBOL "?relay", ZDAppCheckForHoldKey
ZDAppDetermineDeviceType SYMBOL "ZDAppDetermineDeviceType"
??ZDAppDetermineDeviceType?relay SYMBOL "?relay", ZDAppDetermineDeviceType
ZDApp_AnnounceNewAddress SYMBOL "ZDApp_AnnounceNewAddress"
??ZDApp_AnnounceNewAddress?relay SYMBOL "?relay", ZDApp_AnnounceNewAddress
ZDApp_ChangeMatchDescRespPermission SYMBOL "ZDApp_ChangeMatchDescRespPermission"
??ZDApp_ChangeMatchDescRespPermission?relay SYMBOL "?relay", ZDApp_ChangeMatchDescRespPermission
ZDApp_CoordStartPANIDConflictCB SYMBOL "ZDApp_CoordStartPANIDConflictCB"
??ZDApp_CoordStartPANIDConflictCB?relay SYMBOL "?relay", ZDApp_CoordStartPANIDConflictCB
ZDApp_DeviceAuthEvt SYMBOL "ZDApp_DeviceAuthEvt"
??ZDApp_DeviceAuthEvt?relay SYMBOL "?relay", ZDApp_DeviceAuthEvt
ZDApp_InMsgCB       SYMBOL "ZDApp_InMsgCB"
??ZDApp_InMsgCB?relay SYMBOL "?relay", ZDApp_InMsgCB
ZDApp_Init          SYMBOL "ZDApp_Init"
??ZDApp_Init?relay  SYMBOL "?relay", ZDApp_Init
ZDApp_InitUserDesc  SYMBOL "ZDApp_InitUserDesc"
??ZDApp_InitUserDesc?relay SYMBOL "?relay", ZDApp_InitUserDesc
ZDApp_LeaveCtrlBypass SYMBOL "ZDApp_LeaveCtrlBypass"
??ZDApp_LeaveCtrlBypass?relay SYMBOL "?relay", ZDApp_LeaveCtrlBypass
ZDApp_LeaveCtrlInit SYMBOL "ZDApp_LeaveCtrlInit"
??ZDApp_LeaveCtrlInit?relay SYMBOL "?relay", ZDApp_LeaveCtrlInit
ZDApp_LeaveCtrlSet  SYMBOL "ZDApp_LeaveCtrlSet"
??ZDApp_LeaveCtrlSet?relay SYMBOL "?relay", ZDApp_LeaveCtrlSet
ZDApp_LeaveCtrlStartup SYMBOL "ZDApp_LeaveCtrlStartup"
??ZDApp_LeaveCtrlStartup?relay SYMBOL "?relay", ZDApp_LeaveCtrlStartup
ZDApp_LeaveReset    SYMBOL "ZDApp_LeaveReset"
??ZDApp_LeaveReset?relay SYMBOL "?relay", ZDApp_LeaveReset
ZDApp_LeaveUpdate   SYMBOL "ZDApp_LeaveUpdate"
??ZDApp_LeaveUpdate?relay SYMBOL "?relay", ZDApp_LeaveUpdate
ZDApp_NVUpdate      SYMBOL "ZDApp_NVUpdate"
??ZDApp_NVUpdate?relay SYMBOL "?relay", ZDApp_NVUpdate
ZDApp_NetworkInit   SYMBOL "ZDApp_NetworkInit"
??ZDApp_NetworkInit?relay SYMBOL "?relay", ZDApp_NetworkInit
ZDApp_NetworkStartEvt SYMBOL "ZDApp_NetworkStartEvt"
??ZDApp_NetworkStartEvt?relay SYMBOL "?relay", ZDApp_NetworkStartEvt
ZDApp_NodeProfileSync SYMBOL "ZDApp_NodeProfileSync"
??ZDApp_NodeProfileSync?relay SYMBOL "?relay", ZDApp_NodeProfileSync
ZDApp_NwkStateUpdateCB SYMBOL "ZDApp_NwkStateUpdateCB"
??ZDApp_NwkStateUpdateCB?relay SYMBOL "?relay", ZDApp_NwkStateUpdateCB
ZDApp_ProcessMsgCBs SYMBOL "ZDApp_ProcessMsgCBs"
??ZDApp_ProcessMsgCBs?relay SYMBOL "?relay", ZDApp_ProcessMsgCBs
ZDApp_ProcessNetworkJoin SYMBOL "ZDApp_ProcessNetworkJoin"
??ZDApp_ProcessNetworkJoin?relay SYMBOL "?relay", ZDApp_ProcessNetworkJoin
ZDApp_ProcessOSALMsg SYMBOL "ZDApp_ProcessOSALMsg"
??ZDApp_ProcessOSALMsg?relay SYMBOL "?relay", ZDApp_ProcessOSALMsg
ZDApp_ProcessSecEvent SYMBOL "ZDApp_ProcessSecEvent"
??ZDApp_ProcessSecEvent?relay SYMBOL "?relay", ZDApp_ProcessSecEvent
ZDApp_ProcessSecMsg SYMBOL "ZDApp_ProcessSecMsg"
??ZDApp_ProcessSecMsg?relay SYMBOL "?relay", ZDApp_ProcessSecMsg
ZDApp_ReadNetworkRestoreState SYMBOL "ZDApp_ReadNetworkRestoreState"
??ZDApp_ReadNetworkRestoreState?relay SYMBOL "?relay", ZDApp_ReadNetworkRestoreState
ZDApp_RegisterCBs   SYMBOL "ZDApp_RegisterCBs"
??ZDApp_RegisterCBs?relay SYMBOL "?relay", ZDApp_RegisterCBs
ZDApp_ResetNwkKey   SYMBOL "ZDApp_ResetNwkKey"
??ZDApp_ResetNwkKey?relay SYMBOL "?relay", ZDApp_ResetNwkKey
ZDApp_ResetTimerCancel SYMBOL "ZDApp_ResetTimerCancel"
??ZDApp_ResetTimerCancel?relay SYMBOL "?relay", ZDApp_ResetTimerCancel
ZDApp_ResetTimerStart SYMBOL "ZDApp_ResetTimerStart"
??ZDApp_ResetTimerStart?relay SYMBOL "?relay", ZDApp_ResetTimerStart
ZDApp_RestoreNetworkState SYMBOL "ZDApp_RestoreNetworkState"
??ZDApp_RestoreNetworkState?relay SYMBOL "?relay", ZDApp_RestoreNetworkState
ZDApp_RestoreNwkKey SYMBOL "ZDApp_RestoreNwkKey"
??ZDApp_RestoreNwkKey?relay SYMBOL "?relay", ZDApp_RestoreNwkKey
ZDApp_SaveNetworkStateEvt SYMBOL "ZDApp_SaveNetworkStateEvt"
??ZDApp_SaveNetworkStateEvt?relay SYMBOL "?relay", ZDApp_SaveNetworkStateEvt
ZDApp_SaveNwkKey    SYMBOL "ZDApp_SaveNwkKey"
??ZDApp_SaveNwkKey?relay SYMBOL "?relay", ZDApp_SaveNwkKey
ZDApp_SecInit       SYMBOL "ZDApp_SecInit"
??ZDApp_SecInit?relay SYMBOL "?relay", ZDApp_SecInit
ZDApp_SendEventMsg  SYMBOL "ZDApp_SendEventMsg"
??ZDApp_SendEventMsg?relay SYMBOL "?relay", ZDApp_SendEventMsg
ZDApp_SendMsg       SYMBOL "ZDApp_SendMsg"
??ZDApp_SendMsg?relay SYMBOL "?relay", ZDApp_SendMsg
ZDApp_StartJoiningCycle SYMBOL "ZDApp_StartJoiningCycle"
??ZDApp_StartJoiningCycle?relay SYMBOL "?relay", ZDApp_StartJoiningCycle
ZDApp_StopJoiningCycle SYMBOL "ZDApp_StopJoiningCycle"
??ZDApp_StopJoiningCycle?relay SYMBOL "?relay", ZDApp_StopJoiningCycle
ZDApp_event_loop    SYMBOL "ZDApp_event_loop"
??ZDApp_event_loop?relay SYMBOL "?relay", ZDApp_event_loop
ZDOInitDevice       SYMBOL "ZDOInitDevice"
??ZDOInitDevice?relay SYMBOL "?relay", ZDOInitDevice
ZDO_AddrChangeIndicationCB SYMBOL "ZDO_AddrChangeIndicationCB"
??ZDO_AddrChangeIndicationCB?relay SYMBOL "?relay", ZDO_AddrChangeIndicationCB
ZDO_ConcentratorIndicationCB SYMBOL "ZDO_ConcentratorIndicationCB"
??ZDO_ConcentratorIndicationCB?relay SYMBOL "?relay", ZDO_ConcentratorIndicationCB
ZDO_JoinConfirmCB   SYMBOL "ZDO_JoinConfirmCB"
??ZDO_JoinConfirmCB?relay SYMBOL "?relay", ZDO_JoinConfirmCB
ZDO_JoinIndicationCB SYMBOL "ZDO_JoinIndicationCB"
??ZDO_JoinIndicationCB?relay SYMBOL "?relay", ZDO_JoinIndicationCB
ZDO_LeaveCnf        SYMBOL "ZDO_LeaveCnf"
??ZDO_LeaveCnf?relay SYMBOL "?relay", ZDO_LeaveCnf
ZDO_LeaveInd        SYMBOL "ZDO_LeaveInd"
??ZDO_LeaveInd?relay SYMBOL "?relay", ZDO_LeaveInd
ZDO_ManytoOneFailureIndicationCB SYMBOL "ZDO_ManytoOneFailureIndicationCB"
??ZDO_ManytoOneFailureIndicationCB?relay SYMBOL "?relay", ZDO_ManytoOneFailureIndicationCB
ZDO_NetworkDiscoveryConfirmCB SYMBOL "ZDO_NetworkDiscoveryConfirmCB"
??ZDO_NetworkDiscoveryConfirmCB?relay SYMBOL "?relay", ZDO_NetworkDiscoveryConfirmCB
ZDO_NetworkFormationConfirmCB SYMBOL "ZDO_NetworkFormationConfirmCB"
??ZDO_NetworkFormationConfirmCB?relay SYMBOL "?relay", ZDO_NetworkFormationConfirmCB
ZDO_PollConfirmCB   SYMBOL "ZDO_PollConfirmCB"
??ZDO_PollConfirmCB?relay SYMBOL "?relay", ZDO_PollConfirmCB
ZDO_RegisterForZdoCB SYMBOL "ZDO_RegisterForZdoCB"
??ZDO_RegisterForZdoCB?relay SYMBOL "?relay", ZDO_RegisterForZdoCB
ZDO_SrcRtgIndCB     SYMBOL "ZDO_SrcRtgIndCB"
??ZDO_SrcRtgIndCB?relay SYMBOL "?relay", ZDO_SrcRtgIndCB
ZDO_StartRouterConfirmCB SYMBOL "ZDO_StartRouterConfirmCB"
??ZDO_StartRouterConfirmCB?relay SYMBOL "?relay", ZDO_StartRouterConfirmCB
ZDO_SyncIndicationCB SYMBOL "ZDO_SyncIndicationCB"
??ZDO_SyncIndicationCB?relay SYMBOL "?relay", ZDO_SyncIndicationCB
ZDO_UpdateDeviceIndication SYMBOL "ZDO_UpdateDeviceIndication"
??ZDO_UpdateDeviceIndication?relay SYMBOL "?relay", ZDO_UpdateDeviceIndication

        EXTERN NLME_GetExtAddr
        FUNCTION NLME_GetExtAddr,0202H
        ARGFRAME ISTACK, 0, STACK
        ARGFRAME PSTACK, 0, STACK
        ARGFRAME XSTACK, 10, STACK
        ARGFRAME IOVERLAY, 0, STATIC
        ARGFRAME DOVERLAY, 0, STATIC
        EXTERN ZDO_Init
        FUNCTION ZDO_Init,0202H
        ARGFRAME ISTACK, 0, STACK
        ARGFRAME PSTACK, 0, STACK
        ARGFRAME XSTACK, 9, STACK
        ARGFRAME IOVERLAY, 0, STATIC
        ARGFRAME DOVERLAY, 0, STATIC
        EXTERN afRegister
        FUNCTION afRegister,0202H
        ARGFRAME ISTACK, 0, STACK
        ARGFRAME PSTACK, 0, STACK
        ARGFRAME XSTACK, 9, STACK
        ARGFRAME IOVERLAY, 0, STATIC
        ARGFRAME DOVERLAY, 0, STATIC
        EXTERN HalLedBlink
        FUNCTION HalLedBlink,0202H
        ARGFRAME ISTACK, 0, STACK
        ARGFRAME PSTACK, 0, STACK
        ARGFRAME XSTACK, 9, STACK
        ARGFRAME IOVERLAY, 0, STATIC
        ARGFRAME DOVERLAY, 0, STATIC
        EXTERN ZDSecMgrInit
        FUNCTION ZDSecMgrInit,0202H
        ARGFRAME ISTACK, 0, STACK
        ARGFRAME PSTACK, 0, STACK
        ARGFRAME XSTACK, 12, STACK
        ARGFRAME IOVERLAY, 0, STATIC
        ARGFRAME DOVERLAY, 0, STATIC
        EXTERN ZDO_StartDevice
        FUNCTION ZDO_StartDevice,0202H
        ARGFRAME ISTACK, 0, STACK
        ARGFRAME PSTACK, 0, STACK
        ARGFRAME XSTACK, 10, STACK
        ARGFRAME IOVERLAY, 0, STATIC
        ARGFRAME DOVERLAY, 0, STATIC
        EXTERN osal_msg_deallocate
        FUNCTION osal_msg_deallocate,0202H
        ARGFRAME ISTACK, 0, STACK
        ARGFRAME PSTACK, 0, STACK
        ARGFRAME XSTACK, 10, STACK
        ARGFRAME IOVERLAY, 0, STATIC
        ARGFRAME DOVERLAY, 0, STATIC
        EXTERN osal_msg_receive
        FUNCTION osal_msg_receive,0202H
        ARGFRAME ISTACK, 0, STACK
        ARGFRAME PSTACK, 0, STACK
        ARGFRAME XSTACK, 10, STACK
        ARGFRAME IOVERLAY, 0, STATIC
        ARGFRAME DOVERLAY, 0, STATIC
        EXTERN osal_pwrmgr_device
        FUNCTION osal_pwrmgr_device,0202H
        ARGFRAME ISTACK, 2, STACK
        ARGFRAME PSTACK, 0, STACK
        ARGFRAME XSTACK, 10, STACK
        ARGFRAME IOVERLAY, 0, STATIC
        ARGFRAME DOVERLAY, 0, STATIC
        EXTERN osal_set_event
        FUNCTION osal_set_event,0202H
        ARGFRAME ISTACK, 2, STACK
        ARGFRAME PSTACK, 0, STACK
        ARGFRAME XSTACK, 12, STACK
        ARGFRAME IOVERLAY, 0, STATIC
        ARGFRAME DOVERLAY, 0, STATIC
        EXTERN ZDO_UpdateNwkStatus
        FUNCTION ZDO_UpdateNwkStatus,0202H
        ARGFRAME ISTACK, 0, STACK
        ARGFRAME PSTACK, 0, STACK
        ARGFRAME XSTACK, 10, STACK
        ARGFRAME IOVERLAY, 0, STATIC
        ARGFRAME DOVERLAY, 0, STATIC
        EXTERN osal_start_timerEx
        FUNCTION osal_start_timerEx,0202H
        ARGFRAME ISTACK, 2, STACK
        ARGFRAME PSTACK, 0, STACK
        ARGFRAME XSTACK, 10, STACK
        ARGFRAME IOVERLAY, 0, STATIC
        ARGFRAME DOVERLAY, 0, STATIC
        EXTERN ZDSecMgrNewDeviceEvent
        FUNCTION ZDSecMgrNewDeviceEvent,0202H
        ARGFRAME ISTACK, 0, STACK
        ARGFRAME PSTACK, 0, STACK
        ARGFRAME XSTACK, 9, STACK
        ARGFRAME IOVERLAY, 0, STATIC
        ARGFRAME DOVERLAY, 0, STATIC
        EXTERN zgInitItems
        FUNCTION zgInitItems,0202H
        ARGFRAME ISTACK, 0, STACK
        ARGFRAME PSTACK, 0, STACK
        ARGFRAME XSTACK, 12, STACK
        ARGFRAME IOVERLAY, 0, STATIC
        ARGFRAME DOVERLAY, 0, STATIC
        EXTERN ZDConfig_InitDescriptors
        FUNCTION ZDConfig_InitDescriptors,0202H
        ARGFRAME ISTACK, 0, STACK
        ARGFRAME PSTACK, 0, STACK
        ARGFRAME XSTACK, 12, STACK
        ARGFRAME IOVERLAY, 0, STATIC
        ARGFRAME DOVERLAY, 0, STATIC
        EXTERN zgWriteStartupOptions
        FUNCTION zgWriteStartupOptions,0202H
        ARGFRAME ISTACK, 0, STACK
        ARGFRAME PSTACK, 0, STACK
        ARGFRAME XSTACK, 12, STACK
        ARGFRAME IOVERLAY, 0, STATIC
        ARGFRAME DOVERLAY, 0, STATIC
        EXTERN osal_rand
        FUNCTION osal_rand,0202H
        ARGFRAME ISTACK, 0, STACK
        ARGFRAME PSTACK, 0, STACK
        ARGFRAME XSTACK, 16, STACK
        ARGFRAME IOVERLAY, 0, STATIC
        ARGFRAME DOVERLAY, 0, STATIC
        EXTERN NLME_SetBroadcastFilter
        FUNCTION NLME_SetBroadcastFilter,0202H
        ARGFRAME ISTACK, 0, STACK
        ARGFRAME PSTACK, 0, STACK
        ARGFRAME XSTACK, 12, STACK
        ARGFRAME IOVERLAY, 0, STATIC
        ARGFRAME DOVERLAY, 0, STATIC
        EXTERN zgReadStartupOptions
        FUNCTION zgReadStartupOptions,0202H
        ARGFRAME ISTACK, 0, STACK
        ARGFRAME PSTACK, 0, STACK
        ARGFRAME XSTACK, 9, STACK
        ARGFRAME IOVERLAY, 0, STATIC
        ARGFRAME DOVERLAY, 0, STATIC
        EXTERN nwk_ExtPANIDValid
        FUNCTION nwk_ExtPANIDValid,0202H
        ARGFRAME ISTACK, 2, STACK
        ARGFRAME PSTACK, 0, STACK
        ARGFRAME XSTACK, 32, STACK
        ARGFRAME IOVERLAY, 0, STATIC
        ARGFRAME DOVERLAY, 0, STATIC
        EXTERN NLME_GetEnergyThreshold
        FUNCTION NLME_GetEnergyThreshold,0202H
        ARGFRAME ISTACK, 2, STACK
        ARGFRAME PSTACK, 0, STACK
        ARGFRAME XSTACK, 0, STACK
        ARGFRAME IOVERLAY, 0, STATIC
        ARGFRAME DOVERLAY, 0, STATIC
        EXTERN NLME_SetEnergyThreshold
        FUNCTION NLME_SetEnergyThreshold,0202H
        ARGFRAME ISTACK, 2, STACK
        ARGFRAME PSTACK, 0, STACK
        ARGFRAME XSTACK, 0, STACK
        ARGFRAME IOVERLAY, 0, STATIC
        ARGFRAME DOVERLAY, 0, STATIC
        EXTERN NLME_StartRouterRequest
        FUNCTION NLME_StartRouterRequest,0202H
        ARGFRAME ISTACK, 2, STACK
        ARGFRAME PSTACK, 0, STACK
        ARGFRAME XSTACK, 12, STACK
        ARGFRAME IOVERLAY, 0, STATIC
        ARGFRAME DOVERLAY, 0, STATIC
        EXTERN NLME_SetPollRate
        FUNCTION NLME_SetPollRate,0202H
        ARGFRAME ISTACK, 2, STACK
        ARGFRAME PSTACK, 0, STACK
        ARGFRAME XSTACK, 16, STACK
        ARGFRAME IOVERLAY, 0, STATIC
        ARGFRAME DOVERLAY, 0, STATIC
        EXTERN NLME_InitNV
        FUNCTION NLME_InitNV,0202H
        ARGFRAME ISTACK, 0, STACK
        ARGFRAME PSTACK, 0, STACK
        ARGFRAME XSTACK, 9, STACK
        ARGFRAME IOVERLAY, 0, STATIC
        ARGFRAME DOVERLAY, 0, STATIC
        EXTERN NLME_RestoreFromNV
        FUNCTION NLME_RestoreFromNV,0202H
        ARGFRAME ISTACK, 0, STACK
        ARGFRAME PSTACK, 0, STACK
        ARGFRAME XSTACK, 9, STACK
        ARGFRAME IOVERLAY, 0, STATIC
        ARGFRAME DOVERLAY, 0, STATIC
        EXTERN NLME_GetShortAddr
        FUNCTION NLME_GetShortAddr,0202H
        ARGFRAME ISTACK, 0, STACK
        ARGFRAME PSTACK, 0, STACK
        ARGFRAME XSTACK, 12, STACK
        ARGFRAME IOVERLAY, 0, STATIC
        ARGFRAME DOVERLAY, 0, STATIC
        EXTERN sAddrExtCpy
        FUNCTION sAddrExtCpy,0202H
        ARGFRAME ISTACK, 0, STACK
        ARGFRAME PSTACK, 0, STACK
        ARGFRAME XSTACK, 32, STACK
        ARGFRAME IOVERLAY, 0, STATIC
        ARGFRAME DOVERLAY, 0, STATIC
        EXTERN osal_memset
        FUNCTION osal_memset,0202H
        ARGFRAME ISTACK, 0, STACK
        ARGFRAME PSTACK, 0, STACK
        ARGFRAME XSTACK, 31, STACK
        ARGFRAME IOVERLAY, 0, STATIC
        ARGFRAME DOVERLAY, 0, STATIC
        EXTERN osal_nv_item_init
        FUNCTION osal_nv_item_init,0202H
        ARGFRAME ISTACK, 0, STACK
        ARGFRAME PSTACK, 0, STACK
        ARGFRAME XSTACK, 29, STACK
        ARGFRAME IOVERLAY, 0, STATIC
        ARGFRAME DOVERLAY, 0, STATIC
        EXTERN osal_nv_read
        FUNCTION osal_nv_read,0202H
        ARGFRAME ISTACK, 0, STACK
        ARGFRAME PSTACK, 0, STACK
        ARGFRAME XSTACK, 37, STACK
        ARGFRAME IOVERLAY, 0, STATIC
        ARGFRAME DOVERLAY, 0, STATIC
        EXTERN HalKeyRead
        FUNCTION HalKeyRead,0202H
        ARGFRAME ISTACK, 2, STACK
        ARGFRAME PSTACK, 0, STACK
        ARGFRAME XSTACK, 0, STACK
        ARGFRAME IOVERLAY, 0, STATIC
        ARGFRAME DOVERLAY, 0, STATIC
        EXTERN ZDP_IncomingData
        FUNCTION ZDP_IncomingData,0202H
        ARGFRAME ISTACK, 0, STACK
        ARGFRAME PSTACK, 0, STACK
        ARGFRAME XSTACK, 16, STACK
        ARGFRAME IOVERLAY, 0, STATIC
        ARGFRAME DOVERLAY, 0, STATIC
        EXTERN NLME_JoinRequest
        FUNCTION NLME_JoinRequest,0202H
        ARGFRAME ISTACK, 0, STACK
        ARGFRAME PSTACK, 0, STACK
        ARGFRAME XSTACK, 17, STACK
        ARGFRAME IOVERLAY, 0, STATIC
        ARGFRAME DOVERLAY, 0, STATIC
        EXTERN ZMacSetReq
        FUNCTION ZMacSetReq,0202H
        ARGFRAME ISTACK, 0, STACK
        ARGFRAME PSTACK, 0, STACK
        ARGFRAME XSTACK, 16, STACK
        ARGFRAME IOVERLAY, 0, STATIC
        ARGFRAME DOVERLAY, 0, STATIC
        EXTERN NLME_ReJoinRequest
        FUNCTION NLME_ReJoinRequest,0202H
        ARGFRAME ISTACK, 0, STACK
        ARGFRAME PSTACK, 0, STACK
        ARGFRAME XSTACK, 16, STACK
        ARGFRAME IOVERLAY, 0, STATIC
        ARGFRAME DOVERLAY, 0, STATIC
        EXTERN NLME_SetQueuedPollRate
        FUNCTION NLME_SetQueuedPollRate,0202H
        ARGFRAME ISTACK, 0, STACK
        ARGFRAME PSTACK, 0, STACK
        ARGFRAME XSTACK, 16, STACK
        ARGFRAME IOVERLAY, 0, STATIC
        ARGFRAME DOVERLAY, 0, STATIC
        EXTERN NLME_SetResponseRate
        FUNCTION NLME_SetResponseRate,0202H
        ARGFRAME ISTACK, 0, STACK
        ARGFRAME PSTACK, 0, STACK
        ARGFRAME XSTACK, 16, STACK
        ARGFRAME IOVERLAY, 0, STATIC
        ARGFRAME DOVERLAY, 0, STATIC
        EXTERN ZDO_ParseAddrRsp
        FUNCTION ZDO_ParseAddrRsp,0202H
        ARGFRAME ISTACK, 0, STACK
        ARGFRAME PSTACK, 0, STACK
        ARGFRAME XSTACK, 54, STACK
        ARGFRAME IOVERLAY, 0, STATIC
        ARGFRAME DOVERLAY, 0, STATIC
        EXTERN ZDO_UpdateAddrManager
        FUNCTION ZDO_UpdateAddrManager,0202H
        ARGFRAME ISTACK, 0, STACK
        ARGFRAME PSTACK, 0, STACK
        ARGFRAME XSTACK, 54, STACK
        ARGFRAME IOVERLAY, 0, STATIC
        ARGFRAME DOVERLAY, 0, STATIC
        EXTERN osal_mem_free
        FUNCTION osal_mem_free,0202H
        ARGFRAME ISTACK, 0, STACK
        ARGFRAME PSTACK, 0, STACK
        ARGFRAME XSTACK, 54, STACK
        ARGFRAME IOVERLAY, 0, STATIC
        ARGFRAME DOVERLAY, 0, STATIC
        EXTERN ZDO_ParseBindUnbindReq
        FUNCTION ZDO_ParseBindUnbindReq,0202H
        ARGFRAME ISTACK, 0, STACK
        ARGFRAME PSTACK, 0, STACK
        ARGFRAME XSTACK, 54, STACK
        ARGFRAME IOVERLAY, 0, STATIC
        ARGFRAME DOVERLAY, 0, STATIC
        EXTERN ZDO_ProcessBindUnbindReq
        FUNCTION ZDO_ProcessBindUnbindReq,0202H
        ARGFRAME ISTACK, 0, STACK
        ARGFRAME PSTACK, 0, STACK
        ARGFRAME XSTACK, 54, STACK
        ARGFRAME IOVERLAY, 0, STATIC
        ARGFRAME DOVERLAY, 0, STATIC
        EXTERN ZDMatchSendState
        FUNCTION ZDMatchSendState,0202H
        ARGFRAME ISTACK, 0, STACK
        ARGFRAME PSTACK, 0, STACK
        ARGFRAME XSTACK, 54, STACK
        ARGFRAME IOVERLAY, 0, STATIC
        ARGFRAME DOVERLAY, 0, STATIC
        EXTERN ZDO_ParseEndDeviceBindReq
        FUNCTION ZDO_ParseEndDeviceBindReq,0202H
        ARGFRAME ISTACK, 0, STACK
        ARGFRAME PSTACK, 0, STACK
        ARGFRAME XSTACK, 54, STACK
        ARGFRAME IOVERLAY, 0, STATIC
        ARGFRAME DOVERLAY, 0, STATIC
        EXTERN ZDO_MatchEndDeviceBind
        FUNCTION ZDO_MatchEndDeviceBind,0202H
        ARGFRAME ISTACK, 0, STACK
        ARGFRAME PSTACK, 0, STACK
        ARGFRAME XSTACK, 54, STACK
        ARGFRAME IOVERLAY, 0, STATIC
        ARGFRAME DOVERLAY, 0, STATIC
        EXTERN ZDO_RegisterForZDOMsg
        FUNCTION ZDO_RegisterForZDOMsg,0202H
        ARGFRAME ISTACK, 2, STACK
        ARGFRAME PSTACK, 0, STACK
        ARGFRAME XSTACK, 0, STACK
        ARGFRAME IOVERLAY, 0, STATIC
        ARGFRAME DOVERLAY, 0, STATIC
        EXTERN ZDSecMgrTransportKeyInd
        FUNCTION ZDSecMgrTransportKeyInd,0202H
        ARGFRAME ISTACK, 2, STACK
        ARGFRAME PSTACK, 0, STACK
        ARGFRAME XSTACK, 0, STACK
        ARGFRAME IOVERLAY, 0, STATIC
        ARGFRAME DOVERLAY, 0, STATIC
        EXTERN ZDSecMgrUpdateDeviceInd
        FUNCTION ZDSecMgrUpdateDeviceInd,0202H
        ARGFRAME ISTACK, 2, STACK
        ARGFRAME PSTACK, 0, STACK
        ARGFRAME XSTACK, 0, STACK
        ARGFRAME IOVERLAY, 0, STATIC
        ARGFRAME DOVERLAY, 0, STATIC
        EXTERN ZDSecMgrSwitchKeyInd
        FUNCTION ZDSecMgrSwitchKeyInd,0202H
        ARGFRAME ISTACK, 2, STACK
        ARGFRAME PSTACK, 0, STACK
        ARGFRAME XSTACK, 0, STACK
        ARGFRAME IOVERLAY, 0, STATIC
        ARGFRAME DOVERLAY, 0, STATIC
        EXTERN nwkNeighborInitTable
        FUNCTION nwkNeighborInitTable,0202H
        ARGFRAME ISTACK, 0, STACK
        ARGFRAME PSTACK, 0, STACK
        ARGFRAME XSTACK, 12, STACK
        ARGFRAME IOVERLAY, 0, STATIC
        ARGFRAME DOVERLAY, 0, STATIC
        EXTERN NLME_NwkDiscTerm
        FUNCTION NLME_NwkDiscTerm,0202H
        ARGFRAME ISTACK, 0, STACK
        ARGFRAME PSTACK, 0, STACK
        ARGFRAME XSTACK, 12, STACK
        ARGFRAME IOVERLAY, 0, STATIC
        ARGFRAME DOVERLAY, 0, STATIC
        EXTERN SSP_ReadNwkActiveKey
        FUNCTION SSP_ReadNwkActiveKey,0202H
        ARGFRAME ISTACK, 0, STACK
        ARGFRAME PSTACK, 0, STACK
        ARGFRAME XSTACK, 33, STACK
        ARGFRAME IOVERLAY, 0, STATIC
        ARGFRAME DOVERLAY, 0, STATIC
        EXTERN osal_nv_write
        FUNCTION osal_nv_write,0202H
        ARGFRAME ISTACK, 0, STACK
        ARGFRAME PSTACK, 0, STACK
        ARGFRAME XSTACK, 37, STACK
        ARGFRAME IOVERLAY, 0, STATIC
        ARGFRAME DOVERLAY, 0, STATIC
        EXTERN osal_stop_timerEx
        FUNCTION osal_stop_timerEx,0202H
        ARGFRAME ISTACK, 2, STACK
        ARGFRAME PSTACK, 0, STACK
        ARGFRAME XSTACK, 0, STACK
        ARGFRAME IOVERLAY, 0, STATIC
        ARGFRAME DOVERLAY, 0, STATIC
        EXTERN NLME_RemoveChild
        FUNCTION NLME_RemoveChild,0202H
        ARGFRAME ISTACK, 0, STACK
        ARGFRAME PSTACK, 0, STACK
        ARGFRAME XSTACK, 9, STACK
        ARGFRAME IOVERLAY, 0, STATIC
        ARGFRAME DOVERLAY, 0, STATIC
        EXTERN osal_msg_allocate
        FUNCTION osal_msg_allocate,0202H
        ARGFRAME ISTACK, 0, STACK
        ARGFRAME PSTACK, 0, STACK
        ARGFRAME XSTACK, 19, STACK
        ARGFRAME IOVERLAY, 0, STATIC
        ARGFRAME DOVERLAY, 0, STATIC
        EXTERN osal_memcpy
        FUNCTION osal_memcpy,0202H
        ARGFRAME ISTACK, 0, STACK
        ARGFRAME PSTACK, 0, STACK
        ARGFRAME XSTACK, 22, STACK
        ARGFRAME IOVERLAY, 0, STATIC
        ARGFRAME DOVERLAY, 0, STATIC
        EXTERN osal_msg_send
        FUNCTION osal_msg_send,0202H
        ARGFRAME ISTACK, 0, STACK
        ARGFRAME PSTACK, 0, STACK
        ARGFRAME XSTACK, 19, STACK
        ARGFRAME IOVERLAY, 0, STATIC
        ARGFRAME DOVERLAY, 0, STATIC
        EXTERN sAddrExtCmp
        FUNCTION sAddrExtCmp,0202H
        ARGFRAME ISTACK, 0, STACK
        ARGFRAME PSTACK, 0, STACK
        ARGFRAME XSTACK, 32, STACK
        ARGFRAME IOVERLAY, 0, STATIC
        ARGFRAME DOVERLAY, 0, STATIC
        EXTERN HalLedSet
        FUNCTION HalLedSet,0202H
        ARGFRAME ISTACK, 0, STACK
        ARGFRAME PSTACK, 0, STACK
        ARGFRAME XSTACK, 9, STACK
        ARGFRAME IOVERLAY, 0, STATIC
        ARGFRAME DOVERLAY, 0, STATIC
        EXTERN NLME_LeaveRsp
        FUNCTION NLME_LeaveRsp,0202H
        ARGFRAME ISTACK, 0, STACK
        ARGFRAME PSTACK, 0, STACK
        ARGFRAME XSTACK, 16, STACK
        ARGFRAME IOVERLAY, 0, STATIC
        ARGFRAME DOVERLAY, 0, STATIC
        EXTERN NLME_GetCoordShortAddr
        FUNCTION NLME_GetCoordShortAddr,0202H
        ARGFRAME ISTACK, 0, STACK
        ARGFRAME PSTACK, 0, STACK
        ARGFRAME XSTACK, 16, STACK
        ARGFRAME IOVERLAY, 0, STATIC
        ARGFRAME DOVERLAY, 0, STATIC
        EXTERN RTG_MTORouteReq
        FUNCTION RTG_MTORouteReq,0202H
        ARGFRAME ISTACK, 2, STACK
        ARGFRAME PSTACK, 0, STACK
        ARGFRAME XSTACK, 0, STACK
        ARGFRAME IOVERLAY, 0, STATIC
        ARGFRAME DOVERLAY, 0, STATIC
        EXTERN ZDP_GenericRsp
        FUNCTION ZDP_GenericRsp,0202H
        ARGFRAME ISTACK, 0, STACK
        ARGFRAME PSTACK, 0, STACK
        ARGFRAME XSTACK, 14, STACK
        ARGFRAME IOVERLAY, 0, STATIC
        ARGFRAME DOVERLAY, 0, STATIC
        EXTERN afSetMatch
        FUNCTION afSetMatch,0202H
        ARGFRAME ISTACK, 0, STACK
        ARGFRAME PSTACK, 0, STACK
        ARGFRAME XSTACK, 9, STACK
        ARGFRAME IOVERLAY, 0, STATIC
        ARGFRAME DOVERLAY, 0, STATIC
        EXTERN osal_get_timeoutEx
        FUNCTION osal_get_timeoutEx,0202H
        ARGFRAME ISTACK, 2, STACK
        ARGFRAME PSTACK, 0, STACK
        ARGFRAME XSTACK, 0, STACK
        ARGFRAME IOVERLAY, 0, STATIC
        ARGFRAME DOVERLAY, 0, STATIC
        EXTERN nwk_getNetworkDesc
        FUNCTION nwk_getNetworkDesc,0202H
        ARGFRAME ISTACK, 0, STACK
        ARGFRAME PSTACK, 0, STACK
        ARGFRAME XSTACK, 10, STACK
        ARGFRAME IOVERLAY, 0, STATIC
        ARGFRAME DOVERLAY, 0, STATIC
        EXTERN ZDP_DeviceAnnce
        FUNCTION ZDP_DeviceAnnce,0202H
        ARGFRAME ISTACK, 0, STACK
        ARGFRAME PSTACK, 0, STACK
        ARGFRAME XSTACK, 11, STACK
        ARGFRAME IOVERLAY, 0, STATIC
        ARGFRAME DOVERLAY, 0, STATIC
        EXTERN ??HalKeyRead?relay
        FUNCTION ??HalKeyRead?relay,00H
        EXTERN ??HalLedBlink?relay
        FUNCTION ??HalLedBlink?relay,00H
        EXTERN ??HalLedSet?relay
        FUNCTION ??HalLedSet?relay,00H
        EXTERN ??NLME_GetCoordShortAddr?relay
        FUNCTION ??NLME_GetCoordShortAddr?relay,00H
        EXTERN ??NLME_GetEnergyThreshold?relay
        FUNCTION ??NLME_GetEnergyThreshold?relay,00H
        EXTERN ??NLME_GetExtAddr?relay
        FUNCTION ??NLME_GetExtAddr?relay,00H
        EXTERN ??NLME_GetShortAddr?relay
        FUNCTION ??NLME_GetShortAddr?relay,00H
        EXTERN ??NLME_InitNV?relay
        FUNCTION ??NLME_InitNV?relay,00H
        EXTERN ??NLME_JoinRequest?relay
        FUNCTION ??NLME_JoinRequest?relay,00H
        EXTERN ??NLME_LeaveRsp?relay
        FUNCTION ??NLME_LeaveRsp?relay,00H
        EXTERN ??NLME_NwkDiscTerm?relay
        FUNCTION ??NLME_NwkDiscTerm?relay,00H
        EXTERN ??NLME_ReJoinRequest?relay
        FUNCTION ??NLME_ReJoinRequest?relay,00H
        EXTERN ??NLME_RemoveChild?relay
        FUNCTION ??NLME_RemoveChild?relay,00H
        EXTERN ??NLME_RestoreFromNV?relay
        FUNCTION ??NLME_RestoreFromNV?relay,00H
        EXTERN ??NLME_SetBroadcastFilter?relay
        FUNCTION ??NLME_SetBroadcastFilter?relay,00H
        EXTERN ??NLME_SetEnergyThreshold?relay
        FUNCTION ??NLME_SetEnergyThreshold?relay,00H
        EXTERN ??NLME_SetPollRate?relay
        FUNCTION ??NLME_SetPollRate?relay,00H
        EXTERN ??NLME_SetQueuedPollRate?relay
        FUNCTION ??NLME_SetQueuedPollRate?relay,00H
        EXTERN ??NLME_SetResponseRate?relay
        FUNCTION ??NLME_SetResponseRate?relay,00H
        EXTERN ??NLME_StartRouterRequest?relay
        FUNCTION ??NLME_StartRouterRequest?relay,00H
        EXTERN ??RTG_MTORouteReq?relay
        FUNCTION ??RTG_MTORouteReq?relay,00H
        EXTERN ??SSP_ReadNwkActiveKey?relay
        FUNCTION ??SSP_ReadNwkActiveKey?relay,00H
        EXTERN ??ZDConfig_InitDescriptors?relay
        FUNCTION ??ZDConfig_InitDescriptors?relay,00H
        EXTERN ??ZDMatchSendState?relay
        FUNCTION ??ZDMatchSendState?relay,00H
        EXTERN ??ZDO_Init?relay
        FUNCTION ??ZDO_Init?relay,00H
        EXTERN ??ZDO_MatchEndDeviceBind?relay
        FUNCTION ??ZDO_MatchEndDeviceBind?relay,00H
        EXTERN ??ZDO_ParseAddrRsp?relay
        FUNCTION ??ZDO_ParseAddrRsp?relay,00H
        EXTERN ??ZDO_ParseBindUnbindReq?relay
        FUNCTION ??ZDO_ParseBindUnbindReq?relay,00H
        EXTERN ??ZDO_ParseEndDeviceBindReq?relay
        FUNCTION ??ZDO_ParseEndDeviceBindReq?relay,00H
        EXTERN ??ZDO_ProcessBindUnbindReq?relay
        FUNCTION ??ZDO_ProcessBindUnbindReq?relay,00H
        EXTERN ??ZDO_RegisterForZDOMsg?relay
        FUNCTION ??ZDO_RegisterForZDOMsg?relay,00H
        EXTERN ??ZDO_StartDevice?relay
        FUNCTION ??ZDO_StartDevice?relay,00H
        EXTERN ??ZDO_UpdateAddrManager?relay
        FUNCTION ??ZDO_UpdateAddrManager?relay,00H
        EXTERN ??ZDO_UpdateNwkStatus?relay
        FUNCTION ??ZDO_UpdateNwkStatus?relay,00H
        EXTERN ??ZDP_DeviceAnnce?relay
        FUNCTION ??ZDP_DeviceAnnce?relay,00H
        EXTERN ??ZDP_GenericRsp?relay
        FUNCTION ??ZDP_GenericRsp?relay,00H
        EXTERN ??ZDP_IncomingData?relay
        FUNCTION ??ZDP_IncomingData?relay,00H
        EXTERN ??ZDSecMgrInit?relay
        FUNCTION ??ZDSecMgrInit?relay,00H
        EXTERN ??ZDSecMgrNewDeviceEvent?relay
        FUNCTION ??ZDSecMgrNewDeviceEvent?relay,00H
        EXTERN ??ZDSecMgrSwitchKeyInd?relay
        FUNCTION ??ZDSecMgrSwitchKeyInd?relay,00H
        EXTERN ??ZDSecMgrTransportKeyInd?relay
        FUNCTION ??ZDSecMgrTransportKeyInd?relay,00H
        EXTERN ??ZDSecMgrUpdateDeviceInd?relay
        FUNCTION ??ZDSecMgrUpdateDeviceInd?relay,00H
        EXTERN ??ZMacSetReq?relay
        FUNCTION ??ZMacSetReq?relay,00H
        EXTERN ??afRegister?relay
        FUNCTION ??afRegister?relay,00H
        EXTERN ??afSetMatch?relay
        FUNCTION ??afSetMatch?relay,00H
        EXTERN ??nwkNeighborInitTable?relay
        FUNCTION ??nwkNeighborInitTable?relay,00H
        EXTERN ??nwk_ExtPANIDValid?relay
        FUNCTION ??nwk_ExtPANIDValid?relay,00H
        EXTERN ??nwk_getNetworkDesc?relay
        FUNCTION ??nwk_getNetworkDesc?relay,00H
        EXTERN ??osal_get_timeoutEx?relay
        FUNCTION ??osal_get_timeoutEx?relay,00H
        EXTERN ??osal_mem_free?relay
        FUNCTION ??osal_mem_free?relay,00H
        EXTERN ??osal_memcpy?relay
        FUNCTION ??osal_memcpy?relay,00H
        EXTERN ??osal_memset?relay
        FUNCTION ??osal_memset?relay,00H
        EXTERN ??osal_msg_allocate?relay
        FUNCTION ??osal_msg_allocate?relay,00H
        EXTERN ??osal_msg_deallocate?relay
        FUNCTION ??osal_msg_deallocate?relay,00H
        EXTERN ??osal_msg_receive?relay
        FUNCTION ??osal_msg_receive?relay,00H
        EXTERN ??osal_msg_send?relay
        FUNCTION ??osal_msg_send?relay,00H
        EXTERN ??osal_nv_item_init?relay
        FUNCTION ??osal_nv_item_init?relay,00H
        EXTERN ??osal_nv_read?relay
        FUNCTION ??osal_nv_read?relay,00H
        EXTERN ??osal_nv_write?relay
        FUNCTION ??osal_nv_write?relay,00H
        EXTERN ??osal_pwrmgr_device?relay
        FUNCTION ??osal_pwrmgr_device?relay,00H
        EXTERN ??osal_rand?relay
        FUNCTION ??osal_rand?relay,00H
        EXTERN ??osal_set_event?relay
        FUNCTION ??osal_set_event?relay,00H
        EXTERN ??osal_start_timerEx?relay
        FUNCTION ??osal_start_timerEx?relay,00H
        EXTERN ??osal_stop_timerEx?relay
        FUNCTION ??osal_stop_timerEx?relay,00H
        EXTERN ??sAddrExtCmp?relay
        FUNCTION ??sAddrExtCmp?relay,00H
        EXTERN ??sAddrExtCpy?relay
        FUNCTION ??sAddrExtCpy?relay,00H
        EXTERN ??zgInitItems?relay
        FUNCTION ??zgInitItems?relay,00H
        EXTERN ??zgReadStartupOptions?relay
        FUNCTION ??zgReadStartupOptions?relay,00H
        EXTERN ??zgWriteStartupOptions?relay
        FUNCTION ??zgWriteStartupOptions?relay,00H
        EXTERN AIB_apsUseExtendedPANID
        EXTERN AIB_apsUseInsecureJoin
        EXTERN NWK_TaskID
        EXTERN ZDO_Config_Node_Descriptor
        EXTERN _NIB
        EXTERN matchED
        EXTERN nwkFrameCounter
        EXTERN pZDNwkMgr_ProcessDataConfirm
        EXTERN zgConcentratorEnable
        EXTERN zgConfigPANID
        EXTERN zgDefaultStartingScanDuration
        EXTERN zgDeviceLogicalType
        EXTERN zgStackProfile

// E:\Work Codes\ZigBee\Network\Components\stack\zdo\ZDApp.c
//    1 /**************************************************************************************************
//    2   Filename:       ZDApp.c
//    3   Revised:        $Date: 2010-01-04 12:16:55 -0800 (Mon, 04 Jan 2010) $
//    4   Revision:       $Revision: 21428 $
//    5 
//    6   Description:    This file contains the interface to the Zigbee Device Application. This is the
//    7                   Application part that the use can change. This also contains the Task functions.
//    8 
//    9 
//   10   Copyright 2004-2009 Texas Instruments Incorporated. All rights reserved.
//   11 
//   12   IMPORTANT: Your use of this Software is limited to those specific rights
//   13   granted under the terms of a software license agreement between the user
//   14   who downloaded the software, his/her employer (which must be your employer)
//   15   and Texas Instruments Incorporated (the "License").  You may not use this
//   16   Software unless you agree to abide by the terms of the License. The License
//   17   limits your use, and you acknowledge, that the Software may not be modified,
//   18   copied or distributed unless embedded on a Texas Instruments microcontroller
//   19   or used solely and exclusively in conjunction with a Texas Instruments radio
//   20   frequency transceiver, which is integrated into your product.  Other than for
//   21   the foregoing purpose, you may not use, reproduce, copy, prepare derivative
//   22   works of, modify, distribute, perform, display or sell this Software and/or
//   23   its documentation for any purpose.
//   24 
//   25   YOU FURTHER ACKNOWLEDGE AND AGREE THAT THE SOFTWARE AND DOCUMENTATION ARE
//   26   PROVIDED AS IS?WITHOUT WARRANTY OF ANY KIND, EITHER EXPRESS OR IMPLIED,
//   27   INCLUDING WITHOUT LIMITATION, ANY WARRANTY OF MERCHANTABILITY, TITLE, 
//   28   NON-INFRINGEMENT AND FITNESS FOR A PARTICULAR PURPOSE. IN NO EVENT SHALL
//   29   TEXAS INSTRUMENTS OR ITS LICENSORS BE LIABLE OR OBLIGATED UNDER CONTRACT,
//   30   NEGLIGENCE, STRICT LIABILITY, CONTRIBUTION, BREACH OF WARRANTY, OR OTHER
//   31   LEGAL EQUITABLE THEORY ANY DIRECT OR INDIRECT DAMAGES OR EXPENSES
//   32   INCLUDING BUT NOT LIMITED TO ANY INCIDENTAL, SPECIAL, INDIRECT, PUNITIVE
//   33   OR CONSEQUENTIAL DAMAGES, LOST PROFITS OR LOST DATA, COST OF PROCUREMENT
//   34   OF SUBSTITUTE GOODS, TECHNOLOGY, SERVICES, OR ANY CLAIMS BY THIRD PARTIES
//   35   (INCLUDING BUT NOT LIMITED TO ANY DEFENSE THEREOF), OR OTHER SIMILAR COSTS.
//   36 
//   37   Should you have any questions regarding your right to use this Software,
//   38   contact Texas Instruments Incorporated at www.TI.com. 
//   39 **************************************************************************************************/
//   40 
//   41 /*********************************************************************
//   42  * INCLUDES
//   43  */
//   44 #include "ZComDef.h"
//   45 #include "ZMac.h"
//   46 #include "OSAL.h"
//   47 #include "OSAL_Tasks.h"
//   48 #include "OSAL_PwrMgr.h"
//   49 #include "OSAL_Nv.h"
//   50 #include "AF.h"
//   51 #include "APSMEDE.h"
//   52 #include "NLMEDE.h"
//   53 #include "AddrMgr.h"
//   54 #include "ZDProfile.h"
//   55 #include "ZDObject.h"
//   56 #include "ZDConfig.h"
//   57 #include "ZDSecMgr.h"
//   58 #include "ZDApp.h"
//   59 #include "DebugTrace.h"
//   60 #include "nwk_util.h"
//   61 #include "OnBoard.h"

        ASEGN SFR_AN:DATA:NOROOT,0a8H
// union <unnamed> volatile __sfr _A_IEN0
_A_IEN0:
        DATA8
        DS 1

        ASEGN SFR_AN:DATA:NOROOT,0c9H
// unsigned char volatile __sfr WDCTL
WDCTL:
        DATA8
        DS 1
//   62 #include "ZGlobals.h"
//   63 #include "ZDNwkMgr.h"
//   64 #include "rtg.h"
//   65 
//   66 #include "ssp.h"
//   67 
//   68 /* HAL */
//   69 #include "hal_led.h"
//   70 #include "hal_lcd.h"
//   71 #include "hal_key.h"
//   72 
//   73 #if defined( MT_MAC_FUNC ) || defined( MT_MAC_CB_FUNC )
//   74   #error "ERROR! MT_MAC functionalities should be disabled on ZDO devices"
//   75 #endif
//   76 /*********************************************************************
//   77  * MACROS
//   78  */
//   79 
//   80 /*********************************************************************
//   81  * CONSTANTS
//   82  */
//   83 #if !defined( NWK_START_DELAY )
//   84   #define NWK_START_DELAY             100   // in milliseconds
//   85 #endif
//   86 
//   87 #if !defined( EXTENDED_JOINING_RANDOM_MASK )
//   88   #define EXTENDED_JOINING_RANDOM_MASK 0x007F
//   89 #endif
//   90 
//   91 #if !defined( BEACON_REQUEST_DELAY )
//   92   #define BEACON_REQUEST_DELAY        100   // in milliseconds
//   93 #endif
//   94 
//   95 #if !defined( BEACON_REQ_DELAY_MASK )
//   96   #define BEACON_REQ_DELAY_MASK       0x007F
//   97 #endif
//   98 
//   99 #define MAX_RESUME_RETRY            3
//  100 
//  101 #define MAX_DEVICE_UNAUTH_TIMEOUT   5000  // 5 seconds
//  102 
//  103 // Beacon Order Settings (see NLMEDE.h)
//  104 #define DEFAULT_BEACON_ORDER        BEACON_ORDER_NO_BEACONS // 15
//  105 #define DEFAULT_SUPERFRAME_ORDER    DEFAULT_BEACON_ORDER    // 15
//  106 
//  107 #if !defined( MAX_NWK_FRAMECOUNTER_CHANGES )
//  108   // The number of times the frame counter can change before
//  109   // saving to NV
//  110   #define MAX_NWK_FRAMECOUNTER_CHANGES    1000
//  111 #endif
//  112 
//  113 // Leave control bits
//  114 #define ZDAPP_LEAVE_CTRL_INIT 0
//  115 #define ZDAPP_LEAVE_CTRL_SET  1
//  116 #define ZDAPP_LEAVE_CTRL_RA   2
//  117 
//  118 // Standard time to update NWK NV data
//  119 #define ZDAPP_UPDATE_NWK_NV_TIME 700
//  120 
//  121 // Address Manager Stub Implementation
//  122 #define ZDApp_NwkWriteNVRequest AddrMgrWriteNVRequest
//  123 
//  124 // Size of the ZDO callback function table zdoCBFunc[]
//  125 #define MAX_ZDO_CB_FUNC 1
//  126 
//  127 
//  128 /*********************************************************************
//  129  * GLOBAL VARIABLES
//  130  */
//  131 
//  132 #if defined( LCD_SUPPORTED )

        RSEG XDATA_Z:XDATA:NOROOT(0)
        DATA8
//  133   uint8 MatchRsps = 0;
MatchRsps:
        DS 1
        REQUIRE __INIT_XDATA_Z
//  134 #endif
//  135 

        RSEG XDATA_I:XDATA:NOROOT(0)
//  136 uint8 zdoDiscCounter = 1;
zdoDiscCounter:
        DATA8
        DS 1
        REQUIRE `?<Initializer for zdoDiscCounter>`
        REQUIRE __INIT_XDATA_I
//  137 
//  138 // zAddrType_t  ZigBee 

        RSEG XDATA_Z:XDATA:NOROOT(0)
        DATA8
//  139 zAddrType_t ZDAppNwkAddr;
ZDAppNwkAddr:
        DS 9
        REQUIRE __INIT_XDATA_Z
//  140 

        RSEG XDATA_Z:XDATA:NOROOT(0)
        DATA8
//  141 uint8 zdappMgmtNwkDiscRspTransSeq;
zdappMgmtNwkDiscRspTransSeq:
        DS 1
        REQUIRE __INIT_XDATA_Z

        RSEG XDATA_Z:XDATA:NOROOT(0)
        DATA8
//  142 uint8 zdappMgmtNwkDiscReqInProgress = FALSE;
zdappMgmtNwkDiscReqInProgress:
        DS 1
        REQUIRE __INIT_XDATA_Z

        RSEG XDATA_Z:XDATA:NOROOT(0)
        DATA8
//  143 zAddrType_t zdappMgmtNwkDiscRspAddr;
zdappMgmtNwkDiscRspAddr:
        DS 9
        REQUIRE __INIT_XDATA_Z

        RSEG XDATA_Z:XDATA:NOROOT(0)
        DATA8
//  144 uint8 zdappMgmtNwkDiscStartIndex;
zdappMgmtNwkDiscStartIndex:
        DS 1
        REQUIRE __INIT_XDATA_Z

        RSEG XDATA_Z:XDATA:NOROOT(0)
        DATA8
//  145 uint8 zdappMgmtSavedNwkState;
zdappMgmtSavedNwkState:
        DS 1
        REQUIRE __INIT_XDATA_Z
//  146 

        RSEG XDATA_Z:XDATA:NOROOT(0)
        DATA16
//  147 uint16 nwkFrameCounterChanges = 0;
nwkFrameCounterChanges:
        DS 2
        REQUIRE __INIT_XDATA_Z

        RSEG XDATA_I:XDATA:NOROOT(0)
//  148 uint8 continueJoining = TRUE;
continueJoining:
        DATA8
        DS 1
        REQUIRE `?<Initializer for continueJoining>`
        REQUIRE __INIT_XDATA_I
//  149 

        RSEG XDATA_Z:XDATA:NOROOT(0)
        DATA8
//  150 uint8  _tmpRejoinState;
_tmpRejoinState:
        DS 1
        REQUIRE __INIT_XDATA_Z
//  151 
//  152 // The extended PanID used in ZDO layer for rejoin.

        RSEG XDATA_Z:XDATA:NOROOT(0)
        DATA8
//  153 uint8 ZDO_UseExtendedPANID[Z_EXTADDR_LEN];
ZDO_UseExtendedPANID:
        DS 8
        REQUIRE __INIT_XDATA_Z
//  154 

        RSEG XDATA_Z:XDATA:NOROOT(0)
        DATA16
//  155 pfnZdoCb zdoCBFunc[MAX_ZDO_CB_FUNC];
zdoCBFunc:
        DS 2
        REQUIRE __INIT_XDATA_Z
//  156 
//  157 /*********************************************************************
//  158  * EXTERNAL VARIABLES
//  159  */
//  160 
//  161 /*********************************************************************
//  162  * EXTERNAL FUNCTIONS
//  163  */
//  164 
//  165 /*********************************************************************
//  166  * LOCAL FUNCTIONS
//  167  */
//  168 
//  169 void ZDApp_NetworkStartEvt( void );
//  170 void ZDApp_DeviceAuthEvt( void );
//  171 void ZDApp_SaveNetworkStateEvt( void );
//  172 
//  173 uint8 ZDApp_ReadNetworkRestoreState( void );
//  174 uint8 ZDApp_RestoreNetworkState( void );
//  175 void ZDAppDetermineDeviceType( void );
//  176 void ZDApp_InitUserDesc( void );
//  177 void ZDAppCheckForHoldKey( void );
//  178 void ZDApp_ProcessOSALMsg( osal_event_hdr_t *msgPtr );
//  179 void ZDApp_ProcessNetworkJoin( void );
//  180 void ZDApp_SetCoordAddress( uint8 endPoint, uint8 dstEP );
//  181 void ZDApp_SaveNwkKey( void );
//  182 uint8 ZDApp_RestoreNwkKey( void );
//  183   
//  184 void ZDApp_SecInit( uint8 state );
//  185 UINT16 ZDApp_ProcessSecEvent( uint8 task_id, UINT16 events );
//  186 void ZDApp_ProcessSecMsg( osal_event_hdr_t *msgPtr );
//  187 
//  188 void ZDApp_SendMsg( uint8 taskID, uint8 cmd, uint8 len, uint8 *buf );
//  189 
//  190 void ZDApp_ResetTimerStart( uint16 delay );
//  191 void ZDApp_ResetTimerCancel( void );
//  192 void ZDApp_LeaveCtrlInit( void );
//  193 void ZDApp_LeaveCtrlSet( uint8 ra );
//  194 uint8 ZDApp_LeaveCtrlBypass( void );
//  195 void ZDApp_LeaveCtrlStartup( devStates_t* state, uint16* startDelay );
//  196 void ZDApp_LeaveReset( uint8 ra );
//  197 void ZDApp_LeaveUpdate( uint16 nwkAddr, uint8* extAddr,
//  198                         uint8 removeChildren );
//  199 void ZDApp_NodeProfileSync( ZDO_NetworkDiscoveryCfm_t* cfm );
//  200 void ZDApp_ProcessMsgCBs( zdoIncomingMsg_t *inMsg );
//  201 void ZDApp_RegisterCBs( void );
//  202 
//  203 /*********************************************************************
//  204  * LOCAL VARIABLES
//  205  */
//  206 

        RSEG XDATA_Z:XDATA:NOROOT(0)
        DATA8
//  207 uint8 ZDAppTaskID;
ZDAppTaskID:
        DS 1
        REQUIRE __INIT_XDATA_Z

        RSEG XDATA_Z:XDATA:NOROOT(0)
        DATA8
//  208 uint8 nwkStatus;
nwkStatus:
        DS 1
        REQUIRE __INIT_XDATA_Z

        RSEG XDATA_Z:XDATA:NOROOT(0)
        DATA16
//  209 endPointDesc_t *ZDApp_AutoFindMode_epDesc = (endPointDesc_t *)NULL;
ZDApp_AutoFindMode_epDesc:
        DS 2
        REQUIRE __INIT_XDATA_Z

        RSEG XDATA_Z:XDATA:NOROOT(0)
        DATA8
//  210 uint8 ZDApp_LeaveCtrl;
ZDApp_LeaveCtrl:
        DS 1
        REQUIRE __INIT_XDATA_Z
//  211 
//  212 #if defined( HOLD_AUTO_START )

        RSEG XDATA_Z:XDATA:NOROOT(0)
        DATA8
//  213   devStates_t devState = DEV_HOLD;
devState:
        DS 1
        REQUIRE __INIT_XDATA_Z
//  214 #else
//  215   devStates_t devState = DEV_INIT;
//  216 #endif
//  217 
//  218 #if ( ZG_BUILD_RTRONLY_TYPE ) || ( ZG_BUILD_ENDDEVICE_TYPE )

        RSEG XDATA_Z:XDATA:NOROOT(0)
        DATA8
//  219   devStartModes_t devStartMode = MODE_JOIN;     // Assume joining
devStartMode:
        DS 1
        REQUIRE __INIT_XDATA_Z
//  220   //devStartModes_t devStartMode = MODE_RESUME; // if already "directly joined"
//  221                         // to parent. Set to make the device do an Orphan scan.
//  222 #else
//  223   // Set the default to coodinator
//  224   devStartModes_t devStartMode = MODE_HARD; // 
//  225 #endif
//  226 

        RSEG XDATA_Z:XDATA:NOROOT(0)
        DATA8
//  227 uint8 retryCnt;
retryCnt:
        DS 1
        REQUIRE __INIT_XDATA_Z
//  228 
//  229 // 0 ZigBee 

        RSEG XDATA_I:XDATA:NOROOT(0)
//  230 endPointDesc_t ZDApp_epDesc =
ZDApp_epDesc:
        DATA8
        DS 6
        REQUIRE `?<Initializer for ZDApp_epDesc>`
        REQUIRE __INIT_XDATA_I
//  231 {
//  232   ZDO_EP,   // endPoint, 0
//  233   &ZDAppTaskID, // task_id,  osalInitTasks() ID
//  234   (SimpleDescriptionFormat_t *)NULL,  // No Simple description for ZDO
//  235   (afNetworkLatencyReq_t)0            // No Network Latency req
//  236 };
//  237 

        RSEG XDATA_I:XDATA:NOROOT(0)
//  238 uint16 ZDApp_SavedPollRate = POLL_RATE;	// default value is 1000 ms
ZDApp_SavedPollRate:
        DATA16
        DS 2
        REQUIRE `?<Initializer for ZDApp_SavedPollRate>`
        REQUIRE __INIT_XDATA_I
//  239 
//  240 /*********************************************************************
//  241  * @fn      ZDApp_Init
//  242  *
//  243  * @brief   ZDApp Initialization function.
//  244  *
//  245  * @param   task_id - ZDApp Task ID
//  246  *
//  247  * @return  None
//  248  */

        RSEG BANKED_CODE:CODE:NOROOT(0)
//  249 void ZDApp_Init( uint8 task_id )
ZDApp_Init:
        CFI Block cfiBlock0 Using cfiCommon0
        CFI Function ZDApp_Init
        CODE
//  250 {
        FUNCALL ZDApp_Init, NLME_GetExtAddr
        LOCFRAME ISTACK, 0, STACK
        LOCFRAME PSTACK, 0, STACK
        LOCFRAME XSTACK, 9, STACK
        LOCFRAME IOVERLAY, 0, STATIC
        LOCFRAME DOVERLAY, 0, STATIC
        ARGFRAME ISTACK, 0, STACK
        ARGFRAME PSTACK, 0, STACK
        ARGFRAME XSTACK, 9, STACK
        ARGFRAME IOVERLAY, 0, STATIC
        ARGFRAME DOVERLAY, 0, STATIC
        FUNCALL ZDApp_Init, ZDAppCheckForHoldKey
        LOCFRAME ISTACK, 0, STACK
        LOCFRAME PSTACK, 0, STACK
        LOCFRAME XSTACK, 9, STACK
        LOCFRAME IOVERLAY, 0, STATIC
        LOCFRAME DOVERLAY, 0, STATIC
        ARGFRAME ISTACK, 0, STACK
        ARGFRAME PSTACK, 0, STACK
        ARGFRAME XSTACK, 9, STACK
        ARGFRAME IOVERLAY, 0, STATIC
        ARGFRAME DOVERLAY, 0, STATIC
        FUNCALL ZDApp_Init, ZDO_Init
        LOCFRAME ISTACK, 0, STACK
        LOCFRAME PSTACK, 0, STACK
        LOCFRAME XSTACK, 9, STACK
        LOCFRAME IOVERLAY, 0, STATIC
        LOCFRAME DOVERLAY, 0, STATIC
        ARGFRAME ISTACK, 0, STACK
        ARGFRAME PSTACK, 0, STACK
        ARGFRAME XSTACK, 9, STACK
        ARGFRAME IOVERLAY, 0, STATIC
        ARGFRAME DOVERLAY, 0, STATIC
        FUNCALL ZDApp_Init, afRegister
        LOCFRAME ISTACK, 0, STACK
        LOCFRAME PSTACK, 0, STACK
        LOCFRAME XSTACK, 9, STACK
        LOCFRAME IOVERLAY, 0, STATIC
        LOCFRAME DOVERLAY, 0, STATIC
        ARGFRAME ISTACK, 0, STACK
        ARGFRAME PSTACK, 0, STACK
        ARGFRAME XSTACK, 9, STACK
        ARGFRAME IOVERLAY, 0, STATIC
        ARGFRAME DOVERLAY, 0, STATIC
        FUNCALL ZDApp_Init, ZDOInitDevice
        LOCFRAME ISTACK, 0, STACK
        LOCFRAME PSTACK, 0, STACK
        LOCFRAME XSTACK, 9, STACK
        LOCFRAME IOVERLAY, 0, STATIC
        LOCFRAME DOVERLAY, 0, STATIC
        ARGFRAME ISTACK, 0, STACK
        ARGFRAME PSTACK, 0, STACK
        ARGFRAME XSTACK, 9, STACK
        ARGFRAME IOVERLAY, 0, STATIC
        ARGFRAME DOVERLAY, 0, STATIC
        FUNCALL ZDApp_Init, HalLedBlink
        LOCFRAME ISTACK, 0, STACK
        LOCFRAME PSTACK, 0, STACK
        LOCFRAME XSTACK, 9, STACK
        LOCFRAME IOVERLAY, 0, STATIC
        LOCFRAME DOVERLAY, 0, STATIC
        ARGFRAME ISTACK, 0, STACK
        ARGFRAME PSTACK, 0, STACK
        ARGFRAME XSTACK, 9, STACK
        ARGFRAME IOVERLAY, 0, STATIC
        ARGFRAME DOVERLAY, 0, STATIC
        FUNCALL ZDApp_Init, ZDApp_RegisterCBs
        LOCFRAME ISTACK, 0, STACK
        LOCFRAME PSTACK, 0, STACK
        LOCFRAME XSTACK, 9, STACK
        LOCFRAME IOVERLAY, 0, STATIC
        LOCFRAME DOVERLAY, 0, STATIC
        ARGFRAME ISTACK, 0, STACK
        ARGFRAME PSTACK, 0, STACK
        ARGFRAME XSTACK, 9, STACK
        ARGFRAME IOVERLAY, 0, STATIC
        ARGFRAME DOVERLAY, 0, STATIC
        MOV     A,#-0x9
        LCALL   ?BANKED_ENTER_XDATA
        CFI DPH0 load(1, XDATA, add(CFA_XSP16, literal(-1)))
        CFI DPL0 load(1, XDATA, add(CFA_XSP16, literal(-2)))
        CFI ?BRET_EXT load(1, XDATA, add(CFA_XSP16, literal(-3)))
        CFI ?RET_HIGH load(1, XDATA, add(CFA_XSP16, literal(-4)))
        CFI ?RET_LOW load(1, XDATA, add(CFA_XSP16, literal(-5)))
        CFI R7 load(1, XDATA, add(CFA_XSP16, literal(-6)))
        CFI V0 load(1, XDATA, add(CFA_XSP16, literal(-7)))
        CFI VB load(1, XDATA, add(CFA_XSP16, literal(-8)))
        CFI R6 load(1, XDATA, add(CFA_XSP16, literal(-9)))
        CFI CFA_SP SP+0
        CFI CFA_XSP16 add(XSP16, 9)
        ; Saved register size: 9
        ; Auto size: 0
        MOV     A,R1
//  251   // Save the task ID
//  252   ZDAppTaskID = task_id;
        MOV     DPTR,#ZDAppTaskID
        MOVX    @DPTR,A
//  253 
//  254   // Initialize the ZDO global device short address storage
//  255 	// zAddrType_t  ZigBee 
//  256   ZDAppNwkAddr.addrMode = Addr16Bit;    // 2, enum
        MOV     DPTR,#ZDAppNwkAddr + 8
        MOV     A,#0x2
        MOVX    @DPTR,A
//  257   ZDAppNwkAddr.addr.shortAddr = INVALID_NODE_ADDR;  // 0xFFFE
        MOV     DPTR,#ZDAppNwkAddr
        MOV     A,#-0x2
        MOVX    @DPTR,A
        INC     DPTR
        INC     A
        MOVX    @DPTR,A
//  258   (void)NLME_GetExtAddr();  // Load the saveExtAddr pointer.
        ; Setup parameters for call to function NLME_GetExtAddr
        LCALL   ??NLME_GetExtAddr?relay
//  259 
//  260   // Check for manual "Hold Auto Start"
//  261   ZDAppCheckForHoldKey();
        ; Setup parameters for call to function ZDAppCheckForHoldKey
        LCALL   ??ZDAppCheckForHoldKey?relay
//  262 
//  263   // Initialize ZDO items and setup the device - type of device to create.
//  264   ZDO_Init();
        ; Setup parameters for call to function ZDO_Init
        LCALL   ??ZDO_Init?relay
//  265 
//  266   // Register the endpoint description with the AF
//  267   // This task doesn't have a Simple description, but we still need
//  268   // to register the endpoint.
//  269   afRegister( (endPointDesc_t *)&ZDApp_epDesc );
        ; Setup parameters for call to function afRegister
        MOV     R2,#ZDApp_epDesc & 0xff
        MOV     R3,#(ZDApp_epDesc >> 8) & 0xff
        LCALL   ??afRegister?relay
//  270 
//  271 #if defined( ZDO_USERDESC_RESPONSE )
//  272   ZDApp_InitUserDesc();
//  273 #endif // ZDO_USERDESC_RESPONSE
//  274 
//  275   // Start the device?
//  276   if ( devState != DEV_HOLD )
        MOV     DPTR,#devState
        MOVX    A,@DPTR
        JZ      ??ZDApp_Init_0
//  277   {
//  278     ZDOInitDevice( 0 );
        ; Setup parameters for call to function ZDOInitDevice
        MOV     R2,#0x0
        MOV     R3,#0x0
        LCALL   ??ZDOInitDevice?relay
        SJMP    ??ZDApp_Init_1
//  279   }
//  280   else
//  281   {
//  282     // Blink LED to indicate HOLD_START
//  283     HalLedBlink ( HAL_LED_4, 5, 50, 500 );
??ZDApp_Init_0:
        ; Setup parameters for call to function HalLedBlink
        MOV     R4,#-0xc
        MOV     R5,#0x1
        MOV     R3,#0x32
        MOV     R2,#0x5
        MOV     R1,#0x8
        LCALL   ??HalLedBlink?relay
//  284   }
//  285   
//  286   ZDApp_RegisterCBs();
??ZDApp_Init_1:
        ; Setup parameters for call to function ZDApp_RegisterCBs
        LCALL   ??ZDApp_RegisterCBs?relay
//  287 } /* ZDApp_Init() */
        LJMP    ??Subroutine31_0 & 0xFFFF
        CFI EndBlock cfiBlock0
//  288 
//  289 /*********************************************************************
//  290  * @fn          ZDApp_SecInit
//  291  *
//  292  * @brief       ZDApp initialize security.
//  293  *
//  294  * @param       state - device initialization state
//  295  *
//  296  * @return      none
//  297  */

        RSEG BANKED_CODE:CODE:NOROOT(0)
//  298 void ZDApp_SecInit( uint8 state )
ZDApp_SecInit:
        CFI Block cfiBlock1 Using cfiCommon0
        CFI Function ZDApp_SecInit
        CODE
//  299 {  
        FUNCALL ZDApp_SecInit, ZDSecMgrInit
        LOCFRAME ISTACK, 0, STACK
        LOCFRAME PSTACK, 0, STACK
        LOCFRAME XSTACK, 9, STACK
        LOCFRAME IOVERLAY, 0, STATIC
        LOCFRAME DOVERLAY, 0, STATIC
        ARGFRAME ISTACK, 0, STACK
        ARGFRAME PSTACK, 0, STACK
        ARGFRAME XSTACK, 9, STACK
        ARGFRAME IOVERLAY, 0, STATIC
        ARGFRAME DOVERLAY, 0, STATIC
        MOV     A,#-0x9
        LCALL   ?BANKED_ENTER_XDATA
        CFI DPH0 load(1, XDATA, add(CFA_XSP16, literal(-1)))
        CFI DPL0 load(1, XDATA, add(CFA_XSP16, literal(-2)))
        CFI ?BRET_EXT load(1, XDATA, add(CFA_XSP16, literal(-3)))
        CFI ?RET_HIGH load(1, XDATA, add(CFA_XSP16, literal(-4)))
        CFI ?RET_LOW load(1, XDATA, add(CFA_XSP16, literal(-5)))
        CFI R7 load(1, XDATA, add(CFA_XSP16, literal(-6)))
        CFI V0 load(1, XDATA, add(CFA_XSP16, literal(-7)))
        CFI VB load(1, XDATA, add(CFA_XSP16, literal(-8)))
        CFI R6 load(1, XDATA, add(CFA_XSP16, literal(-9)))
        CFI CFA_SP SP+0
        CFI CFA_XSP16 add(XSP16, 9)
        ; Saved register size: 9
        ; Auto size: 0
//  300   if ( ZG_SECURE_ENABLED && ZG_BUILD_COORDINATOR_TYPE && ZG_DEVICE_COORDINATOR_TYPE )
//  301   {
//  302     // Set the Trust Center bit
//  303     ZDO_Config_Node_Descriptor.ServerMask |= PRIM_TRUST_CENTER;
//  304   }
//  305 
//  306   if ( ZG_CHECK_SECURITY_MODE == ZG_SECURITY_PRO_HIGH )
//  307   {
//  308     ZDO_Config_Node_Descriptor.CapabilityFlags |= CAPINFO_SECURITY_CAPABLE;
//  309   }
//  310     
//  311   // Initialize ZigBee Device Security Manager
//  312   ZDSecMgrInit(state);
        ; Setup parameters for call to function ZDSecMgrInit
        LCALL   ??ZDSecMgrInit?relay
//  313 
//  314   if ( ZG_SECURE_ENABLED )
//  315   {
//  316     if ( state != ZDO_INITDEV_RESTORED_NETWORK_STATE )
//  317     {
//  318       nwkFrameCounter = 0;
//  319   
//  320       if( _NIB.nwkKeyLoaded == FALSE )
//  321       {
//  322         if ( ( ZG_BUILD_COORDINATOR_TYPE && ZG_DEVICE_COORDINATOR_TYPE          ) ||
//  323              ( ( zgSecurityMode == ZG_SECURITY_RESIDENTIAL ) && zgPreConfigKeys )    )
//  324         {
//  325             SSP_UpdateNwkKey( (byte*)zgPreConfigKey, 0);
//  326             SSP_SwitchNwkKey( 0 );
//  327         }
//  328       }
//  329     }
//  330   }    
//  331 }
        LJMP    ??Subroutine31_0 & 0xFFFF
        CFI EndBlock cfiBlock1
//  332 
//  333 /*********************************************************************
//  334  * @fn      ZDApp_event_loop()
//  335  *
//  336  * @brief   Main event loop for Zigbee device objects task. This function
//  337  *          should be called at periodic intervals.
//  338  *
//  339  * @param   task_id - Task ID
//  340  * @param   events  - Bitmap of events
//  341  *
//  342  * @return  none
//  343  */

        RSEG BANKED_CODE:CODE:NOROOT(0)
//  344 UINT16 ZDApp_event_loop( uint8 task_id, UINT16 events )
ZDApp_event_loop:
        CFI Block cfiBlock2 Using cfiCommon0
        CFI Function ZDApp_event_loop
        CODE
//  345 {
        FUNCALL ZDApp_event_loop, ZDO_StartDevice
        LOCFRAME ISTACK, 0, STACK
        LOCFRAME PSTACK, 0, STACK
        LOCFRAME XSTACK, 10, STACK
        LOCFRAME IOVERLAY, 0, STATIC
        LOCFRAME DOVERLAY, 0, STATIC
        ARGFRAME ISTACK, 0, STACK
        ARGFRAME PSTACK, 0, STACK
        ARGFRAME XSTACK, 10, STACK
        ARGFRAME IOVERLAY, 0, STATIC
        ARGFRAME DOVERLAY, 0, STATIC
        FUNCALL ZDApp_event_loop, ZDApp_ProcessOSALMsg
        LOCFRAME ISTACK, 0, STACK
        LOCFRAME PSTACK, 0, STACK
        LOCFRAME XSTACK, 10, STACK
        LOCFRAME IOVERLAY, 0, STATIC
        LOCFRAME DOVERLAY, 0, STATIC
        ARGFRAME ISTACK, 0, STACK
        ARGFRAME PSTACK, 0, STACK
        ARGFRAME XSTACK, 10, STACK
        ARGFRAME IOVERLAY, 0, STATIC
        ARGFRAME DOVERLAY, 0, STATIC
        FUNCALL ZDApp_event_loop, osal_msg_deallocate
        LOCFRAME ISTACK, 0, STACK
        LOCFRAME PSTACK, 0, STACK
        LOCFRAME XSTACK, 10, STACK
        LOCFRAME IOVERLAY, 0, STATIC
        LOCFRAME DOVERLAY, 0, STATIC
        ARGFRAME ISTACK, 0, STACK
        ARGFRAME PSTACK, 0, STACK
        ARGFRAME XSTACK, 10, STACK
        ARGFRAME IOVERLAY, 0, STATIC
        ARGFRAME DOVERLAY, 0, STATIC
        FUNCALL ZDApp_event_loop, osal_msg_receive
        LOCFRAME ISTACK, 0, STACK
        LOCFRAME PSTACK, 0, STACK
        LOCFRAME XSTACK, 10, STACK
        LOCFRAME IOVERLAY, 0, STATIC
        LOCFRAME DOVERLAY, 0, STATIC
        ARGFRAME ISTACK, 0, STACK
        ARGFRAME PSTACK, 0, STACK
        ARGFRAME XSTACK, 10, STACK
        ARGFRAME IOVERLAY, 0, STATIC
        ARGFRAME DOVERLAY, 0, STATIC
        FUNCALL ZDApp_event_loop, ZDApp_NetworkStartEvt
        LOCFRAME ISTACK, 0, STACK
        LOCFRAME PSTACK, 0, STACK
        LOCFRAME XSTACK, 10, STACK
        LOCFRAME IOVERLAY, 0, STATIC
        LOCFRAME DOVERLAY, 0, STATIC
        ARGFRAME ISTACK, 0, STACK
        ARGFRAME PSTACK, 0, STACK
        ARGFRAME XSTACK, 10, STACK
        ARGFRAME IOVERLAY, 0, STATIC
        ARGFRAME DOVERLAY, 0, STATIC
        FUNCALL ZDApp_event_loop, osal_pwrmgr_device
        LOCFRAME ISTACK, 0, STACK
        LOCFRAME PSTACK, 0, STACK
        LOCFRAME XSTACK, 10, STACK
        LOCFRAME IOVERLAY, 0, STATIC
        LOCFRAME DOVERLAY, 0, STATIC
        ARGFRAME ISTACK, 0, STACK
        ARGFRAME PSTACK, 0, STACK
        ARGFRAME XSTACK, 10, STACK
        ARGFRAME IOVERLAY, 0, STATIC
        ARGFRAME DOVERLAY, 0, STATIC
        FUNCALL ZDApp_event_loop, osal_set_event
        LOCFRAME ISTACK, 0, STACK
        LOCFRAME PSTACK, 0, STACK
        LOCFRAME XSTACK, 10, STACK
        LOCFRAME IOVERLAY, 0, STATIC
        LOCFRAME DOVERLAY, 0, STATIC
        ARGFRAME ISTACK, 0, STACK
        ARGFRAME PSTACK, 0, STACK
        ARGFRAME XSTACK, 10, STACK
        ARGFRAME IOVERLAY, 0, STATIC
        ARGFRAME DOVERLAY, 0, STATIC
        FUNCALL ZDApp_event_loop, ZDO_UpdateNwkStatus
        LOCFRAME ISTACK, 0, STACK
        LOCFRAME PSTACK, 0, STACK
        LOCFRAME XSTACK, 10, STACK
        LOCFRAME IOVERLAY, 0, STATIC
        LOCFRAME DOVERLAY, 0, STATIC
        ARGFRAME ISTACK, 0, STACK
        ARGFRAME PSTACK, 0, STACK
        ARGFRAME XSTACK, 10, STACK
        ARGFRAME IOVERLAY, 0, STATIC
        ARGFRAME DOVERLAY, 0, STATIC
        FUNCALL ZDApp_event_loop, osal_start_timerEx
        LOCFRAME ISTACK, 0, STACK
        LOCFRAME PSTACK, 0, STACK
        LOCFRAME XSTACK, 10, STACK
        LOCFRAME IOVERLAY, 0, STATIC
        LOCFRAME DOVERLAY, 0, STATIC
        ARGFRAME ISTACK, 0, STACK
        ARGFRAME PSTACK, 0, STACK
        ARGFRAME XSTACK, 10, STACK
        ARGFRAME IOVERLAY, 0, STATIC
        ARGFRAME DOVERLAY, 0, STATIC
        MOV     A,#-0xa
        LCALL   ?BANKED_ENTER_XDATA
        CFI DPH0 load(1, XDATA, add(CFA_XSP16, literal(-1)))
        CFI DPL0 load(1, XDATA, add(CFA_XSP16, literal(-2)))
        CFI ?BRET_EXT load(1, XDATA, add(CFA_XSP16, literal(-3)))
        CFI ?RET_HIGH load(1, XDATA, add(CFA_XSP16, literal(-4)))
        CFI ?RET_LOW load(1, XDATA, add(CFA_XSP16, literal(-5)))
        CFI R7 load(1, XDATA, add(CFA_XSP16, literal(-6)))
        CFI V1 load(1, XDATA, add(CFA_XSP16, literal(-7)))
        CFI V0 load(1, XDATA, add(CFA_XSP16, literal(-8)))
        CFI VB load(1, XDATA, add(CFA_XSP16, literal(-9)))
        CFI R6 load(1, XDATA, add(CFA_XSP16, literal(-10)))
        CFI CFA_SP SP+0
        CFI CFA_XSP16 add(XSP16, 10)
        ; Saved register size: 10
        ; Auto size: 0
        MOV     A,R2
        MOV     R6,A
        MOV     A,R3
        MOV     R7,A
//  346   uint8 *msg_ptr;
//  347 
//  348   if ( events & SYS_EVENT_MSG ) // 0x8000
        ANL     A,#0x80
        JNZ     ??ZDApp_event_loop_0
//  349   {
//  350     //ZDAppTaskID
//  351     while ( (msg_ptr = osal_msg_receive( ZDAppTaskID )) )
//  352     {
//  353       //
//  354       ZDApp_ProcessOSALMsg( (osal_event_hdr_t *)msg_ptr );
//  355 
//  356       // Release the memory
//  357       osal_msg_deallocate( msg_ptr );
//  358     }
//  359 
//  360     // Return unprocessed events
//  361     return (events ^ SYS_EVENT_MSG);
//  362   }
//  363 
//  364   if ( events & ZDO_NETWORK_INIT )  // 0x0001, 
        MOV     A,R6
        MOV     C,0xE0 /* A   */.0
        JNC     ??ZDApp_event_loop_1
//  365   {
//  366     // Initialize apps and start the network
//  367     devState = DEV_INIT;
        MOV     DPTR,#devState
        MOV     A,#0x1
        MOVX    @DPTR,A
//  368     
//  369     ZDO_StartDevice( (uint8)ZDO_Config_Node_Descriptor.LogicalType, devStartMode,   // ..., MODE_HARD
//  370                      DEFAULT_BEACON_ORDER, DEFAULT_SUPERFRAME_ORDER );  // 15, 15
        ; Setup parameters for call to function ZDO_StartDevice
        MOV     R4,#0xf
        MOV     R3,#0xf
        MOV     DPTR,#devStartMode
        MOVX    A,@DPTR
        MOV     R2,A
        MOV     DPTR,#ZDO_Config_Node_Descriptor
        MOVX    A,@DPTR
        ANL     A,#0x7
        MOV     R1,A
        LCALL   ??ZDO_StartDevice?relay
//  371 
//  372     // Return unprocessed events
//  373     return (events ^ ZDO_NETWORK_INIT);
        MOV     A,R6
        XRL     A,#0x1
??ZDApp_event_loop_2:
        MOV     R2,A
        MOV     A,R7
??ZDApp_event_loop_3:
        MOV     R3,A
        LJMP    ??ZDApp_event_loop_4 & 0xFFFF
//  374   }
??ZDApp_event_loop_5:
        ; Setup parameters for call to function ZDApp_ProcessOSALMsg
        LCALL   ??ZDApp_ProcessOSALMsg?relay
        ; Setup parameters for call to function osal_msg_deallocate
        MOV     R2,?V0 + 0
        MOV     R3,?V0 + 1
        LCALL   ??osal_msg_deallocate?relay
??ZDApp_event_loop_0:
        ; Setup parameters for call to function osal_msg_receive
        MOV     DPTR,#ZDAppTaskID
        MOVX    A,@DPTR
        MOV     R1,A
        LCALL   ??osal_msg_receive?relay
        MOV     ?V0 + 0,R2
        MOV     ?V0 + 1,R3
        MOV     R1,?V0 + 1
        MOV     A,R2
        ORL     A,R1
        JNZ     ??ZDApp_event_loop_5
        MOV     A,R6
        MOV     R2,A
        MOV     A,R7
        XRL     A,#0x80
        SJMP    ??ZDApp_event_loop_3
//  375 
//  376   if ( ZSTACK_ROUTER_BUILD )
??ZDApp_event_loop_1:
        MOV     DPTR,#zgDeviceLogicalType
        MOVX    A,@DPTR
        JZ      ??ZDApp_event_loop_6
        XRL     A,#0x1
        JNZ     ??ZDApp_event_loop_7
//  377   {
//  378     if ( events & ZDO_NETWORK_START )   // 0x0002, 
??ZDApp_event_loop_6:
        MOV     A,R6
        ANL     A,#0x2
        JZ      ??ZDApp_event_loop_8
//  379     {
//  380       ZDApp_NetworkStartEvt();
        ; Setup parameters for call to function ZDApp_NetworkStartEvt
        LCALL   ??ZDApp_NetworkStartEvt?relay
//  381   
//  382       // Return unprocessed events
//  383       return (events ^ ZDO_NETWORK_START);
        MOV     A,R6
        XRL     A,#0x2
??ZDApp_event_loop_9:
        SJMP    ??ZDApp_event_loop_2
//  384     }
//  385 
//  386     if ( events & ZDO_ROUTER_START )
??ZDApp_event_loop_8:
        MOV     A,R6
        ANL     A,#0x20
        JZ      ??ZDApp_event_loop_7
//  387     {
//  388       if ( nwkStatus == ZSuccess )
        MOV     DPTR,#nwkStatus
        MOVX    A,@DPTR
        JNZ     ??ZDApp_event_loop_10
//  389       {
//  390         if ( devState == DEV_END_DEVICE )
        MOV     DPTR,#devState
        MOVX    A,@DPTR
        XRL     A,#0x6
        JNZ     ??ZDApp_event_loop_11
//  391           devState = DEV_ROUTER;
        MOV     A,#0x7
        MOVX    @DPTR,A
//  392   
//  393         osal_pwrmgr_device( PWRMGR_ALWAYS_ON );
??ZDApp_event_loop_11:
        ; Setup parameters for call to function osal_pwrmgr_device
        MOV     R1,#0x0
        LCALL   ??osal_pwrmgr_device?relay
//  394       }
//  395       else
//  396       {
//  397         // remain as end device!!
//  398       }
//  399       osal_set_event( ZDAppTaskID, ZDO_STATE_CHANGE_EVT );
??ZDApp_event_loop_10:
        ; Setup parameters for call to function osal_set_event
        LCALL   ?Subroutine10 & 0xFFFF
//  400   
//  401       // Return unprocessed events
//  402       return (events ^ ZDO_ROUTER_START);
??CrossCallReturnLabel_45:
        MOV     A,R6
        XRL     A,#0x20
        SJMP    ??ZDApp_event_loop_2
//  403     }
//  404   }
//  405   
//  406   // ZDApp_NetworkStartEvt()  ZDApp_ProcessNetworkJoin()... 
//  407   //  ZDO_STATE_CHANGE_EVT ZDO 
//  408   if ( events & ZDO_STATE_CHANGE_EVT ) // 0x0010
??ZDApp_event_loop_7:
        MOV     A,R6
        ANL     A,#0x10
        JZ      ??ZDApp_event_loop_12
//  409   {
//  410     //  AF  aspi.c  SPAI_Init() afRegister(&sapi_epDesc) 
//  411     //  task_id spai_TaskID
//  412     //  ZDO_STATE_CHANGE 
//  413     //  SYS_EVENT_MSG 
//  414     // devState  ZDApp_ProcessOSALMsg()  DEV_END_DEVICE
//  415     // devState  ZDApp_NetworkStartEvt()  DEV_ZB_COORD
//  416     ZDO_UpdateNwkStatus( devState );
        ; Setup parameters for call to function ZDO_UpdateNwkStatus
        MOV     DPTR,#devState
        MOVX    A,@DPTR
        MOV     R1,A
        LCALL   ??ZDO_UpdateNwkStatus?relay
//  417     
//  418     // At start up, do one MTO route discovery if the device is a concentrator
//  419     if ( zgConcentratorEnable == TRUE ) //  false
        MOV     DPTR,#zgConcentratorEnable
        MOVX    A,@DPTR
        XRL     A,#0x1
        JNZ     ??CrossCallReturnLabel_67
//  420     {
//  421       // Start next event
//  422       osal_start_timerEx( NWK_TaskID, NWK_MTO_RTG_REQ_EVT, 100 );
        ; Setup parameters for call to function osal_start_timerEx
        MOV     R4,#0x64
        MOV     R5,#0x0
        MOV     R2,#0x0
        MOV     R3,#0x8
        MOV     DPTR,#NWK_TaskID
        LCALL   ??Subroutine30_0 & 0xFFFF
//  423     }
//  424     
//  425     // Return unprocessed events
//  426     return (events ^ ZDO_STATE_CHANGE_EVT);
??CrossCallReturnLabel_67:
        MOV     A,R6
        XRL     A,#0x10
        SJMP    ??ZDApp_event_loop_9
//  427   }
//  428 
//  429   if ( events & ZDO_COMMAND_CNF )
??ZDApp_event_loop_12:
        MOV     A,R6
        ANL     A,#0x8
        JZ      ??ZDApp_event_loop_13
//  430   {
//  431     // User defined logic
//  432 
//  433     // Return unprocessed events
//  434     return (events ^ ZDO_COMMAND_CNF);
        MOV     A,R6
        XRL     A,#0x8
        MOV     R2,A
        SJMP    ??ZDApp_event_loop_4
//  435   }
//  436   
//  437   if ( events & ZDO_NWK_UPDATE_NV )
??ZDApp_event_loop_13:
        MOV     A,R7
        ANL     A,#0x2
        JZ      ??ZDApp_event_loop_14
//  438   {
//  439     ZDApp_SaveNetworkStateEvt();
//  440 
//  441     // Return unprocessed events
//  442     return (events ^ ZDO_NWK_UPDATE_NV);
        MOV     A,R7
        XRL     A,#0x2
        LJMP    ??ZDApp_event_loop_3 & 0xFFFF
//  443   }
//  444 
//  445   if ( events & ZDO_DEVICE_RESET )
??ZDApp_event_loop_14:
        MOV     A,R6
        ANL     A,#0x4
        JZ      ??ZDApp_event_loop_15
//  446   {
//  447     // The device has been in the UNAUTH state, so reset
//  448     // Note: there will be no return from this call
//  449     SystemReset();
        CLR     0xa8.7
        MOV     0xc9,#-0x55
        MOV     0xc9,#0x5b
??ZDApp_event_loop_16:
        SJMP    ??ZDApp_event_loop_16
//  450   }
//  451 
//  452   if ( ZG_SECURE_ENABLED )
//  453   {
//  454     return ( ZDApp_ProcessSecEvent( task_id, events ) );
//  455   }
//  456   else
//  457   {
//  458     // Discard or make more handlers
//  459     return 0;
??ZDApp_event_loop_15:
        MOV     R2,#0x0
        MOV     R3,#0x0
//  460   }
??ZDApp_event_loop_4:
        LJMP    ??Subroutine35_0 & 0xFFFF
        CFI EndBlock cfiBlock2
        REQUIRE _A_IEN0
        REQUIRE WDCTL
//  461 }

        RSEG BANKED_CODE:CODE:NOROOT(0)
?Subroutine10:
        CFI Block cfiCond3 Using cfiCommon0
        CFI NoFunction
        CFI Conditional ??CrossCallReturnLabel_45
        CFI R6 load(1, XDATA, add(CFA_XSP16, literal(-10)))
        CFI VB load(1, XDATA, add(CFA_XSP16, literal(-9)))
        CFI V0 load(1, XDATA, add(CFA_XSP16, literal(-8)))
        CFI V1 load(1, XDATA, add(CFA_XSP16, literal(-7)))
        CFI R7 load(1, XDATA, add(CFA_XSP16, literal(-6)))
        CFI ?RET_LOW load(1, XDATA, add(CFA_XSP16, literal(-5)))
        CFI ?RET_HIGH load(1, XDATA, add(CFA_XSP16, literal(-4)))
        CFI ?BRET_EXT load(1, XDATA, add(CFA_XSP16, literal(-3)))
        CFI DPL0 load(1, XDATA, add(CFA_XSP16, literal(-2)))
        CFI DPH0 load(1, XDATA, add(CFA_XSP16, literal(-1)))
        CFI CFA_SP SP+0
        CFI CFA_XSP16 add(XSP16, 10)
        CFI Block cfiCond4 Using cfiCommon0
        CFI (cfiCond4) NoFunction
        CFI (cfiCond4) Conditional ??CrossCallReturnLabel_46
        CFI (cfiCond4) R6 load(1, XDATA, add(CFA_XSP16, literal(-10)))
        CFI (cfiCond4) VB load(1, XDATA, add(CFA_XSP16, literal(-9)))
        CFI (cfiCond4) V0 load(1, XDATA, add(CFA_XSP16, literal(-8)))
        CFI (cfiCond4) V1 load(1, XDATA, add(CFA_XSP16, literal(-7)))
        CFI (cfiCond4) R7 load(1, XDATA, add(CFA_XSP16, literal(-6)))
        CFI (cfiCond4) ?RET_LOW load(1, XDATA, add(CFA_XSP16, literal(-5)))
        CFI (cfiCond4) ?RET_HIGH load(1, XDATA, add(CFA_XSP16, literal(-4)))
        CFI (cfiCond4) ?BRET_EXT load(1, XDATA, add(CFA_XSP16, literal(-3)))
        CFI (cfiCond4) DPL0 load(1, XDATA, add(CFA_XSP16, literal(-2)))
        CFI (cfiCond4) DPH0 load(1, XDATA, add(CFA_XSP16, literal(-1)))
        CFI (cfiCond4) CFA_SP SP+0
        CFI (cfiCond4) CFA_XSP16 add(XSP16, 12)
        CFI Block cfiCond5 Using cfiCommon0
        CFI (cfiCond5) NoFunction
        CFI (cfiCond5) Conditional ??CrossCallReturnLabel_47
        CFI (cfiCond5) R6 load(1, XDATA, add(CFA_XSP16, literal(-10)))
        CFI (cfiCond5) VB load(1, XDATA, add(CFA_XSP16, literal(-9)))
        CFI (cfiCond5) V0 load(1, XDATA, add(CFA_XSP16, literal(-8)))
        CFI (cfiCond5) V1 load(1, XDATA, add(CFA_XSP16, literal(-7)))
        CFI (cfiCond5) R7 load(1, XDATA, add(CFA_XSP16, literal(-6)))
        CFI (cfiCond5) ?RET_LOW load(1, XDATA, add(CFA_XSP16, literal(-5)))
        CFI (cfiCond5) ?RET_HIGH load(1, XDATA, add(CFA_XSP16, literal(-4)))
        CFI (cfiCond5) ?BRET_EXT load(1, XDATA, add(CFA_XSP16, literal(-3)))
        CFI (cfiCond5) DPL0 load(1, XDATA, add(CFA_XSP16, literal(-2)))
        CFI (cfiCond5) DPH0 load(1, XDATA, add(CFA_XSP16, literal(-1)))
        CFI (cfiCond5) CFA_SP SP+0
        CFI (cfiCond5) CFA_XSP16 add(XSP16, 12)
        CFI Block cfiCond6 Using cfiCommon0
        CFI (cfiCond6) NoFunction
        CFI (cfiCond6) Conditional ??CrossCallReturnLabel_48
        CFI (cfiCond6) DPL0 Frame(CFA_SP, 4)
        CFI (cfiCond6) DPH0 Frame(CFA_SP, 5)
        CFI (cfiCond6) CFA_SP SP+-5
        CFI Block cfiPicker7 Using cfiCommon1
        CFI (cfiPicker7) NoFunction
        CFI (cfiPicker7) Picker
        MOV     R2,#0x10
        CFI EndBlock cfiCond3
        CFI EndBlock cfiCond4
        CFI EndBlock cfiCond5
        CFI EndBlock cfiCond6
        CFI EndBlock cfiPicker7
        REQUIRE ??Subroutine27_0
        ; // Fall through to label ??Subroutine27_0

        RSEG BANKED_CODE:CODE:NOROOT(0)
??Subroutine27_0:
        CFI Block cfiCond8 Using cfiCommon0
        CFI NoFunction
        CFI Conditional ??CrossCallReturnLabel_49
        CFI DPL0 Frame(CFA_SP, 4)
        CFI DPH0 Frame(CFA_SP, 5)
        CFI CFA_SP SP+-5
        CFI Block cfiCond9 Using cfiCommon0
        CFI (cfiCond9) NoFunction
        CFI (cfiCond9) Conditional ??CrossCallReturnLabel_50
        CFI (cfiCond9) R6 load(1, XDATA, add(CFA_XSP16, literal(-9)))
        CFI (cfiCond9) VB load(1, XDATA, add(CFA_XSP16, literal(-8)))
        CFI (cfiCond9) V0 load(1, XDATA, add(CFA_XSP16, literal(-7)))
        CFI (cfiCond9) R7 load(1, XDATA, add(CFA_XSP16, literal(-6)))
        CFI (cfiCond9) ?RET_LOW load(1, XDATA, add(CFA_XSP16, literal(-5)))
        CFI (cfiCond9) ?RET_HIGH load(1, XDATA, add(CFA_XSP16, literal(-4)))
        CFI (cfiCond9) ?BRET_EXT load(1, XDATA, add(CFA_XSP16, literal(-3)))
        CFI (cfiCond9) DPL0 load(1, XDATA, add(CFA_XSP16, literal(-2)))
        CFI (cfiCond9) DPH0 load(1, XDATA, add(CFA_XSP16, literal(-1)))
        CFI (cfiCond9) CFA_SP SP+0
        CFI (cfiCond9) CFA_XSP16 add(XSP16, 9)
        CFI Block cfiCond10 Using cfiCommon0
        CFI (cfiCond10) NoFunction
        CFI (cfiCond10) Conditional ??CrossCallReturnLabel_51
        CFI (cfiCond10) R6 load(1, XDATA, add(CFA_XSP16, literal(-9)))
        CFI (cfiCond10) VB load(1, XDATA, add(CFA_XSP16, literal(-8)))
        CFI (cfiCond10) V0 load(1, XDATA, add(CFA_XSP16, literal(-7)))
        CFI (cfiCond10) R7 load(1, XDATA, add(CFA_XSP16, literal(-6)))
        CFI (cfiCond10) ?RET_LOW load(1, XDATA, add(CFA_XSP16, literal(-5)))
        CFI (cfiCond10) ?RET_HIGH load(1, XDATA, add(CFA_XSP16, literal(-4)))
        CFI (cfiCond10) ?BRET_EXT load(1, XDATA, add(CFA_XSP16, literal(-3)))
        CFI (cfiCond10) DPL0 load(1, XDATA, add(CFA_XSP16, literal(-2)))
        CFI (cfiCond10) DPH0 load(1, XDATA, add(CFA_XSP16, literal(-1)))
        CFI (cfiCond10) CFA_SP SP+0
        CFI (cfiCond10) CFA_XSP16 add(XSP16, 9)
        CFI Block cfiCond11 Using cfiCommon0
        CFI (cfiCond11) NoFunction
        CFI (cfiCond11) Conditional ??CrossCallReturnLabel_52
        CFI (cfiCond11) DPL0 Frame(CFA_SP, 4)
        CFI (cfiCond11) DPH0 Frame(CFA_SP, 5)
        CFI (cfiCond11) CFA_SP SP+-5
        CFI Block cfiCond12 Using cfiCommon0
        CFI (cfiCond12) NoFunction
        CFI (cfiCond12) Conditional ??CrossCallReturnLabel_45
        CFI (cfiCond12) R6 load(1, XDATA, add(CFA_XSP16, literal(-10)))
        CFI (cfiCond12) VB load(1, XDATA, add(CFA_XSP16, literal(-9)))
        CFI (cfiCond12) V0 load(1, XDATA, add(CFA_XSP16, literal(-8)))
        CFI (cfiCond12) V1 load(1, XDATA, add(CFA_XSP16, literal(-7)))
        CFI (cfiCond12) R7 load(1, XDATA, add(CFA_XSP16, literal(-6)))
        CFI (cfiCond12) ?RET_LOW load(1, XDATA, add(CFA_XSP16, literal(-5)))
        CFI (cfiCond12) ?RET_HIGH load(1, XDATA, add(CFA_XSP16, literal(-4)))
        CFI (cfiCond12) ?BRET_EXT load(1, XDATA, add(CFA_XSP16, literal(-3)))
        CFI (cfiCond12) DPL0 load(1, XDATA, add(CFA_XSP16, literal(-2)))
        CFI (cfiCond12) DPH0 load(1, XDATA, add(CFA_XSP16, literal(-1)))
        CFI (cfiCond12) CFA_SP SP+0
        CFI (cfiCond12) CFA_XSP16 add(XSP16, 10)
        CFI Block cfiCond13 Using cfiCommon0
        CFI (cfiCond13) NoFunction
        CFI (cfiCond13) Conditional ??CrossCallReturnLabel_46
        CFI (cfiCond13) R6 load(1, XDATA, add(CFA_XSP16, literal(-10)))
        CFI (cfiCond13) VB load(1, XDATA, add(CFA_XSP16, literal(-9)))
        CFI (cfiCond13) V0 load(1, XDATA, add(CFA_XSP16, literal(-8)))
        CFI (cfiCond13) V1 load(1, XDATA, add(CFA_XSP16, literal(-7)))
        CFI (cfiCond13) R7 load(1, XDATA, add(CFA_XSP16, literal(-6)))
        CFI (cfiCond13) ?RET_LOW load(1, XDATA, add(CFA_XSP16, literal(-5)))
        CFI (cfiCond13) ?RET_HIGH load(1, XDATA, add(CFA_XSP16, literal(-4)))
        CFI (cfiCond13) ?BRET_EXT load(1, XDATA, add(CFA_XSP16, literal(-3)))
        CFI (cfiCond13) DPL0 load(1, XDATA, add(CFA_XSP16, literal(-2)))
        CFI (cfiCond13) DPH0 load(1, XDATA, add(CFA_XSP16, literal(-1)))
        CFI (cfiCond13) CFA_SP SP+0
        CFI (cfiCond13) CFA_XSP16 add(XSP16, 12)
        CFI Block cfiCond14 Using cfiCommon0
        CFI (cfiCond14) NoFunction
        CFI (cfiCond14) Conditional ??CrossCallReturnLabel_47
        CFI (cfiCond14) R6 load(1, XDATA, add(CFA_XSP16, literal(-10)))
        CFI (cfiCond14) VB load(1, XDATA, add(CFA_XSP16, literal(-9)))
        CFI (cfiCond14) V0 load(1, XDATA, add(CFA_XSP16, literal(-8)))
        CFI (cfiCond14) V1 load(1, XDATA, add(CFA_XSP16, literal(-7)))
        CFI (cfiCond14) R7 load(1, XDATA, add(CFA_XSP16, literal(-6)))
        CFI (cfiCond14) ?RET_LOW load(1, XDATA, add(CFA_XSP16, literal(-5)))
        CFI (cfiCond14) ?RET_HIGH load(1, XDATA, add(CFA_XSP16, literal(-4)))
        CFI (cfiCond14) ?BRET_EXT load(1, XDATA, add(CFA_XSP16, literal(-3)))
        CFI (cfiCond14) DPL0 load(1, XDATA, add(CFA_XSP16, literal(-2)))
        CFI (cfiCond14) DPH0 load(1, XDATA, add(CFA_XSP16, literal(-1)))
        CFI (cfiCond14) CFA_SP SP+0
        CFI (cfiCond14) CFA_XSP16 add(XSP16, 12)
        CFI Block cfiCond15 Using cfiCommon0
        CFI (cfiCond15) NoFunction
        CFI (cfiCond15) Conditional ??CrossCallReturnLabel_48
        CFI (cfiCond15) DPL0 Frame(CFA_SP, 4)
        CFI (cfiCond15) DPH0 Frame(CFA_SP, 5)
        CFI (cfiCond15) CFA_SP SP+-5
        CFI Block cfiPicker16 Using cfiCommon1
        CFI (cfiPicker16) NoFunction
        CFI (cfiPicker16) Picker
        MOV     R3,#0x0
        MOV     DPTR,#ZDAppTaskID
        MOVX    A,@DPTR
        MOV     R1,A
        LCALL   ??osal_set_event?relay
        RET
        CFI EndBlock cfiCond8
        CFI EndBlock cfiCond9
        CFI EndBlock cfiCond10
        CFI EndBlock cfiCond11
        CFI EndBlock cfiCond12
        CFI EndBlock cfiCond13
        CFI EndBlock cfiCond14
        CFI EndBlock cfiCond15
        CFI EndBlock cfiPicker16
//  462 
//  463 /*********************************************************************
//  464  * @fn      ZDApp_ProcessSecEvent()
//  465  *
//  466  * @brief   Process incoming security events.
//  467  *
//  468  * @param   task_id - Task ID
//  469  * @param   events  - Bitmap of events
//  470  *
//  471  * @return  none
//  472  */

        RSEG BANKED_CODE:CODE:NOROOT(0)
//  473 UINT16 ZDApp_ProcessSecEvent( uint8 task_id, UINT16 events )
ZDApp_ProcessSecEvent:
        CFI Block cfiBlock17 Using cfiCommon0
        CFI Function ZDApp_ProcessSecEvent
        CODE
//  474 {
        FUNCALL ZDApp_ProcessSecEvent, ZDSecMgrNewDeviceEvent
        LOCFRAME ISTACK, 0, STACK
        LOCFRAME PSTACK, 0, STACK
        LOCFRAME XSTACK, 9, STACK
        LOCFRAME IOVERLAY, 0, STATIC
        LOCFRAME DOVERLAY, 0, STATIC
        ARGFRAME ISTACK, 0, STACK
        ARGFRAME PSTACK, 0, STACK
        ARGFRAME XSTACK, 9, STACK
        ARGFRAME IOVERLAY, 0, STATIC
        ARGFRAME DOVERLAY, 0, STATIC
        FUNCALL ZDApp_ProcessSecEvent, osal_start_timerEx
        LOCFRAME ISTACK, 0, STACK
        LOCFRAME PSTACK, 0, STACK
        LOCFRAME XSTACK, 9, STACK
        LOCFRAME IOVERLAY, 0, STATIC
        LOCFRAME DOVERLAY, 0, STATIC
        ARGFRAME ISTACK, 0, STACK
        ARGFRAME PSTACK, 0, STACK
        ARGFRAME XSTACK, 9, STACK
        ARGFRAME IOVERLAY, 0, STATIC
        ARGFRAME DOVERLAY, 0, STATIC
        FUNCALL ZDApp_ProcessSecEvent, ZDApp_DeviceAuthEvt
        LOCFRAME ISTACK, 0, STACK
        LOCFRAME PSTACK, 0, STACK
        LOCFRAME XSTACK, 9, STACK
        LOCFRAME IOVERLAY, 0, STATIC
        LOCFRAME DOVERLAY, 0, STATIC
        ARGFRAME ISTACK, 0, STACK
        ARGFRAME PSTACK, 0, STACK
        ARGFRAME XSTACK, 9, STACK
        ARGFRAME IOVERLAY, 0, STATIC
        ARGFRAME DOVERLAY, 0, STATIC
        FUNCALL ZDApp_ProcessSecEvent, ZDApp_SaveNwkKey
        LOCFRAME ISTACK, 0, STACK
        LOCFRAME PSTACK, 0, STACK
        LOCFRAME XSTACK, 9, STACK
        LOCFRAME IOVERLAY, 0, STATIC
        LOCFRAME DOVERLAY, 0, STATIC
        ARGFRAME ISTACK, 0, STACK
        ARGFRAME PSTACK, 0, STACK
        ARGFRAME XSTACK, 9, STACK
        ARGFRAME IOVERLAY, 0, STATIC
        ARGFRAME DOVERLAY, 0, STATIC
        MOV     A,#-0x9
        LCALL   ?BANKED_ENTER_XDATA
        CFI DPH0 load(1, XDATA, add(CFA_XSP16, literal(-1)))
        CFI DPL0 load(1, XDATA, add(CFA_XSP16, literal(-2)))
        CFI ?BRET_EXT load(1, XDATA, add(CFA_XSP16, literal(-3)))
        CFI ?RET_HIGH load(1, XDATA, add(CFA_XSP16, literal(-4)))
        CFI ?RET_LOW load(1, XDATA, add(CFA_XSP16, literal(-5)))
        CFI R7 load(1, XDATA, add(CFA_XSP16, literal(-6)))
        CFI V0 load(1, XDATA, add(CFA_XSP16, literal(-7)))
        CFI VB load(1, XDATA, add(CFA_XSP16, literal(-8)))
        CFI R6 load(1, XDATA, add(CFA_XSP16, literal(-9)))
        CFI CFA_SP SP+0
        CFI CFA_XSP16 add(XSP16, 9)
        ; Saved register size: 9
        ; Auto size: 0
        MOV     A,R2
        MOV     R6,A
        MOV     A,R3
        MOV     R7,A
//  475   (void)task_id;  // Intentionally unreferenced parameter
//  476   
//  477   if ( ZSTACK_ROUTER_BUILD )
        MOV     DPTR,#zgDeviceLogicalType
        MOVX    A,@DPTR
        JZ      ??ZDApp_ProcessSecEvent_0
        XRL     A,#0x1
        JNZ     ??ZDApp_ProcessSecEvent_1
//  478   {
//  479     if ( events & ZDO_NEW_DEVICE )
??ZDApp_ProcessSecEvent_0:
        MOV     A,R6
        ANL     A,#0x40
        JZ      ??ZDApp_ProcessSecEvent_1
//  480     {
//  481       // process the new device event
//  482       if ( ZDSecMgrNewDeviceEvent() == TRUE )
        ; Setup parameters for call to function ZDSecMgrNewDeviceEvent
        LCALL   ??ZDSecMgrNewDeviceEvent?relay
        MOV     A,R1
        XRL     A,#0x1
        JNZ     ??CrossCallReturnLabel_64
//  483       {
//  484         osal_start_timerEx( ZDAppTaskID, ZDO_NEW_DEVICE, 1000 );
        ; Setup parameters for call to function osal_start_timerEx
        MOV     R4,#-0x18
        MOV     R5,#0x3
        MOV     R2,#0x40
        LCALL   ?Subroutine15 & 0xFFFF
//  485       }
//  486 
//  487       // Return unprocessed events
//  488       return (events ^ ZDO_NEW_DEVICE);
??CrossCallReturnLabel_64:
        MOV     A,R6
        XRL     A,#0x40
??ZDApp_ProcessSecEvent_2:
        MOV     R2,A
        MOV     A,R7
        MOV     R3,A
        SJMP    ??ZDApp_ProcessSecEvent_3
//  489     }
//  490   }
//  491 
//  492   if ( (ZG_CHECK_SECURITY_MODE == ZG_SECURITY_PRO_HIGH) 
//  493       || (ZG_CHECK_SECURITY_MODE == ZG_SECURITY_SE_STANDARD) )
//  494   {
//  495     if ( ZG_BUILD_COORDINATOR_TYPE && ZG_DEVICE_COORDINATOR_TYPE )
//  496     { 
//  497       if ( events & ZDO_SECMGR_EVENT )
//  498       {
//  499         ZDSecMgrEvent();
//  500 
//  501         // Return unprocessed events
//  502         return (events ^ ZDO_SECMGR_EVENT);
//  503       }
//  504     }
//  505   }
//  506   
//  507   if ( events & ZDO_DEVICE_AUTH )
??ZDApp_ProcessSecEvent_1:
        MOV     A,R6
        ANL     A,#0x80
        JZ      ??ZDApp_ProcessSecEvent_4
//  508   {
//  509     ZDApp_DeviceAuthEvt();
        ; Setup parameters for call to function ZDApp_DeviceAuthEvt
        LCALL   ??ZDApp_DeviceAuthEvt?relay
//  510 
//  511     // Return unprocessed events
//  512     return (events ^ ZDO_DEVICE_AUTH);
        MOV     A,R6
        XRL     A,#0x80
        SJMP    ??ZDApp_ProcessSecEvent_2
//  513   }
//  514 
//  515   if ( events & ZDO_FRAMECOUNTER_CHANGE )
??ZDApp_ProcessSecEvent_4:
        MOV     A,R7
        ANL     A,#0x4
        JZ      ??ZDApp_ProcessSecEvent_5
//  516   {
//  517     if ( nwkFrameCounterChanges++ > MAX_NWK_FRAMECOUNTER_CHANGES )
        MOV     DPTR,#nwkFrameCounterChanges
        LCALL   ?Subroutine26 & 0xFFFF
??CrossCallReturnLabel_41:
        MOV     A,R0
        ADD     A,#0x1
        MOV     R2,A
        MOV     A,R1
        ADDC    A,#0x0
        MOV     R3,A
        MOV     DPTR,#nwkFrameCounterChanges
        LCALL   ??Subroutine36_0 & 0xFFFF
??CrossCallReturnLabel_74:
        CLR     C
        MOV     A,R0
        SUBB    A,#-0x17
        MOV     A,R1
        SUBB    A,#0x3
        JC      ??ZDApp_ProcessSecEvent_6
//  518       ZDApp_SaveNwkKey();
        ; Setup parameters for call to function ZDApp_SaveNwkKey
        LCALL   ??ZDApp_SaveNwkKey?relay
//  519 
//  520     // Return unprocessed events
//  521     return (events ^ ZDO_FRAMECOUNTER_CHANGE);
??ZDApp_ProcessSecEvent_6:
        MOV     A,R6
        MOV     R2,A
        MOV     A,R7
        XRL     A,#0x4
        MOV     R3,A
        SJMP    ??ZDApp_ProcessSecEvent_3
//  522   }
//  523   
//  524   // Discard or make more handlers
//  525   return 0;
??ZDApp_ProcessSecEvent_5:
        MOV     R2,#0x0
        MOV     R3,#0x0
??ZDApp_ProcessSecEvent_3:
        LJMP    ??Subroutine31_0 & 0xFFFF
        CFI EndBlock cfiBlock17
//  526 }
//  527 
//  528 /*********************************************************************
//  529  * Application Functions
//  530  */
//  531 
//  532 /*********************************************************************
//  533  * @fn      ZDOInitDevice
//  534  *
//  535  * @brief   Start the device in the network.  This function will read
//  536  *   ZCD_NV_STARTUP_OPTION (NV item) to determine whether or not to
//  537  *   restore the network state of the device.
//  538  *
//  539  * @param   startDelay - timeDelay to start device (in milliseconds).
//  540  *      There is a jitter added to this delay:
//  541  *              ((NWK_START_DELAY + startDelay)
//  542  *              + (osal_rand() & EXTENDED_JOINING_RANDOM_MASK))
//  543  *
//  544  * NOTE:    If the application would like to force a "new" join, the
//  545  *          application should set the ZCD_STARTOPT_DEFAULT_NETWORK_STATE
//  546  *          bit in the ZCD_NV_STARTUP_OPTION NV item before calling
//  547  *          this function. "new" join means to not restore the network
//  548  *          state of the device. Use zgWriteStartupOptions() to set these
//  549  *          options.
//  550  *
//  551  * @return
//  552  *    ZDO_INITDEV_RESTORED_NETWORK_STATE  - The device's network state was
//  553  *          restored.
//  554  *    ZDO_INITDEV_NEW_NETWORK_STATE - The network state was initialized.
//  555  *          This could mean that ZCD_NV_STARTUP_OPTION said to not restore, or
//  556  *          it could mean that there was no network state to restore.
//  557  *    ZDO_INITDEV_LEAVE_NOT_STARTED - Before the reset, a network leave was issued
//  558  *          with the rejoin option set to TRUE.  So, the device was not
//  559  *          started in the network (one time only).  The next time this
//  560  *          function is called it will start.
//  561  */

        RSEG BANKED_CODE:CODE:NOROOT(0)
//  562 uint8 ZDOInitDevice( uint16 startDelay )
ZDOInitDevice:
        CFI Block cfiBlock18 Using cfiCommon0
        CFI Function ZDOInitDevice
        CODE
//  563 {
        FUNCALL ZDOInitDevice, zgInitItems
        LOCFRAME ISTACK, 0, STACK
        LOCFRAME PSTACK, 0, STACK
        LOCFRAME XSTACK, 12, STACK
        LOCFRAME IOVERLAY, 0, STATIC
        LOCFRAME DOVERLAY, 0, STATIC
        ARGFRAME ISTACK, 0, STACK
        ARGFRAME PSTACK, 0, STACK
        ARGFRAME XSTACK, 12, STACK
        ARGFRAME IOVERLAY, 0, STATIC
        ARGFRAME DOVERLAY, 0, STATIC
        FUNCALL ZDOInitDevice, ZDConfig_InitDescriptors
        LOCFRAME ISTACK, 0, STACK
        LOCFRAME PSTACK, 0, STACK
        LOCFRAME XSTACK, 12, STACK
        LOCFRAME IOVERLAY, 0, STATIC
        LOCFRAME DOVERLAY, 0, STATIC
        ARGFRAME ISTACK, 0, STACK
        ARGFRAME PSTACK, 0, STACK
        ARGFRAME XSTACK, 12, STACK
        ARGFRAME IOVERLAY, 0, STATIC
        ARGFRAME DOVERLAY, 0, STATIC
        FUNCALL ZDOInitDevice, ZDApp_LeaveCtrlInit
        LOCFRAME ISTACK, 0, STACK
        LOCFRAME PSTACK, 0, STACK
        LOCFRAME XSTACK, 12, STACK
        LOCFRAME IOVERLAY, 0, STATIC
        LOCFRAME DOVERLAY, 0, STATIC
        ARGFRAME ISTACK, 0, STACK
        ARGFRAME PSTACK, 0, STACK
        ARGFRAME XSTACK, 12, STACK
        ARGFRAME IOVERLAY, 0, STATIC
        ARGFRAME DOVERLAY, 0, STATIC
        FUNCALL ZDOInitDevice, ZDApp_LeaveCtrlStartup
        LOCFRAME ISTACK, 0, STACK
        LOCFRAME PSTACK, 0, STACK
        LOCFRAME XSTACK, 12, STACK
        LOCFRAME IOVERLAY, 0, STATIC
        LOCFRAME DOVERLAY, 0, STATIC
        ARGFRAME ISTACK, 0, STACK
        ARGFRAME PSTACK, 0, STACK
        ARGFRAME XSTACK, 12, STACK
        ARGFRAME IOVERLAY, 0, STATIC
        ARGFRAME DOVERLAY, 0, STATIC
        FUNCALL ZDOInitDevice, zgWriteStartupOptions
        LOCFRAME ISTACK, 0, STACK
        LOCFRAME PSTACK, 0, STACK
        LOCFRAME XSTACK, 12, STACK
        LOCFRAME IOVERLAY, 0, STATIC
        LOCFRAME DOVERLAY, 0, STATIC
        ARGFRAME ISTACK, 0, STACK
        ARGFRAME PSTACK, 0, STACK
        ARGFRAME XSTACK, 12, STACK
        ARGFRAME IOVERLAY, 0, STATIC
        ARGFRAME DOVERLAY, 0, STATIC
        FUNCALL ZDOInitDevice, osal_set_event
        LOCFRAME ISTACK, 0, STACK
        LOCFRAME PSTACK, 0, STACK
        LOCFRAME XSTACK, 12, STACK
        LOCFRAME IOVERLAY, 0, STATIC
        LOCFRAME DOVERLAY, 0, STATIC
        ARGFRAME ISTACK, 0, STACK
        ARGFRAME PSTACK, 0, STACK
        ARGFRAME XSTACK, 12, STACK
        ARGFRAME IOVERLAY, 0, STATIC
        ARGFRAME DOVERLAY, 0, STATIC
        FUNCALL ZDOInitDevice, ZDAppDetermineDeviceType
        LOCFRAME ISTACK, 0, STACK
        LOCFRAME PSTACK, 0, STACK
        LOCFRAME XSTACK, 12, STACK
        LOCFRAME IOVERLAY, 0, STATIC
        LOCFRAME DOVERLAY, 0, STATIC
        ARGFRAME ISTACK, 0, STACK
        ARGFRAME PSTACK, 0, STACK
        ARGFRAME XSTACK, 12, STACK
        ARGFRAME IOVERLAY, 0, STATIC
        ARGFRAME DOVERLAY, 0, STATIC
        FUNCALL ZDOInitDevice, osal_rand
        LOCFRAME ISTACK, 0, STACK
        LOCFRAME PSTACK, 0, STACK
        LOCFRAME XSTACK, 12, STACK
        LOCFRAME IOVERLAY, 0, STATIC
        LOCFRAME DOVERLAY, 0, STATIC
        ARGFRAME ISTACK, 0, STACK
        ARGFRAME PSTACK, 0, STACK
        ARGFRAME XSTACK, 12, STACK
        ARGFRAME IOVERLAY, 0, STATIC
        ARGFRAME DOVERLAY, 0, STATIC
        FUNCALL ZDOInitDevice, ZDSecMgrInit
        LOCFRAME ISTACK, 0, STACK
        LOCFRAME PSTACK, 0, STACK
        LOCFRAME XSTACK, 12, STACK
        LOCFRAME IOVERLAY, 0, STATIC
        LOCFRAME DOVERLAY, 0, STATIC
        ARGFRAME ISTACK, 0, STACK
        ARGFRAME PSTACK, 0, STACK
        ARGFRAME XSTACK, 12, STACK
        ARGFRAME IOVERLAY, 0, STATIC
        ARGFRAME DOVERLAY, 0, STATIC
        FUNCALL ZDOInitDevice, ZDApp_NetworkInit
        LOCFRAME ISTACK, 0, STACK
        LOCFRAME PSTACK, 0, STACK
        LOCFRAME XSTACK, 12, STACK
        LOCFRAME IOVERLAY, 0, STATIC
        LOCFRAME DOVERLAY, 0, STATIC
        ARGFRAME ISTACK, 0, STACK
        ARGFRAME PSTACK, 0, STACK
        ARGFRAME XSTACK, 12, STACK
        ARGFRAME IOVERLAY, 0, STATIC
        ARGFRAME DOVERLAY, 0, STATIC
        FUNCALL ZDOInitDevice, NLME_SetBroadcastFilter
        LOCFRAME ISTACK, 0, STACK
        LOCFRAME PSTACK, 0, STACK
        LOCFRAME XSTACK, 12, STACK
        LOCFRAME IOVERLAY, 0, STATIC
        LOCFRAME DOVERLAY, 0, STATIC
        ARGFRAME ISTACK, 0, STACK
        ARGFRAME PSTACK, 0, STACK
        ARGFRAME XSTACK, 12, STACK
        ARGFRAME IOVERLAY, 0, STATIC
        ARGFRAME DOVERLAY, 0, STATIC
        MOV     A,#-0xa
        LCALL   ?BANKED_ENTER_XDATA
        CFI DPH0 load(1, XDATA, add(CFA_XSP16, literal(-1)))
        CFI DPL0 load(1, XDATA, add(CFA_XSP16, literal(-2)))
        CFI ?BRET_EXT load(1, XDATA, add(CFA_XSP16, literal(-3)))
        CFI ?RET_HIGH load(1, XDATA, add(CFA_XSP16, literal(-4)))
        CFI ?RET_LOW load(1, XDATA, add(CFA_XSP16, literal(-5)))
        CFI R7 load(1, XDATA, add(CFA_XSP16, literal(-6)))
        CFI V1 load(1, XDATA, add(CFA_XSP16, literal(-7)))
        CFI V0 load(1, XDATA, add(CFA_XSP16, literal(-8)))
        CFI VB load(1, XDATA, add(CFA_XSP16, literal(-9)))
        CFI R6 load(1, XDATA, add(CFA_XSP16, literal(-10)))
        CFI CFA_SP SP+0
        CFI CFA_XSP16 add(XSP16, 10)
        ; Saved register size: 10
        ; Auto size: 2
        MOV     A,#-0x2
        LCALL   ?ALLOC_XSTACK8
        CFI CFA_XSP16 add(XSP16, 12)
        LCALL   ?Subroutine8 & 0xFFFF
//  564   uint8 networkStateNV = ZDO_INITDEV_NEW_NETWORK_STATE;
//  565   uint16 extendedDelay = 0;
//  566 
//  567   //  IAR HOLD_AUTO_START
//  568   //  devState  DEV_HOLD DEV_INIT
//  569   if ( devState == DEV_HOLD ) 
??CrossCallReturnLabel_78:
        MOV     DPTR,#devState
        MOVX    A,@DPTR
        JNZ     ??ZDOInitDevice_0
//  570   {    
//  571     // Initialize the RAM items table, in case an NV item has been updated.
//  572     zgInitItems( FALSE );
        ; Setup parameters for call to function zgInitItems
        MOV     R1,#0x0
        LCALL   ??zgInitItems?relay
//  573   }
//  574 
//  575   ZDConfig_InitDescriptors();   //  ZDO node  power
??ZDOInitDevice_0:
        ; Setup parameters for call to function ZDConfig_InitDescriptors
        LCALL   ??ZDConfig_InitDescriptors?relay
//  576   //devtag.071807.todo - fix this temporary solution
//  577   _NIB.CapabilityInfo = ZDO_Config_Node_Descriptor.CapabilityFlags;
        MOV     DPTR,#ZDO_Config_Node_Descriptor + 2
        MOVX    A,@DPTR
        MOV     DPTR,#_NIB + 14
        MOVX    @DPTR,A
//  578   
//  579   devState = DEV_INIT;    // Remove the Hold state
        MOV     DPTR,#devState
        MOV     A,#0x1
        MOVX    @DPTR,A
//  580 
//  581   // Initialize leave control logic
//  582   ZDApp_LeaveCtrlInit();
        ; Setup parameters for call to function ZDApp_LeaveCtrlInit
        LCALL   ??ZDApp_LeaveCtrlInit?relay
//  583 
//  584   // Check leave control reset settings
//  585   ZDApp_LeaveCtrlStartup( &devState, &startDelay );
        ; Setup parameters for call to function ZDApp_LeaveCtrlStartup
        MOV     DPL,?XSP + 0
        MOV     DPH,?XSP + 1
        MOV     R4,DPL
        MOV     R5,DPH
        MOV     R2,#devState & 0xff
        MOV     R3,#(devState >> 8) & 0xff
        LCALL   ??ZDApp_LeaveCtrlStartup?relay
//  586 
//  587   // Leave may make the hold state come back
//  588   if ( devState == DEV_HOLD )
        MOV     DPTR,#devState
        MOVX    A,@DPTR
        JNZ     ??ZDOInitDevice_1
//  589   {
//  590     // Set the NV startup option to force a "new" join.
//  591     zgWriteStartupOptions( ZG_STARTUP_SET, ZCD_STARTOPT_DEFAULT_NETWORK_STATE );	// 0xFF, 0x02
        ; Setup parameters for call to function zgWriteStartupOptions
        MOV     R2,#0x2
        MOV     R1,#-0x1
        LCALL   ??zgWriteStartupOptions?relay
//  592 
//  593     // Notify the applications 
//  594     osal_set_event( ZDAppTaskID, ZDO_STATE_CHANGE_EVT );
        ; Setup parameters for call to function osal_set_event
        LCALL   ?Subroutine10 & 0xFFFF
//  595     
//  596     return ( ZDO_INITDEV_LEAVE_NOT_STARTED );   // Don't join - (one time).
??CrossCallReturnLabel_46:
        MOV     R1,#0x2
        SJMP    ??ZDOInitDevice_2
//  597   }
//  598 
//  599 #if defined ( NV_RESTORE )
//  600   // Get Keypad directly to see if a reset nv is needed.
//  601   // Hold down the SW_BYPASS_NV key (defined in OnBoard.h)
//  602   // while booting to skip past NV Restore.
//  603   if ( HalKeyRead() == SW_BYPASS_NV )
//  604     networkStateNV = ZDO_INITDEV_NEW_NETWORK_STATE;
//  605   else
//  606   {
//  607     // Determine if NV should be restored
//  608     networkStateNV = ZDApp_ReadNetworkRestoreState();
//  609   }
//  610 
//  611   if ( networkStateNV == ZDO_INITDEV_RESTORED_NETWORK_STATE )
//  612   {
//  613     networkStateNV = ZDApp_RestoreNetworkState();
//  614   }
//  615   else
//  616   {
//  617     // Wipe out the network state in NV
//  618     NLME_InitNV();
//  619     NLME_SetDefaultNV();
//  620   }
//  621 #endif
//  622 
//  623   if ( networkStateNV == ZDO_INITDEV_NEW_NETWORK_STATE )
//  624   {
//  625     ZDAppDetermineDeviceType();
??ZDOInitDevice_1:
        ; Setup parameters for call to function ZDAppDetermineDeviceType
        LCALL   ??ZDAppDetermineDeviceType?relay
//  626 
//  627     // Only delay if joining network - not restoring network state
//  628     extendedDelay = (uint16)((NWK_START_DELAY + startDelay)	// 100 + startDelay
//  629               + (osal_rand() & EXTENDED_JOINING_RANDOM_MASK));	// random + 127
        ; Setup parameters for call to function osal_rand
        LCALL   ??osal_rand?relay
        MOV     DPL,?XSP + 0
        MOV     DPH,?XSP + 1
        MOV     A,R2
        ANL     A,#0x7f
        MOV     R0,A
        MOVX    A,@DPTR
        ADD     A,R0
        MOV     R0,A
        INC     DPTR
        MOVX    A,@DPTR
        ADDC    A,#0x0
        MOV     R1,A
        MOV     A,R0
        ADD     A,#0x64
        MOV     R6,A
        MOV     A,R1
        ADDC    A,#0x0
        MOV     R7,A
//  630   }
//  631 
//  632   // Initialize the security for type of device
//  633   ZDApp_SecInit( networkStateNV );
        ; Setup parameters for call to function ZDSecMgrInit
        MOV     R1,#0x1
        LCALL   ??ZDSecMgrInit?relay
//  634   
//  635   // Trigger the network start
//  636   ZDApp_NetworkInit( extendedDelay );   // 
        ; Setup parameters for call to function ZDApp_NetworkInit
        MOV     A,R6
        MOV     R2,A
        MOV     A,R7
        MOV     R3,A
        LCALL   ??ZDApp_NetworkInit?relay
//  637 
//  638   // set broadcast address mask to support broadcast filtering
//  639   NLME_SetBroadcastFilter( ZDO_Config_Node_Descriptor.CapabilityFlags );
        ; Setup parameters for call to function NLME_SetBroadcastFilter
        MOV     DPTR,#ZDO_Config_Node_Descriptor + 2
        MOVX    A,@DPTR
        MOV     R1,A
        LCALL   ??NLME_SetBroadcastFilter?relay
//  640   
//  641   return ( networkStateNV );
        MOV     R1,#0x1
??ZDOInitDevice_2:
        LJMP    ?Subroutine1 & 0xFFFF
        CFI EndBlock cfiBlock18
//  642 }
//  643 
//  644 /*********************************************************************
//  645  * @fn      ZDApp_ReadNetworkRestoreState
//  646  *
//  647  * @brief   Read the ZCD_NV_STARTUP_OPTION NV Item to state whether
//  648  *          or not to restore the network state.
//  649  *          If the read value has the ZCD_STARTOPT_DEFAULT_NETWORK_STATE
//  650  *          bit set return the ZDO_INITDEV_NEW_NETWORK_STATE.
//  651  *
//  652  * @param   none
//  653  *
//  654  * @return  ZDO_INITDEV_NEW_NETWORK_STATE
//  655  *          or ZDO_INITDEV_RESTORED_NETWORK_STATE based on whether or
//  656  *          not ZCD_STARTOPT_DEFAULT_NETWORK_STATE bit is set in
//  657  *          ZCD_NV_STARTUP_OPTION
//  658  */

        RSEG BANKED_CODE:CODE:NOROOT(0)
//  659 uint8 ZDApp_ReadNetworkRestoreState( void )
ZDApp_ReadNetworkRestoreState:
        CFI Block cfiBlock19 Using cfiCommon0
        CFI Function ZDApp_ReadNetworkRestoreState
        CODE
//  660 {
        FUNCALL ZDApp_ReadNetworkRestoreState, zgReadStartupOptions
        LOCFRAME ISTACK, 0, STACK
        LOCFRAME PSTACK, 0, STACK
        LOCFRAME XSTACK, 9, STACK
        LOCFRAME IOVERLAY, 0, STATIC
        LOCFRAME DOVERLAY, 0, STATIC
        ARGFRAME ISTACK, 0, STACK
        ARGFRAME PSTACK, 0, STACK
        ARGFRAME XSTACK, 9, STACK
        ARGFRAME IOVERLAY, 0, STATIC
        ARGFRAME DOVERLAY, 0, STATIC
        MOV     A,#-0x9
        LCALL   ?BANKED_ENTER_XDATA
        CFI DPH0 load(1, XDATA, add(CFA_XSP16, literal(-1)))
        CFI DPL0 load(1, XDATA, add(CFA_XSP16, literal(-2)))
        CFI ?BRET_EXT load(1, XDATA, add(CFA_XSP16, literal(-3)))
        CFI ?RET_HIGH load(1, XDATA, add(CFA_XSP16, literal(-4)))
        CFI ?RET_LOW load(1, XDATA, add(CFA_XSP16, literal(-5)))
        CFI R7 load(1, XDATA, add(CFA_XSP16, literal(-6)))
        CFI V0 load(1, XDATA, add(CFA_XSP16, literal(-7)))
        CFI VB load(1, XDATA, add(CFA_XSP16, literal(-8)))
        CFI R6 load(1, XDATA, add(CFA_XSP16, literal(-9)))
        CFI CFA_SP SP+0
        CFI CFA_XSP16 add(XSP16, 9)
        ; Saved register size: 9
        ; Auto size: 0
//  661   uint8 networkStateNV = ZDO_INITDEV_RESTORED_NETWORK_STATE;
        MOV     R6,#0x0
//  662 
//  663   // Look for the New Network State option.
//  664   if ( zgReadStartupOptions() & ZCD_STARTOPT_DEFAULT_NETWORK_STATE )
        ; Setup parameters for call to function zgReadStartupOptions
        LCALL   ??zgReadStartupOptions?relay
        MOV     A,R1
        MOV     C,0xE0 /* A   */.1
        JNC     ??ZDApp_ReadNetworkRestoreState_0
//  665   {
//  666     networkStateNV = ZDO_INITDEV_NEW_NETWORK_STATE;
        INC     R6
//  667   }
//  668 
//  669   return ( networkStateNV );
??ZDApp_ReadNetworkRestoreState_0:
        MOV     A,R6
        MOV     R1,A
        LJMP    ??Subroutine31_0 & 0xFFFF
        CFI EndBlock cfiBlock19
//  670 }
//  671 
//  672 /*********************************************************************
//  673  * @fn      ZDAppDetermineDeviceType()
//  674  *
//  675  * @brief   Determines the type of device to start. 
//  676  *
//  677  *          Looks at zgDeviceLogicalType and determines what type of
//  678  *          device to start.  The types are:
//  679  *            ZG_DEVICETYPE_COORDINATOR
//  680  *            ZG_DEVICETYPE_ROUTER
//  681  *            ZG_DEVICETYPE_ENDDEVICE
//  682  *
//  683  * @param   none
//  684  *
//  685  * @return  none
//  686  */

        RSEG BANKED_CODE:CODE:NOROOT(0)
//  687 void ZDAppDetermineDeviceType( void )
ZDAppDetermineDeviceType:
        CFI Block cfiBlock20 Using cfiCommon0
        CFI Function ZDAppDetermineDeviceType
        CODE
//  688 {
        FUNCALL ZDAppDetermineDeviceType, nwk_ExtPANIDValid
        LOCFRAME ISTACK, 2, STACK
        LOCFRAME PSTACK, 0, STACK
        LOCFRAME XSTACK, 0, STACK
        LOCFRAME IOVERLAY, 0, STATIC
        LOCFRAME DOVERLAY, 0, STATIC
        ARGFRAME ISTACK, 2, STACK
        ARGFRAME PSTACK, 0, STACK
        ARGFRAME XSTACK, 0, STACK
        ARGFRAME IOVERLAY, 0, STATIC
        ARGFRAME DOVERLAY, 0, STATIC
        PUSH    DPL
        CFI DPL0 Frame(CFA_SP, 4)
        CFI CFA_SP SP+-4
        PUSH    DPH
        CFI DPH0 Frame(CFA_SP, 5)
        CFI CFA_SP SP+-5
        ; Saved register size: 2
        ; Auto size: 0
//  689   if ( zgDeviceLogicalType == ZG_DEVICETYPE_COORDINATOR )
        MOV     DPTR,#zgDeviceLogicalType
        MOVX    A,@DPTR
        JNZ     ??ZDAppDetermineDeviceType_0
//  690   {
//  691     devStartMode = MODE_HARD;     // Start as a coordinator
        MOV     DPTR,#devStartMode
        MOV     A,#0x2
        MOVX    @DPTR,A
//  692     ZDO_Config_Node_Descriptor.LogicalType = NODETYPE_COORDINATOR;
        MOV     DPTR,#ZDO_Config_Node_Descriptor
        MOVX    A,@DPTR
        ANL     A,#0xf8
        SJMP    ??ZDAppDetermineDeviceType_1
//  693   }
//  694   else
//  695   {
//  696     if ( zgDeviceLogicalType == ZG_DEVICETYPE_ROUTER  )
??ZDAppDetermineDeviceType_0:
        XRL     A,#0x1
        JNZ     ??ZDAppDetermineDeviceType_2
//  697       ZDO_Config_Node_Descriptor.LogicalType = NODETYPE_ROUTER;
        MOV     DPTR,#ZDO_Config_Node_Descriptor
        MOVX    A,@DPTR
        ANL     A,#0xf8
        ORL     A,#0x1
        SJMP    ??ZDAppDetermineDeviceType_3
//  698     else if ( zgDeviceLogicalType == ZG_DEVICETYPE_ENDDEVICE )
??ZDAppDetermineDeviceType_2:
        MOVX    A,@DPTR
        XRL     A,#0x2
        JNZ     ??ZDAppDetermineDeviceType_4
//  699       ZDO_Config_Node_Descriptor.LogicalType = NODETYPE_DEVICE;
        MOV     DPTR,#ZDO_Config_Node_Descriptor
        MOVX    A,@DPTR
        ANL     A,#0xf8
        ORL     A,#0x2
??ZDAppDetermineDeviceType_3:
        MOVX    @DPTR,A
//  700     
//  701     // If AIB_apsUseExtendedPANID is set to a non-zero value by commissioning
//  702     // The device shall do rejoin the network. Otherwise, do normal join
//  703     if ( nwk_ExtPANIDValid( AIB_apsUseExtendedPANID ) == false )
??ZDAppDetermineDeviceType_4:
        ; Setup parameters for call to function nwk_ExtPANIDValid
        MOV     R2,#AIB_apsUseExtendedPANID & 0xff
        MOV     R3,#(AIB_apsUseExtendedPANID >> 8) & 0xff
        LCALL   ??nwk_ExtPANIDValid?relay
        MOV     A,R1
        MOV     DPTR,#devStartMode
        JNZ     ??ZDAppDetermineDeviceType_5
//  704     {
//  705       devStartMode = MODE_JOIN;     // Assume joining
        CLR     A
        SJMP    ??ZDAppDetermineDeviceType_1
//  706     }
//  707     else
//  708     {
//  709       devStartMode = MODE_REJOIN;  
??ZDAppDetermineDeviceType_5:
        MOV     A,#0x3
??ZDAppDetermineDeviceType_1:
        MOVX    @DPTR,A
//  710     }
//  711   }
//  712 }
        LJMP    ?Subroutine2 & 0xFFFF
        CFI EndBlock cfiBlock20
//  713 
//  714 /*********************************************************************
//  715  * @fn      ZDApp_NetworkStartEvt()
//  716  *
//  717  * @brief   Process the Network Start Event
//  718  *
//  719  * @param   none
//  720  *
//  721  * @return  none
//  722  */

        RSEG BANKED_CODE:CODE:NOROOT(0)
//  723 void ZDApp_NetworkStartEvt( void )
ZDApp_NetworkStartEvt:
        CFI Block cfiBlock21 Using cfiCommon0
        CFI Function ZDApp_NetworkStartEvt
        CODE
//  724 {
        FUNCALL ZDApp_NetworkStartEvt, osal_pwrmgr_device
        LOCFRAME ISTACK, 2, STACK
        LOCFRAME PSTACK, 0, STACK
        LOCFRAME XSTACK, 0, STACK
        LOCFRAME IOVERLAY, 0, STATIC
        LOCFRAME DOVERLAY, 0, STATIC
        ARGFRAME ISTACK, 2, STACK
        ARGFRAME PSTACK, 0, STACK
        ARGFRAME XSTACK, 0, STACK
        ARGFRAME IOVERLAY, 0, STATIC
        ARGFRAME DOVERLAY, 0, STATIC
        FUNCALL ZDApp_NetworkStartEvt, osal_set_event
        LOCFRAME ISTACK, 2, STACK
        LOCFRAME PSTACK, 0, STACK
        LOCFRAME XSTACK, 0, STACK
        LOCFRAME IOVERLAY, 0, STATIC
        LOCFRAME DOVERLAY, 0, STATIC
        ARGFRAME ISTACK, 2, STACK
        ARGFRAME PSTACK, 0, STACK
        ARGFRAME XSTACK, 0, STACK
        ARGFRAME IOVERLAY, 0, STATIC
        ARGFRAME DOVERLAY, 0, STATIC
        FUNCALL ZDApp_NetworkStartEvt, NLME_GetEnergyThreshold
        LOCFRAME ISTACK, 2, STACK
        LOCFRAME PSTACK, 0, STACK
        LOCFRAME XSTACK, 0, STACK
        LOCFRAME IOVERLAY, 0, STATIC
        LOCFRAME DOVERLAY, 0, STATIC
        ARGFRAME ISTACK, 2, STACK
        ARGFRAME PSTACK, 0, STACK
        ARGFRAME XSTACK, 0, STACK
        ARGFRAME IOVERLAY, 0, STATIC
        ARGFRAME DOVERLAY, 0, STATIC
        FUNCALL ZDApp_NetworkStartEvt, NLME_GetEnergyThreshold
        LOCFRAME ISTACK, 2, STACK
        LOCFRAME PSTACK, 0, STACK
        LOCFRAME XSTACK, 0, STACK
        LOCFRAME IOVERLAY, 0, STATIC
        LOCFRAME DOVERLAY, 0, STATIC
        ARGFRAME ISTACK, 2, STACK
        ARGFRAME PSTACK, 0, STACK
        ARGFRAME XSTACK, 0, STACK
        ARGFRAME IOVERLAY, 0, STATIC
        ARGFRAME DOVERLAY, 0, STATIC
        FUNCALL ZDApp_NetworkStartEvt, NLME_SetEnergyThreshold
        LOCFRAME ISTACK, 2, STACK
        LOCFRAME PSTACK, 0, STACK
        LOCFRAME XSTACK, 0, STACK
        LOCFRAME IOVERLAY, 0, STATIC
        LOCFRAME DOVERLAY, 0, STATIC
        ARGFRAME ISTACK, 2, STACK
        ARGFRAME PSTACK, 0, STACK
        ARGFRAME XSTACK, 0, STACK
        ARGFRAME IOVERLAY, 0, STATIC
        ARGFRAME DOVERLAY, 0, STATIC
        FUNCALL ZDApp_NetworkStartEvt, osal_set_event
        LOCFRAME ISTACK, 2, STACK
        LOCFRAME PSTACK, 0, STACK
        LOCFRAME XSTACK, 0, STACK
        LOCFRAME IOVERLAY, 0, STATIC
        LOCFRAME DOVERLAY, 0, STATIC
        ARGFRAME ISTACK, 2, STACK
        ARGFRAME PSTACK, 0, STACK
        ARGFRAME XSTACK, 0, STACK
        ARGFRAME IOVERLAY, 0, STATIC
        ARGFRAME DOVERLAY, 0, STATIC
        FUNCALL ZDApp_NetworkStartEvt, osal_set_event
        LOCFRAME ISTACK, 2, STACK
        LOCFRAME PSTACK, 0, STACK
        LOCFRAME XSTACK, 0, STACK
        LOCFRAME IOVERLAY, 0, STATIC
        LOCFRAME DOVERLAY, 0, STATIC
        ARGFRAME ISTACK, 2, STACK
        ARGFRAME PSTACK, 0, STACK
        ARGFRAME XSTACK, 0, STACK
        ARGFRAME IOVERLAY, 0, STATIC
        ARGFRAME DOVERLAY, 0, STATIC
        PUSH    DPL
        CFI DPL0 Frame(CFA_SP, 4)
        CFI CFA_SP SP+-4
        PUSH    DPH
        CFI DPH0 Frame(CFA_SP, 5)
        CFI CFA_SP SP+-5
        ; Saved register size: 2
        ; Auto size: 0
//  725   //  NLME_NetworkFormationRequest() 
//  726   //  zSuccess zFailure 
//  727   // ZDO_NetworkFormationConfirmCB()  
//  728   // zSuccess  zFailure  nwkStatus
//  729   if ( nwkStatus == ZSuccess )  // ?
        MOV     DPTR,#nwkStatus
        MOVX    A,@DPTR
        JNZ     ??ZDApp_NetworkStartEvt_0
//  730   {
//  731     // Successfully started a ZigBee network
//  732     // devState  ZDObject.c  ZDO_StartDevice() 
//  733     // 
//  734     if ( devState == DEV_COORD_STARTING )
        MOV     DPTR,#devState
        MOVX    A,@DPTR
        XRL     A,#0x8
        JNZ     ??ZDApp_NetworkStartEvt_1
//  735     {
//  736       devState = DEV_ZB_COORD;
        MOV     A,#0x9
        MOVX    @DPTR,A
//  737     }
//  738 
//  739     osal_pwrmgr_device( PWRMGR_ALWAYS_ON );
??ZDApp_NetworkStartEvt_1:
        ; Setup parameters for call to function osal_pwrmgr_device
        MOV     R1,#0x0
        LCALL   ??osal_pwrmgr_device?relay
//  740     osal_set_event( ZDAppTaskID, ZDO_STATE_CHANGE_EVT );
        ; Setup parameters for call to function osal_set_event
        SJMP    ??ZDApp_NetworkStartEvt_2
//  741   }
//  742   else
//  743   {
//  744     // Try again with a higher energy threshold !!
//  745     if ( ( NLME_GetEnergyThreshold() + ENERGY_SCAN_INCREMENT ) < 0xff )
??ZDApp_NetworkStartEvt_0:
        ; Setup parameters for call to function NLME_GetEnergyThreshold
        LCALL   ??NLME_GetEnergyThreshold?relay
        MOV     A,R1
        ADD     A,#0x10
        MOV     R0,A
        CLR     A
        ADDC    A,#0x0
        MOV     R1,A
        MOV     A,R0
        SUBB    A,#-0x1
        MOV     A,R1
        SUBB    A,#0x0
        CLR     C
        XRL     A,PSW
        RLC     A
        JNC     ??ZDApp_NetworkStartEvt_3
//  746     {
//  747       NLME_SetEnergyThreshold( (uint8)(NLME_GetEnergyThreshold() + ENERGY_SCAN_INCREMENT) );
        ; Setup parameters for call to function NLME_SetEnergyThreshold
        ; Setup parameters for call to function NLME_GetEnergyThreshold
        LCALL   ??NLME_GetEnergyThreshold?relay
        MOV     A,R1
        ADD     A,#0x10
        MOV     R1,A
        LCALL   ??NLME_SetEnergyThreshold?relay
//  748       osal_set_event( ZDAppTaskID, ZDO_NETWORK_INIT );
        ; Setup parameters for call to function osal_set_event
        MOV     R2,#0x1
        SJMP    ??ZDApp_NetworkStartEvt_4
//  749     }
//  750     else
//  751     {
//  752       // Failed to start network. Enter a dormant state (until user intervenes)
//  753       devState = DEV_INIT;
??ZDApp_NetworkStartEvt_3:
        MOV     DPTR,#devState
        MOV     A,#0x1
        MOVX    @DPTR,A
//  754       osal_set_event( ZDAppTaskID, ZDO_STATE_CHANGE_EVT );
        ; Setup parameters for call to function osal_set_event
??ZDApp_NetworkStartEvt_2:
        MOV     R2,#0x10
//  755     }
//  756   }
??ZDApp_NetworkStartEvt_4:
        LCALL   ??Subroutine27_0 & 0xFFFF
//  757 }
??CrossCallReturnLabel_49:
        LJMP    ?Subroutine2 & 0xFFFF
        CFI EndBlock cfiBlock21
//  758 
//  759 /*********************************************************************
//  760  * @fn      ZDApp_DeviceAuthEvt()
//  761  *
//  762  * @brief   Process the Device Authentic Event
//  763  *
//  764  * @param   none
//  765  *
//  766  * @return  none
//  767  */

        RSEG BANKED_CODE:CODE:NOROOT(0)
//  768 void ZDApp_DeviceAuthEvt( void )
ZDApp_DeviceAuthEvt:
        CFI Block cfiBlock22 Using cfiCommon0
        CFI Function ZDApp_DeviceAuthEvt
        CODE
//  769 {
        FUNCALL ZDApp_DeviceAuthEvt, ZDApp_ResetTimerCancel
        LOCFRAME ISTACK, 2, STACK
        LOCFRAME PSTACK, 0, STACK
        LOCFRAME XSTACK, 0, STACK
        LOCFRAME IOVERLAY, 0, STATIC
        LOCFRAME DOVERLAY, 0, STATIC
        ARGFRAME ISTACK, 2, STACK
        ARGFRAME PSTACK, 0, STACK
        ARGFRAME XSTACK, 0, STACK
        ARGFRAME IOVERLAY, 0, STATIC
        ARGFRAME DOVERLAY, 0, STATIC
        FUNCALL ZDApp_DeviceAuthEvt, osal_set_event
        LOCFRAME ISTACK, 2, STACK
        LOCFRAME PSTACK, 0, STACK
        LOCFRAME XSTACK, 0, STACK
        LOCFRAME IOVERLAY, 0, STATIC
        LOCFRAME DOVERLAY, 0, STATIC
        ARGFRAME ISTACK, 2, STACK
        ARGFRAME PSTACK, 0, STACK
        ARGFRAME XSTACK, 0, STACK
        ARGFRAME IOVERLAY, 0, STATIC
        ARGFRAME DOVERLAY, 0, STATIC
        FUNCALL ZDApp_DeviceAuthEvt, NLME_StartRouterRequest
        LOCFRAME ISTACK, 2, STACK
        LOCFRAME PSTACK, 0, STACK
        LOCFRAME XSTACK, 0, STACK
        LOCFRAME IOVERLAY, 0, STATIC
        LOCFRAME DOVERLAY, 0, STATIC
        ARGFRAME ISTACK, 2, STACK
        ARGFRAME PSTACK, 0, STACK
        ARGFRAME XSTACK, 0, STACK
        ARGFRAME IOVERLAY, 0, STATIC
        ARGFRAME DOVERLAY, 0, STATIC
        FUNCALL ZDApp_DeviceAuthEvt, ZDApp_SaveNwkKey
        LOCFRAME ISTACK, 2, STACK
        LOCFRAME PSTACK, 0, STACK
        LOCFRAME XSTACK, 0, STACK
        LOCFRAME IOVERLAY, 0, STATIC
        LOCFRAME DOVERLAY, 0, STATIC
        ARGFRAME ISTACK, 2, STACK
        ARGFRAME PSTACK, 0, STACK
        ARGFRAME XSTACK, 0, STACK
        ARGFRAME IOVERLAY, 0, STATIC
        ARGFRAME DOVERLAY, 0, STATIC
        FUNCALL ZDApp_DeviceAuthEvt, ZDApp_AnnounceNewAddress
        LOCFRAME ISTACK, 2, STACK
        LOCFRAME PSTACK, 0, STACK
        LOCFRAME XSTACK, 0, STACK
        LOCFRAME IOVERLAY, 0, STATIC
        LOCFRAME DOVERLAY, 0, STATIC
        ARGFRAME ISTACK, 2, STACK
        ARGFRAME PSTACK, 0, STACK
        ARGFRAME XSTACK, 0, STACK
        ARGFRAME IOVERLAY, 0, STATIC
        ARGFRAME DOVERLAY, 0, STATIC
        FUNCALL ZDApp_DeviceAuthEvt, NLME_SetPollRate
        LOCFRAME ISTACK, 2, STACK
        LOCFRAME PSTACK, 0, STACK
        LOCFRAME XSTACK, 0, STACK
        LOCFRAME IOVERLAY, 0, STATIC
        LOCFRAME DOVERLAY, 0, STATIC
        ARGFRAME ISTACK, 2, STACK
        ARGFRAME PSTACK, 0, STACK
        ARGFRAME XSTACK, 0, STACK
        ARGFRAME IOVERLAY, 0, STATIC
        ARGFRAME DOVERLAY, 0, STATIC
        PUSH    DPL
        CFI DPL0 Frame(CFA_SP, 4)
        CFI CFA_SP SP+-4
        PUSH    DPH
        CFI DPH0 Frame(CFA_SP, 5)
        CFI CFA_SP SP+-5
        ; Saved register size: 2
        ; Auto size: 0
//  770   // received authentication from trust center
//  771   if ( devState == DEV_END_DEVICE_UNAUTH )
        MOV     DPTR,#devState
        MOVX    A,@DPTR
        XRL     A,#0x5
        JNZ     ??ZDApp_DeviceAuthEvt_0
//  772   {
//  773     // Stop the reset timer so it doesn't reset
//  774     ZDApp_ResetTimerCancel();
        ; Setup parameters for call to function ZDApp_ResetTimerCancel
        LCALL   ??ZDApp_ResetTimerCancel?relay
//  775 
//  776     devState = DEV_END_DEVICE;
        LCALL   ?Subroutine5 & 0xFFFF
//  777     osal_set_event( ZDAppTaskID, ZDO_STATE_CHANGE_EVT );
//  778 
//  779     // Set the Power Manager Device
//  780 #if defined ( POWER_SAVING )
//  781     osal_pwrmgr_device( PWRMGR_BATTERY );
//  782 #endif
//  783 
//  784     if ( ZSTACK_ROUTER_BUILD )
??CrossCallReturnLabel_0:
        MOV     DPTR,#zgDeviceLogicalType
        MOVX    A,@DPTR
        JZ      ??ZDApp_DeviceAuthEvt_1
        XRL     A,#0x1
        JNZ     ??ZDApp_DeviceAuthEvt_2
//  785     {
//  786       if ( ZDO_Config_Node_Descriptor.LogicalType != NODETYPE_DEVICE )
??ZDApp_DeviceAuthEvt_1:
        LCALL   ?Subroutine14 & 0xFFFF
??CrossCallReturnLabel_18:
        JZ      ??ZDApp_DeviceAuthEvt_2
//  787       {
//  788         // NOTE: first two parameters are not used, see NLMEDE.h for details
//  789         NLME_StartRouterRequest( 0, 0, false );
        ; Setup parameters for call to function NLME_StartRouterRequest
        MOV     R3,#0x0
        MOV     R2,#0x0
        MOV     R1,#0x0
        LCALL   ??NLME_StartRouterRequest?relay
//  790       }
//  791     }
//  792 
//  793     // Notify to save info into NV
//  794     ZDApp_NVUpdate();
//  795 
//  796     // Save off the security
//  797     ZDApp_SaveNwkKey();
??ZDApp_DeviceAuthEvt_2:
        ; Setup parameters for call to function ZDApp_SaveNwkKey
        LCALL   ??ZDApp_SaveNwkKey?relay
//  798 
//  799     ZDApp_AnnounceNewAddress();
        ; Setup parameters for call to function ZDApp_AnnounceNewAddress
        LCALL   ??ZDApp_AnnounceNewAddress?relay
//  800     
//  801     if ( (ZDO_Config_Node_Descriptor.CapabilityFlags & CAPINFO_RCVR_ON_IDLE) == 0 )
        MOV     DPTR,#ZDO_Config_Node_Descriptor + 2
        MOVX    A,@DPTR
        MOV     C,0xE0 /* A   */.3
        JC      ??ZDApp_DeviceAuthEvt_0
//  802     {
//  803       NLME_SetPollRate( ZDApp_SavedPollRate );
        ; Setup parameters for call to function NLME_SetPollRate
        MOV     DPTR,#ZDApp_SavedPollRate
        LCALL   ?Subroutine13 & 0xFFFF
//  804     }
//  805   }
??CrossCallReturnLabel_12:
        LCALL   ??NLME_SetPollRate?relay
//  806   else
//  807   {
//  808     ZDApp_NVUpdate();
//  809   }
//  810 }
??ZDApp_DeviceAuthEvt_0:
        LJMP    ?Subroutine2 & 0xFFFF
        CFI EndBlock cfiBlock22
//  811 
//  812 /*********************************************************************
//  813  * @fn      ZDApp_SaveNetworkStateEvt()
//  814  *
//  815  * @brief   Process the Save the Network State Event
//  816  *
//  817  * @param   none
//  818  *
//  819  * @return  none
//  820  */

        RSEG BANKED_CODE:CODE:NOROOT(0)
//  821 void ZDApp_SaveNetworkStateEvt( void )
ZDApp_SaveNetworkStateEvt:
        CFI Block cfiBlock23 Using cfiCommon0
        CFI Function ZDApp_SaveNetworkStateEvt
        CODE
//  822 {
        ; Saved register size: 0
        ; Auto size: 0
//  823 #if defined ( NV_RESTORE )
//  824  #if defined ( NV_TURN_OFF_RADIO )
//  825   // Turn off the radio's receiver during an NV update
//  826   uint8 RxOnIdle;
//  827   uint8 x = false;
//  828   ZMacGetReq( ZMacRxOnIdle, &RxOnIdle );
//  829   ZMacSetReq( ZMacRxOnIdle, &x );
//  830  #endif
//  831 
//  832   // Update the Network State in NV
//  833   NLME_UpdateNV( NWK_NV_NIB_ENABLE        |
//  834                  NWK_NV_DEVICELIST_ENABLE |
//  835                  NWK_NV_BINDING_ENABLE    |
//  836                  NWK_NV_ADDRMGR_ENABLE );
//  837 
//  838   // Reset the NV startup option to resume from NV by
//  839   // clearing the "New" join option.
//  840   zgWriteStartupOptions( FALSE, ZCD_STARTOPT_DEFAULT_NETWORK_STATE );
//  841 
//  842  #if defined ( NV_TURN_OFF_RADIO )
//  843   ZMacSetReq( ZMacRxOnIdle, &RxOnIdle );
//  844  #endif
//  845 #endif  // NV_RESTORE
//  846 }
        LJMP    ?BRET
        CFI EndBlock cfiBlock23
//  847 
//  848 /*********************************************************************
//  849  * @fn      ZDApp_RestoreNetworkState()
//  850  *
//  851  * @brief   This function will restore the network state of the
//  852  *          device if the network state is stored in NV.
//  853  *
//  854  * @param   none
//  855  *
//  856  * @return
//  857  *    ZDO_INITDEV_RESTORED_NETWORK_STATE  - The device's network state was
//  858  *          restored.
//  859  *    ZDO_INITDEV_NEW_NETWORK_STATE - The network state was not used.
//  860  *          This could mean that zgStartupOption said to not restore, or
//  861  *          it could mean that there was no network state to restore.
//  862  *
//  863  */

        RSEG BANKED_CODE:CODE:NOROOT(0)
//  864 uint8 ZDApp_RestoreNetworkState( void )
ZDApp_RestoreNetworkState:
        CFI Block cfiBlock24 Using cfiCommon0
        CFI Function ZDApp_RestoreNetworkState
        CODE
//  865 {
        FUNCALL ZDApp_RestoreNetworkState, NLME_InitNV
        LOCFRAME ISTACK, 0, STACK
        LOCFRAME PSTACK, 0, STACK
        LOCFRAME XSTACK, 9, STACK
        LOCFRAME IOVERLAY, 0, STATIC
        LOCFRAME DOVERLAY, 0, STATIC
        ARGFRAME ISTACK, 0, STACK
        ARGFRAME PSTACK, 0, STACK
        ARGFRAME XSTACK, 9, STACK
        ARGFRAME IOVERLAY, 0, STATIC
        ARGFRAME DOVERLAY, 0, STATIC
        FUNCALL ZDApp_RestoreNetworkState, NLME_RestoreFromNV
        LOCFRAME ISTACK, 0, STACK
        LOCFRAME PSTACK, 0, STACK
        LOCFRAME XSTACK, 9, STACK
        LOCFRAME IOVERLAY, 0, STATIC
        LOCFRAME DOVERLAY, 0, STATIC
        ARGFRAME ISTACK, 0, STACK
        ARGFRAME PSTACK, 0, STACK
        ARGFRAME XSTACK, 9, STACK
        ARGFRAME IOVERLAY, 0, STATIC
        ARGFRAME DOVERLAY, 0, STATIC
        FUNCALL ZDApp_RestoreNetworkState, NLME_GetShortAddr
        LOCFRAME ISTACK, 0, STACK
        LOCFRAME PSTACK, 0, STACK
        LOCFRAME XSTACK, 9, STACK
        LOCFRAME IOVERLAY, 0, STATIC
        LOCFRAME DOVERLAY, 0, STATIC
        ARGFRAME ISTACK, 0, STACK
        ARGFRAME PSTACK, 0, STACK
        ARGFRAME XSTACK, 9, STACK
        ARGFRAME IOVERLAY, 0, STATIC
        ARGFRAME DOVERLAY, 0, STATIC
        FUNCALL ZDApp_RestoreNetworkState, sAddrExtCpy
        LOCFRAME ISTACK, 0, STACK
        LOCFRAME PSTACK, 0, STACK
        LOCFRAME XSTACK, 9, STACK
        LOCFRAME IOVERLAY, 0, STATIC
        LOCFRAME DOVERLAY, 0, STATIC
        ARGFRAME ISTACK, 0, STACK
        ARGFRAME PSTACK, 0, STACK
        ARGFRAME XSTACK, 9, STACK
        ARGFRAME IOVERLAY, 0, STATIC
        ARGFRAME DOVERLAY, 0, STATIC
        MOV     A,#-0x9
        LCALL   ?BANKED_ENTER_XDATA
        CFI DPH0 load(1, XDATA, add(CFA_XSP16, literal(-1)))
        CFI DPL0 load(1, XDATA, add(CFA_XSP16, literal(-2)))
        CFI ?BRET_EXT load(1, XDATA, add(CFA_XSP16, literal(-3)))
        CFI ?RET_HIGH load(1, XDATA, add(CFA_XSP16, literal(-4)))
        CFI ?RET_LOW load(1, XDATA, add(CFA_XSP16, literal(-5)))
        CFI R7 load(1, XDATA, add(CFA_XSP16, literal(-6)))
        CFI V0 load(1, XDATA, add(CFA_XSP16, literal(-7)))
        CFI VB load(1, XDATA, add(CFA_XSP16, literal(-8)))
        CFI R6 load(1, XDATA, add(CFA_XSP16, literal(-9)))
        CFI CFA_SP SP+0
        CFI CFA_XSP16 add(XSP16, 9)
        ; Saved register size: 9
        ; Auto size: 0
//  866   uint8 nvStat;
//  867   nwkActiveKeyItems keyItems;
//  868 
//  869   // Initialize NWK NV items
//  870   nvStat = NLME_InitNV();
        ; Setup parameters for call to function NLME_InitNV
        LCALL   ??NLME_InitNV?relay
        MOV     A,R1
        MOV     R6,A
//  871 
//  872   if ( nvStat != NV_OPER_FAILED )
        MOV     A,#0xa
        XRL     A,R6
        JZ      ??ZDApp_RestoreNetworkState_0
//  873   {
//  874     if ( NLME_RestoreFromNV() )
        ; Setup parameters for call to function NLME_RestoreFromNV
        LCALL   ??NLME_RestoreFromNV?relay
        MOV     A,R1
        JZ      ??ZDApp_RestoreNetworkState_0
//  875     {
//  876       // Are we a coordinator
//  877       ZDAppNwkAddr.addr.shortAddr = NLME_GetShortAddr();
        ; Setup parameters for call to function NLME_GetShortAddr
        LCALL   ??NLME_GetShortAddr?relay
        MOV     DPTR,#ZDAppNwkAddr
        LCALL   ??Subroutine36_0 & 0xFFFF
//  878       if ( ZDAppNwkAddr.addr.shortAddr == 0 )
??CrossCallReturnLabel_75:
        MOV     DPTR,#ZDAppNwkAddr
        LCALL   ?Subroutine12 & 0xFFFF
??CrossCallReturnLabel_8:
        JNZ     ??ZDApp_RestoreNetworkState_1
//  879         ZDO_Config_Node_Descriptor.LogicalType = NODETYPE_COORDINATOR;
        MOV     DPTR,#ZDO_Config_Node_Descriptor
        MOVX    A,@DPTR
        ANL     A,#0xf8
        MOVX    @DPTR,A
//  880       devStartMode = MODE_RESUME;
??ZDApp_RestoreNetworkState_1:
        MOV     DPTR,#devStartMode
        MOV     A,#0x1
        LCALL   ?Subroutine6 & 0xFFFF
//  881       osal_cpyExtAddr( ZDO_UseExtendedPANID, _NIB.extendedPANID );
//  882     }
//  883     else
//  884       nvStat = NV_ITEM_UNINIT;
//  885 
//  886     if ( ZG_SECURE_ENABLED )
//  887     {
//  888       nwkFrameCounterChanges = 0;
//  889       osal_memset( &keyItems, 0, sizeof( nwkActiveKeyItems ) );
//  890       osal_nv_item_init( ZCD_NV_NWKKEY, sizeof(nwkActiveKeyItems), (void *)&keyItems );
//  891 
//  892       if ( ZG_BUILD_COORDINATOR_TYPE && ZG_DEVICE_COORDINATOR_TYPE )
//  893       {
//  894         ZDApp_RestoreNwkKey();
//  895       }
//  896     }
//  897 
//  898     // The default for RxOnWhenIdle is true for Routers and false for end devices
//  899     // [setup in the NLME_RestoreFromNV()].  Change it here if you want something
//  900     // other than default.
//  901   }
//  902 
//  903   if ( nvStat == ZSUCCESS )
??CrossCallReturnLabel_2:
        MOV     A,R6
        JNZ     ??ZDApp_RestoreNetworkState_0
//  904     return ( ZDO_INITDEV_RESTORED_NETWORK_STATE );
        MOV     R1,#0x0
        SJMP    ??ZDApp_RestoreNetworkState_2
//  905   else
//  906     return ( ZDO_INITDEV_NEW_NETWORK_STATE );
??ZDApp_RestoreNetworkState_0:
        MOV     R1,#0x1
??ZDApp_RestoreNetworkState_2:
        LJMP    ??Subroutine31_0 & 0xFFFF
        CFI EndBlock cfiBlock24
//  907 }
//  908 
//  909 /*********************************************************************
//  910  * @fn      ZDApp_InitUserDesc()
//  911  *
//  912  * @brief   Initialize the User Descriptor, the descriptor is read from NV
//  913  *          when needed.  If you want to initialize the User descriptor to
//  914  *          something other than all zero, do it here.
//  915  *
//  916  * @param   none
//  917  *
//  918  * @return  none
//  919  */

        RSEG BANKED_CODE:CODE:NOROOT(0)
//  920 void ZDApp_InitUserDesc( void )
ZDApp_InitUserDesc:
        CFI Block cfiBlock25 Using cfiCommon0
        CFI Function ZDApp_InitUserDesc
        CODE
//  921 {
        FUNCALL ZDApp_InitUserDesc, osal_memset
        LOCFRAME ISTACK, 0, STACK
        LOCFRAME PSTACK, 0, STACK
        LOCFRAME XSTACK, 27, STACK
        LOCFRAME IOVERLAY, 0, STATIC
        LOCFRAME DOVERLAY, 0, STATIC
        ARGFRAME ISTACK, 0, STACK
        ARGFRAME PSTACK, 0, STACK
        ARGFRAME XSTACK, 27, STACK
        ARGFRAME IOVERLAY, 0, STATIC
        ARGFRAME DOVERLAY, 0, STATIC
        FUNCALL ZDApp_InitUserDesc, osal_nv_item_init
        LOCFRAME ISTACK, 0, STACK
        LOCFRAME PSTACK, 0, STACK
        LOCFRAME XSTACK, 29, STACK
        LOCFRAME IOVERLAY, 0, STATIC
        LOCFRAME DOVERLAY, 0, STATIC
        ARGFRAME ISTACK, 0, STACK
        ARGFRAME PSTACK, 0, STACK
        ARGFRAME XSTACK, 29, STACK
        ARGFRAME IOVERLAY, 0, STATIC
        ARGFRAME DOVERLAY, 0, STATIC
        FUNCALL ZDApp_InitUserDesc, osal_nv_read
        LOCFRAME ISTACK, 0, STACK
        LOCFRAME PSTACK, 0, STACK
        LOCFRAME XSTACK, 31, STACK
        LOCFRAME IOVERLAY, 0, STATIC
        LOCFRAME DOVERLAY, 0, STATIC
        ARGFRAME ISTACK, 0, STACK
        ARGFRAME PSTACK, 0, STACK
        ARGFRAME XSTACK, 31, STACK
        ARGFRAME IOVERLAY, 0, STATIC
        ARGFRAME DOVERLAY, 0, STATIC
        MOV     A,#-0xa
        LCALL   ?BANKED_ENTER_XDATA
        CFI DPH0 load(1, XDATA, add(CFA_XSP16, literal(-1)))
        CFI DPL0 load(1, XDATA, add(CFA_XSP16, literal(-2)))
        CFI ?BRET_EXT load(1, XDATA, add(CFA_XSP16, literal(-3)))
        CFI ?RET_HIGH load(1, XDATA, add(CFA_XSP16, literal(-4)))
        CFI ?RET_LOW load(1, XDATA, add(CFA_XSP16, literal(-5)))
        CFI R7 load(1, XDATA, add(CFA_XSP16, literal(-6)))
        CFI V1 load(1, XDATA, add(CFA_XSP16, literal(-7)))
        CFI V0 load(1, XDATA, add(CFA_XSP16, literal(-8)))
        CFI VB load(1, XDATA, add(CFA_XSP16, literal(-9)))
        CFI R6 load(1, XDATA, add(CFA_XSP16, literal(-10)))
        CFI CFA_SP SP+0
        CFI CFA_XSP16 add(XSP16, 10)
        ; Saved register size: 10
        ; Auto size: 17
        MOV     A,#-0x11
        LCALL   ?ALLOC_XSTACK8
        CFI CFA_XSP16 add(XSP16, 27)
//  922   UserDescriptorFormat_t ZDO_DefaultUserDescriptor;
//  923 
//  924   // Initialize the User Descriptor, the descriptor is read from NV
//  925   // when needed.  If you want to initialize the User descriptor to something
//  926   // other than all zero, do it here.
//  927   osal_memset( &ZDO_DefaultUserDescriptor, 0, sizeof( UserDescriptorFormat_t ) );
        ; Setup parameters for call to function osal_memset
        MOV     R4,#0x11
        LCALL   ?Subroutine19 & 0xFFFF
//  928   if ( ZSUCCESS == osal_nv_item_init( ZCD_NV_USERDESC,
//  929          sizeof(UserDescriptorFormat_t), (void*)&ZDO_DefaultUserDescriptor ) )
??CrossCallReturnLabel_30:
        LCALL   ?PUSH_XSTACK_I_TWO
        CFI CFA_XSP16 add(XSP16, 29)
        MOV     R4,#0x11
        MOV     R5,#0x0
        MOV     R2,#-0x7f
        MOV     R3,#0x0
        LCALL   ??osal_nv_item_init?relay
        MOV     A,#0x2
        LCALL   ?DEALLOC_XSTACK8
        CFI CFA_XSP16 add(XSP16, 27)
        MOV     A,R1
        JNZ     ??ZDApp_InitUserDesc_0
//  930   {
//  931     if ( ZSUCCESS == osal_nv_read( ZCD_NV_USERDESC, 0,
//  932          sizeof(UserDescriptorFormat_t), (void*)&ZDO_DefaultUserDescriptor ) )
        ; Setup parameters for call to function osal_nv_read
        MOV     R0,#?V0 + 0
        LCALL   ?PUSH_XSTACK_I_TWO
        CFI CFA_XSP16 add(XSP16, 29)
        MOV     ?V0 + 0,#0x11
        MOV     ?V0 + 1,#0x0
        MOV     R0,#?V0 + 0
        LCALL   ?PUSH_XSTACK_I_TWO
        CFI CFA_XSP16 add(XSP16, 31)
        MOV     R4,#0x0
        MOV     R5,#0x0
        MOV     R2,#-0x7f
        MOV     R3,#0x0
        LCALL   ??osal_nv_read?relay
        MOV     A,#0x4
        LCALL   ?DEALLOC_XSTACK8
        CFI CFA_XSP16 add(XSP16, 27)
        MOV     A,R1
        JNZ     ??ZDApp_InitUserDesc_0
//  933     {
//  934       if ( ZDO_DefaultUserDescriptor.len != 0 )
        MOV     DPL,?XSP + 0
        MOV     DPH,?XSP + 1
        MOVX    A,@DPTR
        JZ      ??ZDApp_InitUserDesc_0
//  935       {
//  936         ZDO_Config_Node_Descriptor.UserDescAvail = TRUE;
        MOV     DPTR,#ZDO_Config_Node_Descriptor
        MOVX    A,@DPTR
        SETB    0xE0 /* A   */.4
        MOVX    @DPTR,A
//  937       }
//  938     }
//  939   }
//  940 }
??ZDApp_InitUserDesc_0:
        MOV     A,#0x11
        LJMP    ??Subroutine34_0 & 0xFFFF
        CFI EndBlock cfiBlock25
//  941 
//  942 /*********************************************************************
//  943  * @fn      ZDAppCheckForHoldKey()
//  944  *
//  945  * @brief   Check for key to set the device into Hold Auto Start
//  946  *
//  947  * @param   none
//  948  *
//  949  * @return  none
//  950  */

        RSEG BANKED_CODE:CODE:NOROOT(0)
//  951 void ZDAppCheckForHoldKey( void )
ZDAppCheckForHoldKey:
        CFI Block cfiBlock26 Using cfiCommon0
        CFI Function ZDAppCheckForHoldKey
        CODE
//  952 {
        FUNCALL ZDAppCheckForHoldKey, HalKeyRead
        LOCFRAME ISTACK, 2, STACK
        LOCFRAME PSTACK, 0, STACK
        LOCFRAME XSTACK, 0, STACK
        LOCFRAME IOVERLAY, 0, STATIC
        LOCFRAME DOVERLAY, 0, STATIC
        ARGFRAME ISTACK, 2, STACK
        ARGFRAME PSTACK, 0, STACK
        ARGFRAME XSTACK, 0, STACK
        ARGFRAME IOVERLAY, 0, STATIC
        ARGFRAME DOVERLAY, 0, STATIC
        PUSH    DPL
        CFI DPL0 Frame(CFA_SP, 4)
        CFI CFA_SP SP+-4
        PUSH    DPH
        CFI DPH0 Frame(CFA_SP, 5)
        CFI CFA_SP SP+-5
        ; Saved register size: 2
        ; Auto size: 0
//  953 #if (defined HAL_KEY) && (HAL_KEY == TRUE)
//  954   // Get Keypad directly to see if a HOLD_START is needed.
//  955   // Hold down the SW_BYPASS_START key (see OnBoard.h)
//  956   // while booting to avoid starting up the device.
//  957   if ( HalKeyRead () == SW_BYPASS_START)    // 0x01
        ; Setup parameters for call to function HalKeyRead
        LCALL   ??HalKeyRead?relay
        MOV     A,R1
        XRL     A,#0x1
        JNZ     ??ZDAppCheckForHoldKey_0
//  958   {
//  959     // Change the device state to HOLD on start up
//  960     devState = DEV_HOLD;
        MOV     DPTR,#devState
        CLR     A
        MOVX    @DPTR,A
//  961   }
//  962 #endif // HAL_KEY
//  963 }
??ZDAppCheckForHoldKey_0:
        LJMP    ?Subroutine2 & 0xFFFF
        CFI EndBlock cfiBlock26
//  964 
//  965 /*********************************************************************
//  966  * @fn      ZDApp_ProcessOSALMsg()
//  967  *
//  968  * @brief   Process the incoming task message.
//  969  *
//  970  * @param   msgPtr - message to process
//  971  *
//  972  * @return  none
//  973  */

        RSEG BANKED_CODE:CODE:NOROOT(0)
//  974 void  ZDApp_ProcessOSALMsg( osal_event_hdr_t *msgPtr )
ZDApp_ProcessOSALMsg:
        CFI Block cfiBlock27 Using cfiCommon0
        CFI Function ZDApp_ProcessOSALMsg
        CODE
//  975 {
        FUNCALL ZDApp_ProcessOSALMsg, ZDP_IncomingData
        LOCFRAME ISTACK, 0, STACK
        LOCFRAME PSTACK, 0, STACK
        LOCFRAME XSTACK, 16, STACK
        LOCFRAME IOVERLAY, 0, STATIC
        LOCFRAME DOVERLAY, 0, STATIC
        ARGFRAME ISTACK, 0, STACK
        ARGFRAME PSTACK, 0, STACK
        ARGFRAME XSTACK, 16, STACK
        ARGFRAME IOVERLAY, 0, STATIC
        ARGFRAME DOVERLAY, 0, STATIC
        FUNCALL ZDApp_ProcessOSALMsg, ZDApp_ProcessMsgCBs
        LOCFRAME ISTACK, 0, STACK
        LOCFRAME PSTACK, 0, STACK
        LOCFRAME XSTACK, 16, STACK
        LOCFRAME IOVERLAY, 0, STATIC
        LOCFRAME DOVERLAY, 0, STATIC
        ARGFRAME ISTACK, 0, STACK
        ARGFRAME PSTACK, 0, STACK
        ARGFRAME XSTACK, 16, STACK
        ARGFRAME IOVERLAY, 0, STATIC
        ARGFRAME DOVERLAY, 0, STATIC
        FUNCALL ZDApp_ProcessOSALMsg, ZDApp_NodeProfileSync
        LOCFRAME ISTACK, 0, STACK
        LOCFRAME PSTACK, 0, STACK
        LOCFRAME XSTACK, 16, STACK
        LOCFRAME IOVERLAY, 0, STATIC
        LOCFRAME DOVERLAY, 0, STATIC
        ARGFRAME ISTACK, 0, STACK
        ARGFRAME PSTACK, 0, STACK
        ARGFRAME XSTACK, 16, STACK
        ARGFRAME IOVERLAY, 0, STATIC
        ARGFRAME DOVERLAY, 0, STATIC
        FUNCALL ZDApp_ProcessOSALMsg, NLME_JoinRequest
        LOCFRAME ISTACK, 0, STACK
        LOCFRAME PSTACK, 0, STACK
        LOCFRAME XSTACK, 17, STACK
        LOCFRAME IOVERLAY, 0, STATIC
        LOCFRAME DOVERLAY, 0, STATIC
        ARGFRAME ISTACK, 0, STACK
        ARGFRAME PSTACK, 0, STACK
        ARGFRAME XSTACK, 17, STACK
        ARGFRAME IOVERLAY, 0, STATIC
        ARGFRAME DOVERLAY, 0, STATIC
        FUNCALL ZDApp_ProcessOSALMsg, osal_rand
        LOCFRAME ISTACK, 0, STACK
        LOCFRAME PSTACK, 0, STACK
        LOCFRAME XSTACK, 16, STACK
        LOCFRAME IOVERLAY, 0, STATIC
        LOCFRAME DOVERLAY, 0, STATIC
        ARGFRAME ISTACK, 0, STACK
        ARGFRAME PSTACK, 0, STACK
        ARGFRAME XSTACK, 16, STACK
        ARGFRAME IOVERLAY, 0, STATIC
        ARGFRAME DOVERLAY, 0, STATIC
        FUNCALL ZDApp_ProcessOSALMsg, ZDApp_NetworkInit
        LOCFRAME ISTACK, 0, STACK
        LOCFRAME PSTACK, 0, STACK
        LOCFRAME XSTACK, 16, STACK
        LOCFRAME IOVERLAY, 0, STATIC
        LOCFRAME DOVERLAY, 0, STATIC
        ARGFRAME ISTACK, 0, STACK
        ARGFRAME PSTACK, 0, STACK
        ARGFRAME XSTACK, 16, STACK
        ARGFRAME IOVERLAY, 0, STATIC
        ARGFRAME DOVERLAY, 0, STATIC
        FUNCALL ZDApp_ProcessOSALMsg, osal_rand
        LOCFRAME ISTACK, 0, STACK
        LOCFRAME PSTACK, 0, STACK
        LOCFRAME XSTACK, 16, STACK
        LOCFRAME IOVERLAY, 0, STATIC
        LOCFRAME DOVERLAY, 0, STATIC
        ARGFRAME ISTACK, 0, STACK
        ARGFRAME PSTACK, 0, STACK
        ARGFRAME XSTACK, 16, STACK
        ARGFRAME IOVERLAY, 0, STATIC
        ARGFRAME DOVERLAY, 0, STATIC
        FUNCALL ZDApp_ProcessOSALMsg, ZMacSetReq
        LOCFRAME ISTACK, 0, STACK
        LOCFRAME PSTACK, 0, STACK
        LOCFRAME XSTACK, 16, STACK
        LOCFRAME IOVERLAY, 0, STATIC
        LOCFRAME DOVERLAY, 0, STATIC
        ARGFRAME ISTACK, 0, STACK
        ARGFRAME PSTACK, 0, STACK
        ARGFRAME XSTACK, 16, STACK
        ARGFRAME IOVERLAY, 0, STATIC
        ARGFRAME DOVERLAY, 0, STATIC
        FUNCALL ZDApp_ProcessOSALMsg, ZMacSetReq
        LOCFRAME ISTACK, 0, STACK
        LOCFRAME PSTACK, 0, STACK
        LOCFRAME XSTACK, 16, STACK
        LOCFRAME IOVERLAY, 0, STATIC
        LOCFRAME DOVERLAY, 0, STATIC
        ARGFRAME ISTACK, 0, STACK
        ARGFRAME PSTACK, 0, STACK
        ARGFRAME XSTACK, 16, STACK
        ARGFRAME IOVERLAY, 0, STATIC
        ARGFRAME DOVERLAY, 0, STATIC
        FUNCALL ZDApp_ProcessOSALMsg, ZMacSetReq
        LOCFRAME ISTACK, 0, STACK
        LOCFRAME PSTACK, 0, STACK
        LOCFRAME XSTACK, 16, STACK
        LOCFRAME IOVERLAY, 0, STATIC
        LOCFRAME DOVERLAY, 0, STATIC
        ARGFRAME ISTACK, 0, STACK
        ARGFRAME PSTACK, 0, STACK
        ARGFRAME XSTACK, 16, STACK
        ARGFRAME IOVERLAY, 0, STATIC
        ARGFRAME DOVERLAY, 0, STATIC
        FUNCALL ZDApp_ProcessOSALMsg, NLME_ReJoinRequest
        LOCFRAME ISTACK, 0, STACK
        LOCFRAME PSTACK, 0, STACK
        LOCFRAME XSTACK, 16, STACK
        LOCFRAME IOVERLAY, 0, STATIC
        LOCFRAME DOVERLAY, 0, STATIC
        ARGFRAME ISTACK, 0, STACK
        ARGFRAME PSTACK, 0, STACK
        ARGFRAME XSTACK, 16, STACK
        ARGFRAME IOVERLAY, 0, STATIC
        ARGFRAME DOVERLAY, 0, STATIC
        FUNCALL ZDApp_ProcessOSALMsg, osal_rand
        LOCFRAME ISTACK, 0, STACK
        LOCFRAME PSTACK, 0, STACK
        LOCFRAME XSTACK, 16, STACK
        LOCFRAME IOVERLAY, 0, STATIC
        LOCFRAME DOVERLAY, 0, STATIC
        ARGFRAME ISTACK, 0, STACK
        ARGFRAME PSTACK, 0, STACK
        ARGFRAME XSTACK, 16, STACK
        ARGFRAME IOVERLAY, 0, STATIC
        ARGFRAME DOVERLAY, 0, STATIC
        FUNCALL ZDApp_ProcessOSALMsg, ZDApp_NetworkInit
        LOCFRAME ISTACK, 0, STACK
        LOCFRAME PSTACK, 0, STACK
        LOCFRAME XSTACK, 16, STACK
        LOCFRAME IOVERLAY, 0, STATIC
        LOCFRAME DOVERLAY, 0, STATIC
        ARGFRAME ISTACK, 0, STACK
        ARGFRAME PSTACK, 0, STACK
        ARGFRAME XSTACK, 16, STACK
        ARGFRAME IOVERLAY, 0, STATIC
        ARGFRAME DOVERLAY, 0, STATIC
        FUNCALL ZDApp_ProcessOSALMsg, NLME_SetPollRate
        LOCFRAME ISTACK, 0, STACK
        LOCFRAME PSTACK, 0, STACK
        LOCFRAME XSTACK, 16, STACK
        LOCFRAME IOVERLAY, 0, STATIC
        LOCFRAME DOVERLAY, 0, STATIC
        ARGFRAME ISTACK, 0, STACK
        ARGFRAME PSTACK, 0, STACK
        ARGFRAME XSTACK, 16, STACK
        ARGFRAME IOVERLAY, 0, STATIC
        ARGFRAME DOVERLAY, 0, STATIC
        FUNCALL ZDApp_ProcessOSALMsg, NLME_SetQueuedPollRate
        LOCFRAME ISTACK, 0, STACK
        LOCFRAME PSTACK, 0, STACK
        LOCFRAME XSTACK, 16, STACK
        LOCFRAME IOVERLAY, 0, STATIC
        LOCFRAME DOVERLAY, 0, STATIC
        ARGFRAME ISTACK, 0, STACK
        ARGFRAME PSTACK, 0, STACK
        ARGFRAME XSTACK, 16, STACK
        ARGFRAME IOVERLAY, 0, STATIC
        ARGFRAME DOVERLAY, 0, STATIC
        FUNCALL ZDApp_ProcessOSALMsg, NLME_SetResponseRate
        LOCFRAME ISTACK, 0, STACK
        LOCFRAME PSTACK, 0, STACK
        LOCFRAME XSTACK, 16, STACK
        LOCFRAME IOVERLAY, 0, STATIC
        LOCFRAME DOVERLAY, 0, STATIC
        ARGFRAME ISTACK, 0, STACK
        ARGFRAME PSTACK, 0, STACK
        ARGFRAME XSTACK, 16, STACK
        ARGFRAME IOVERLAY, 0, STATIC
        ARGFRAME DOVERLAY, 0, STATIC
        FUNCALL ZDApp_ProcessOSALMsg, osal_rand
        LOCFRAME ISTACK, 0, STACK
        LOCFRAME PSTACK, 0, STACK
        LOCFRAME XSTACK, 16, STACK
        LOCFRAME IOVERLAY, 0, STATIC
        LOCFRAME DOVERLAY, 0, STATIC
        ARGFRAME ISTACK, 0, STACK
        ARGFRAME PSTACK, 0, STACK
        ARGFRAME XSTACK, 16, STACK
        ARGFRAME IOVERLAY, 0, STATIC
        ARGFRAME DOVERLAY, 0, STATIC
        FUNCALL ZDApp_ProcessOSALMsg, ZDApp_NetworkInit
        LOCFRAME ISTACK, 0, STACK
        LOCFRAME PSTACK, 0, STACK
        LOCFRAME XSTACK, 16, STACK
        LOCFRAME IOVERLAY, 0, STATIC
        LOCFRAME DOVERLAY, 0, STATIC
        ARGFRAME ISTACK, 0, STACK
        ARGFRAME PSTACK, 0, STACK
        ARGFRAME XSTACK, 16, STACK
        ARGFRAME IOVERLAY, 0, STATIC
        ARGFRAME DOVERLAY, 0, STATIC
        FUNCALL ZDApp_ProcessOSALMsg, ZDApp_ProcessNetworkJoin
        LOCFRAME ISTACK, 0, STACK
        LOCFRAME PSTACK, 0, STACK
        LOCFRAME XSTACK, 16, STACK
        LOCFRAME IOVERLAY, 0, STATIC
        LOCFRAME DOVERLAY, 0, STATIC
        ARGFRAME ISTACK, 0, STACK
        ARGFRAME PSTACK, 0, STACK
        ARGFRAME XSTACK, 16, STACK
        ARGFRAME IOVERLAY, 0, STATIC
        ARGFRAME DOVERLAY, 0, STATIC
        FUNCALL ZDApp_ProcessOSALMsg, sAddrExtCpy
        LOCFRAME ISTACK, 0, STACK
        LOCFRAME PSTACK, 0, STACK
        LOCFRAME XSTACK, 16, STACK
        LOCFRAME IOVERLAY, 0, STATIC
        LOCFRAME DOVERLAY, 0, STATIC
        ARGFRAME ISTACK, 0, STACK
        ARGFRAME PSTACK, 0, STACK
        ARGFRAME XSTACK, 16, STACK
        ARGFRAME IOVERLAY, 0, STATIC
        ARGFRAME DOVERLAY, 0, STATIC
        FUNCALL ZDApp_ProcessOSALMsg, ZDApp_NetworkInit
        LOCFRAME ISTACK, 0, STACK
        LOCFRAME PSTACK, 0, STACK
        LOCFRAME XSTACK, 16, STACK
        LOCFRAME IOVERLAY, 0, STATIC
        LOCFRAME DOVERLAY, 0, STATIC
        ARGFRAME ISTACK, 0, STACK
        ARGFRAME PSTACK, 0, STACK
        ARGFRAME XSTACK, 16, STACK
        ARGFRAME IOVERLAY, 0, STATIC
        ARGFRAME DOVERLAY, 0, STATIC
        MOV     A,#-0xf
        LCALL   ?BANKED_ENTER_XDATA
        CFI DPH0 load(1, XDATA, add(CFA_XSP16, literal(-1)))
        CFI DPL0 load(1, XDATA, add(CFA_XSP16, literal(-2)))
        CFI ?BRET_EXT load(1, XDATA, add(CFA_XSP16, literal(-3)))
        CFI ?RET_HIGH load(1, XDATA, add(CFA_XSP16, literal(-4)))
        CFI ?RET_LOW load(1, XDATA, add(CFA_XSP16, literal(-5)))
        CFI R7 load(1, XDATA, add(CFA_XSP16, literal(-6)))
        CFI V6 load(1, XDATA, add(CFA_XSP16, literal(-7)))
        CFI V5 load(1, XDATA, add(CFA_XSP16, literal(-8)))
        CFI V4 load(1, XDATA, add(CFA_XSP16, literal(-9)))
        CFI V3 load(1, XDATA, add(CFA_XSP16, literal(-10)))
        CFI V2 load(1, XDATA, add(CFA_XSP16, literal(-11)))
        CFI V1 load(1, XDATA, add(CFA_XSP16, literal(-12)))
        CFI V0 load(1, XDATA, add(CFA_XSP16, literal(-13)))
        CFI VB load(1, XDATA, add(CFA_XSP16, literal(-14)))
        CFI R6 load(1, XDATA, add(CFA_XSP16, literal(-15)))
        CFI CFA_SP SP+0
        CFI CFA_XSP16 add(XSP16, 15)
        ; Saved register size: 15
        ; Auto size: 1
        MOV     A,#-0x1
        LCALL   ?ALLOC_XSTACK8
        CFI CFA_XSP16 add(XSP16, 16)
        MOV     A,R2
        MOV     R6,A
        MOV     A,R3
        MOV     R7,A
//  976   // Data Confirmation message fields
//  977   uint8 sentEP;       // This should always be 0
//  978   uint8 sentStatus;
//  979   afDataConfirm_t *afDataConfirm;
//  980   uint8 tmp;
//  981 
//  982   switch ( msgPtr->event )
        MOV     DPL,R6
        MOV     DPH,R7
        MOVX    A,@DPTR
        DEC     A
        JZ      ??ZDApp_ProcessOSALMsg_0
        DEC     A
        JNZ     $+5
        LJMP    ??ZDApp_ProcessOSALMsg_1 & 0xFFFF
        DEC     A
        JNZ     $+5
        LJMP    ??ZDApp_ProcessOSALMsg_2 & 0xFFFF
        ADD     A,#-0x17
        JZ      ??ZDApp_ProcessOSALMsg_3
        ADD     A,#0x47
        JZ      ??ZDApp_ProcessOSALMsg_4
        ADD     A,#-0x2a
        JZ      ??ZDApp_ProcessOSALMsg_5
        LJMP    ??ZDApp_ProcessOSALMsg_6 & 0xFFFF
//  983   {
//  984     // Incoming ZDO Message
//  985     case AF_INCOMING_MSG_CMD:   // 0x1A, AF 
//  986       ZDP_IncomingData( (afIncomingMSGPacket_t *)msgPtr );
??ZDApp_ProcessOSALMsg_3:
        ; Setup parameters for call to function ZDP_IncomingData
        LCALL   ??ZDP_IncomingData?relay
//  987       break;
        LJMP    ??ZDApp_ProcessOSALMsg_6 & 0xFFFF
//  988       
//  989     case ZDO_CB_MSG:	// 0xD3
//  990       ZDApp_ProcessMsgCBs( (zdoIncomingMsg_t *)msgPtr );
??ZDApp_ProcessOSALMsg_4:
        ; Setup parameters for call to function ZDApp_ProcessMsgCBs
        LCALL   ??ZDApp_ProcessMsgCBs?relay
//  991       break;
        LJMP    ??ZDApp_ProcessOSALMsg_6 & 0xFFFF
//  992 
//  993     case AF_DATA_CONFIRM_CMD:
//  994       // This message is received as a confirmation of a data packet sent.
//  995       // The status is of ZStatus_t type [defined in NLMEDE.h]
//  996       // The message fields are defined in AF.h
//  997       afDataConfirm = (afDataConfirm_t *)msgPtr;
//  998       sentEP = afDataConfirm->endpoint;
//  999       sentStatus = afDataConfirm->hdr.status;
// 1000 
// 1001       // Action taken when confirmation is received.
// 1002 #if defined ( ZIGBEE_FREQ_AGILITY )
// 1003       if ( pZDNwkMgr_ProcessDataConfirm )
??ZDApp_ProcessOSALMsg_5:
        MOV     DPTR,#pZDNwkMgr_ProcessDataConfirm
        LCALL   ?Subroutine12 & 0xFFFF
??CrossCallReturnLabel_9:
        JNZ     $+5
        LJMP    ??ZDApp_ProcessOSALMsg_6 & 0xFFFF
// 1004         pZDNwkMgr_ProcessDataConfirm( afDataConfirm );
        ; Setup parameters for indirect call
        MOVX    A,@DPTR
        MOV     DPH,A
        MOV     DPL,R0
        LCALL   ?CALL_IND
        LJMP    ??ZDApp_ProcessOSALMsg_6 & 0xFFFF
// 1005 #endif
// 1006       (void)sentEP;
// 1007       (void)sentStatus;
// 1008       break;
// 1009 
// 1010     case ZDO_NWK_DISC_CNF:  // 
// 1011       // devState  ZDObject.c  ZDO_StartDevice() 
// 1012       if (devState != DEV_NWK_DISC)
??ZDApp_ProcessOSALMsg_0:
        MOV     DPTR,#devState
        MOVX    A,@DPTR
        XRL     A,#0x2
        JZ      $+5
        LJMP    ??ZDApp_ProcessOSALMsg_6 & 0xFFFF
// 1013         break;
// 1014       
// 1015       if ( ZG_BUILD_JOINING_TYPE && ZG_DEVICE_JOINING_TYPE )
        MOV     DPTR,#zgDeviceLogicalType
        MOVX    A,@DPTR
        XRL     A,#0x1
        JZ      ??ZDApp_ProcessOSALMsg_7
        MOVX    A,@DPTR
        XRL     A,#0x2
        JZ      $+5
        LJMP    ??ZDApp_ProcessOSALMsg_6 & 0xFFFF
// 1016       {
// 1017         if ( (((ZDO_NetworkDiscoveryCfm_t *)msgPtr)->hdr.status == ZDO_SUCCESS) && (zdoDiscCounter > NUM_DISC_ATTEMPTS) )
??ZDApp_ProcessOSALMsg_7:
        MOV     DPL,R6
        MOV     DPH,R7
        INC     DPTR
        MOVX    A,@DPTR
        JZ      $+5
        LJMP    ??ZDApp_ProcessOSALMsg_8 & 0xFFFF
        MOV     DPTR,#zdoDiscCounter
        MOVX    A,@DPTR
        CLR     C
        SUBB    A,#0x3
        JNC     $+5
        LJMP    ??ZDApp_ProcessOSALMsg_8 & 0xFFFF
// 1018         {
// 1019           if ( devStartMode == MODE_JOIN )
        MOV     A,R6
        ADD     A,#0x3
        LCALL   ?Subroutine21 & 0xFFFF
??CrossCallReturnLabel_34:
        ADD     A,#0x2
        DEC     R0
        MOV     A,R7
        ADDC    A,#0x0
        MOV     R1,A
        MOV     ?V0 + 2,R0
        MOV     ?V0 + 3,R1
        MOV     A,R6
        ADD     A,#0x4
        INC     R0
        INC     R0
        MOV     A,R7
        ADDC    A,#0x0
        MOV     R1,A
        MOV     ?V0 + 4,R0
        MOV     ?V0 + 5,R1
        MOV     DPTR,#devStartMode
        MOVX    A,@DPTR
        JNZ     ??ZDApp_ProcessOSALMsg_9
// 1020           {
// 1021             devState = DEV_NWK_JOINING;
        MOV     DPTR,#devState
        MOV     A,#0x3
        MOVX    @DPTR,A
// 1022   
// 1023             ZDApp_NodeProfileSync((ZDO_NetworkDiscoveryCfm_t *)msgPtr);
        ; Setup parameters for call to function ZDApp_NodeProfileSync
        LCALL   ??ZDApp_NodeProfileSync?relay
// 1024   
// 1025             // 
// 1026             //  ZDO_JoinConfirmCB() 
// 1027             if ( NLME_JoinRequest( ((ZDO_NetworkDiscoveryCfm_t *)msgPtr)->extendedPANID,
// 1028                  BUILD_UINT16( ((ZDO_NetworkDiscoveryCfm_t *)msgPtr)->panIdLSB, ((ZDO_NetworkDiscoveryCfm_t *)msgPtr)->panIdMSB ),
// 1029                  ((ZDO_NetworkDiscoveryCfm_t *)msgPtr)->logicalChannel,
// 1030                  ZDO_Config_Node_Descriptor.CapabilityFlags ) != ZSuccess )
        ; Setup parameters for call to function NLME_JoinRequest
        MOV     DPTR,#ZDO_Config_Node_Descriptor + 2
        MOVX    A,@DPTR
        MOV     ?V0 + 6,A
        MOV     R0,#?V0 + 6
        LCALL   ?PUSH_XSTACK_I_ONE
        CFI CFA_XSP16 add(XSP16, 17)
        MOV     DPL,?V0 + 4
        MOV     DPH,?V0 + 5
        MOVX    A,@DPTR
        MOV     R1,A
        MOV     DPL,?V0 + 2
        MOV     DPH,?V0 + 3
        MOVX    A,@DPTR
        MOV     R4,A
        MOV     DPL,?V0 + 0
        MOV     DPH,?V0 + 1
        MOVX    A,@DPTR
        MOV     R3,A
        MOV     A,R4
        ADD     A,#0x0
        CLR     A
        ADDC    A,R3
        MOV     R5,A
        MOV     A,R6
        ADD     A,#0x6
        MOV     R2,A
        MOV     A,R7
        ADDC    A,#0x0
        MOV     R3,A
        LCALL   ??NLME_JoinRequest?relay
        MOV     A,#0x1
        LCALL   ?DEALLOC_XSTACK8
        CFI CFA_XSP16 add(XSP16, 16)
        SJMP    ??ZDApp_ProcessOSALMsg_10
// 1031             {
// 1032               ZDApp_NetworkInit( (uint16)(NWK_START_DELAY
// 1033                   + ((uint16)(osal_rand()& EXTENDED_JOINING_RANDOM_MASK))) );
// 1034             }
// 1035           }
// 1036           else if ( devStartMode == MODE_REJOIN )
??ZDApp_ProcessOSALMsg_9:
        XRL     A,#0x3
        JNZ     ??CrossCallReturnLabel_32
// 1037           {
// 1038             devState = DEV_NWK_REJOIN;
        MOV     DPTR,#devState
        MOV     A,#0x4
        MOVX    @DPTR,A
// 1039 
// 1040             // Before trying to do rejoin, check if the device has a valid short address
// 1041             // If not, generate a random short address for itself
// 1042             if ( _NIB.nwkDevAddress == INVALID_NODE_ADDR )
        MOV     DPTR,#_NIB + 20
        MOVX    A,@DPTR
        XRL     A,#0xfe
        JNZ     ??ZDApp_ProcessOSALMsg_11
        INC     DPTR
        MOVX    A,@DPTR
        CPL     A
??ZDApp_ProcessOSALMsg_11:
        JNZ     ??ZDApp_ProcessOSALMsg_12
// 1043             {
// 1044               _NIB.nwkDevAddress = osal_rand();
        ; Setup parameters for call to function osal_rand
        LCALL   ??osal_rand?relay
        MOV     DPTR,#_NIB + 20
        LCALL   ??Subroutine36_0 & 0xFFFF
// 1045               ZMacSetReq( ZMacShortAddress, (byte*)&_NIB.nwkDevAddress );
??CrossCallReturnLabel_76:
        ; Setup parameters for call to function ZMacSetReq
        MOV     R2,#(_NIB + 20) & 0xff
        MOV     R3,#((_NIB + 20) >> 8) & 0xff
        MOV     R1,#0x53
        LCALL   ??ZMacSetReq?relay
// 1046             }
// 1047 
// 1048             if ( ZG_SECURE_ENABLED )
// 1049             {
// 1050               ZDApp_RestoreNwkKey();
// 1051             }
// 1052             
// 1053             // Check if the device has a valid PanID, if not, set it to the discovered Pan
// 1054             if ( _NIB.nwkPanId == INVALID_PAN_ID )
??ZDApp_ProcessOSALMsg_12:
        MOV     DPTR,#_NIB + 33
        MOVX    A,@DPTR
        XRL     A,#0xfe
        JNZ     ??ZDApp_ProcessOSALMsg_13
        INC     DPTR
        MOVX    A,@DPTR
        CPL     A
??ZDApp_ProcessOSALMsg_13:
        JNZ     ??ZDApp_ProcessOSALMsg_14
// 1055             {
// 1056               _NIB.nwkPanId = BUILD_UINT16( ((ZDO_NetworkDiscoveryCfm_t *)msgPtr)->panIdLSB, ((ZDO_NetworkDiscoveryCfm_t *)msgPtr)->panIdMSB );
        MOV     DPL,?V0 + 2
        MOV     DPH,?V0 + 3
        MOVX    A,@DPTR
        MOV     R2,A
        MOV     DPL,?V0 + 0
        MOV     DPH,?V0 + 1
        MOVX    A,@DPTR
        MOV     R1,A
        MOV     A,R2
        MOV     DPTR,#_NIB + 33
        MOVX    @DPTR,A
        INC     DPTR
        MOV     A,R1
        MOVX    @DPTR,A
// 1057               ZMacSetReq( ZMacPanId, (byte*)&(_NIB.nwkPanId) );
        ; Setup parameters for call to function ZMacSetReq
        MOV     R2,#(_NIB + 33) & 0xff
        MOV     R3,#((_NIB + 33) >> 8) & 0xff
        MOV     R1,#0x50
        LCALL   ??ZMacSetReq?relay
// 1058             }
// 1059 
// 1060             tmp = true;
??ZDApp_ProcessOSALMsg_14:
        MOV     DPL,?XSP + 0
        MOV     DPH,?XSP + 1
        MOV     A,#0x1
        MOVX    @DPTR,A
// 1061             ZMacSetReq( ZMacRxOnIdle, &tmp ); // Set receiver always on during rejoin 
        ; Setup parameters for call to function ZMacSetReq
        MOV     R2,DPL
        MOV     R3,DPH
        MOV     R1,#0x52
        LCALL   ??ZMacSetReq?relay
// 1062             
// 1063             // 
// 1064             //  ZDO_JoinConfirmCB() 
// 1065             if ( NLME_ReJoinRequest( ZDO_UseExtendedPANID, ((ZDO_NetworkDiscoveryCfm_t *)msgPtr)->logicalChannel) != ZSuccess )
        ; Setup parameters for call to function NLME_ReJoinRequest
        MOV     DPL,?V0 + 4
        MOV     DPH,?V0 + 5
        MOVX    A,@DPTR
        MOV     R1,A
        MOV     R2,#ZDO_UseExtendedPANID & 0xff
        MOV     R3,#(ZDO_UseExtendedPANID >> 8) & 0xff
        LCALL   ??NLME_ReJoinRequest?relay
??ZDApp_ProcessOSALMsg_10:
        MOV     A,R1
        JZ      ??CrossCallReturnLabel_32
// 1066             {
// 1067               ZDApp_NetworkInit( (uint16)(NWK_START_DELAY
// 1068                   + ((uint16)(osal_rand()& EXTENDED_JOINING_RANDOM_MASK))) );
        ; Setup parameters for call to function ZDApp_NetworkInit
        ; Setup parameters for call to function osal_rand
        LCALL   ?Subroutine20 & 0xFFFF
// 1069             }
// 1070           }
// 1071   
// 1072           if ( ZDO_Config_Node_Descriptor.CapabilityFlags & CAPINFO_RCVR_ON_IDLE )
??CrossCallReturnLabel_32:
        MOV     DPTR,#ZDO_Config_Node_Descriptor + 2
        MOVX    A,@DPTR
        MOV     C,0xE0 /* A   */.3
        JNC     ??ZDApp_ProcessOSALMsg_6
// 1073           {
// 1074             // The receiver is on, turn network layer polling off.
// 1075             NLME_SetPollRate( 0 );
        ; Setup parameters for call to function NLME_SetPollRate
        LCALL   ?Subroutine18 & 0xFFFF
// 1076             NLME_SetQueuedPollRate( 0 );
// 1077             NLME_SetResponseRate( 0 );
// 1078           }
// 1079           else
// 1080           {
// 1081             if ( (ZG_SECURE_ENABLED) && (devStartMode == MODE_JOIN) )
// 1082             {
// 1083               ZDApp_SavedPollRate = zgPollRate;
// 1084               NLME_SetPollRate( zgRejoinPollRate );
// 1085             }
// 1086           }
// 1087         }
??CrossCallReturnLabel_28:
        SJMP    ??ZDApp_ProcessOSALMsg_6
// 1088         else
// 1089         {
// 1090           if ( continueJoining )
??ZDApp_ProcessOSALMsg_8:
        MOV     DPTR,#continueJoining
        MOVX    A,@DPTR
        JZ      ??ZDApp_ProcessOSALMsg_6
// 1091           {
// 1092     #if defined ( MANAGED_SCAN )
// 1093             ZDApp_NetworkInit( MANAGEDSCAN_DELAY_BETWEEN_SCANS );
// 1094     #else
// 1095             zdoDiscCounter++;
        MOV     DPTR,#zdoDiscCounter
        MOVX    A,@DPTR
        INC     A
        MOVX    @DPTR,A
// 1096             ZDApp_NetworkInit( (uint16)(BEACON_REQUEST_DELAY
// 1097                   + ((uint16)(osal_rand()& BEACON_REQ_DELAY_MASK))) );
        ; Setup parameters for call to function ZDApp_NetworkInit
        ; Setup parameters for call to function osal_rand
        LCALL   ??osal_rand?relay
        MOV     A,R2
        ADD     A,#0x64
        MOV     R2,A
        CLR     A
        ADDC    A,#0x0
        MOV     R3,A
        SJMP    ??ZDApp_ProcessOSALMsg_15
// 1098     #endif
// 1099           }
// 1100         }
// 1101       }
// 1102       break;
// 1103 
// 1104       //  ZDO_JoinConfirmCB()  ZDO_NWK_JOIN_IND 
// 1105     case ZDO_NWK_JOIN_IND:  // 
// 1106       if ( ZG_BUILD_JOINING_TYPE && ZG_DEVICE_JOINING_TYPE )
??ZDApp_ProcessOSALMsg_1:
        MOV     DPTR,#zgDeviceLogicalType
        MOVX    A,@DPTR
        XRL     A,#0x1
        JZ      ??ZDApp_ProcessOSALMsg_16
        MOVX    A,@DPTR
        XRL     A,#0x2
        JNZ     ??ZDApp_ProcessOSALMsg_6
// 1107       {
// 1108         ZDApp_ProcessNetworkJoin();
??ZDApp_ProcessOSALMsg_16:
        ; Setup parameters for call to function ZDApp_ProcessNetworkJoin
        LCALL   ??ZDApp_ProcessNetworkJoin?relay
        SJMP    ??ZDApp_ProcessOSALMsg_6
// 1109       }
// 1110       break;
// 1111 
// 1112     case ZDO_NWK_JOIN_REQ:
// 1113       if ( ZG_BUILD_JOINING_TYPE && ZG_DEVICE_JOINING_TYPE )
??ZDApp_ProcessOSALMsg_2:
        MOV     DPTR,#zgDeviceLogicalType
        MOVX    A,@DPTR
        XRL     A,#0x1
        JZ      ??ZDApp_ProcessOSALMsg_17
        MOVX    A,@DPTR
        XRL     A,#0x2
        JNZ     ??ZDApp_ProcessOSALMsg_6
// 1114       {
// 1115         retryCnt = 0;
??ZDApp_ProcessOSALMsg_17:
        MOV     DPTR,#retryCnt
        CLR     A
        MOVX    @DPTR,A
// 1116         devStartMode = MODE_RESUME;
        MOV     DPTR,#devStartMode
        INC     A
        MOVX    @DPTR,A
// 1117         _tmpRejoinState = true;
        MOV     DPTR,#_tmpRejoinState
        LCALL   ?Subroutine6 & 0xFFFF
// 1118         osal_cpyExtAddr( ZDO_UseExtendedPANID, _NIB.extendedPANID );
// 1119         zgDefaultStartingScanDuration = BEACON_ORDER_60_MSEC;
??CrossCallReturnLabel_3:
        MOV     DPTR,#zgDefaultStartingScanDuration
        MOV     A,#0x2
        MOVX    @DPTR,A
// 1120         ZDApp_NetworkInit( 0 );
        ; Setup parameters for call to function ZDApp_NetworkInit
        MOV     R2,#0x0
        MOV     R3,#0x0
??ZDApp_ProcessOSALMsg_15:
        LCALL   ??ZDApp_NetworkInit?relay
// 1121       }
// 1122       break;
// 1123 
// 1124     default:
// 1125       if ( ZG_SECURE_ENABLED )
// 1126         ZDApp_ProcessSecMsg( msgPtr );
// 1127       break;
// 1128   }
// 1129 
// 1130 }
??ZDApp_ProcessOSALMsg_6:
        MOV     A,#0x1
        LCALL   ?DEALLOC_XSTACK8
        CFI CFA_XSP16 add(XSP16, 15)
        MOV     R7,#0x7
        LJMP    ?BANKED_LEAVE_XDATA
        CFI EndBlock cfiBlock27

        RSEG BANKED_CODE:CODE:NOROOT(0)
?Subroutine6:
        CFI Block cfiCond28 Using cfiCommon0
        CFI NoFunction
        CFI Conditional ??CrossCallReturnLabel_2
        CFI R6 load(1, XDATA, add(CFA_XSP16, literal(-9)))
        CFI VB load(1, XDATA, add(CFA_XSP16, literal(-8)))
        CFI V0 load(1, XDATA, add(CFA_XSP16, literal(-7)))
        CFI R7 load(1, XDATA, add(CFA_XSP16, literal(-6)))
        CFI ?RET_LOW load(1, XDATA, add(CFA_XSP16, literal(-5)))
        CFI ?RET_HIGH load(1, XDATA, add(CFA_XSP16, literal(-4)))
        CFI ?BRET_EXT load(1, XDATA, add(CFA_XSP16, literal(-3)))
        CFI DPL0 load(1, XDATA, add(CFA_XSP16, literal(-2)))
        CFI DPH0 load(1, XDATA, add(CFA_XSP16, literal(-1)))
        CFI CFA_SP SP+0
        CFI CFA_XSP16 add(XSP16, 9)
        CFI Block cfiCond29 Using cfiCommon0
        CFI (cfiCond29) NoFunction
        CFI (cfiCond29) Conditional ??CrossCallReturnLabel_3
        CFI (cfiCond29) R6 load(1, XDATA, add(CFA_XSP16, literal(-15)))
        CFI (cfiCond29) VB load(1, XDATA, add(CFA_XSP16, literal(-14)))
        CFI (cfiCond29) V0 load(1, XDATA, add(CFA_XSP16, literal(-13)))
        CFI (cfiCond29) V1 load(1, XDATA, add(CFA_XSP16, literal(-12)))
        CFI (cfiCond29) V2 load(1, XDATA, add(CFA_XSP16, literal(-11)))
        CFI (cfiCond29) V3 load(1, XDATA, add(CFA_XSP16, literal(-10)))
        CFI (cfiCond29) V4 load(1, XDATA, add(CFA_XSP16, literal(-9)))
        CFI (cfiCond29) V5 load(1, XDATA, add(CFA_XSP16, literal(-8)))
        CFI (cfiCond29) V6 load(1, XDATA, add(CFA_XSP16, literal(-7)))
        CFI (cfiCond29) R7 load(1, XDATA, add(CFA_XSP16, literal(-6)))
        CFI (cfiCond29) ?RET_LOW load(1, XDATA, add(CFA_XSP16, literal(-5)))
        CFI (cfiCond29) ?RET_HIGH load(1, XDATA, add(CFA_XSP16, literal(-4)))
        CFI (cfiCond29) ?BRET_EXT load(1, XDATA, add(CFA_XSP16, literal(-3)))
        CFI (cfiCond29) DPL0 load(1, XDATA, add(CFA_XSP16, literal(-2)))
        CFI (cfiCond29) DPH0 load(1, XDATA, add(CFA_XSP16, literal(-1)))
        CFI (cfiCond29) CFA_SP SP+0
        CFI (cfiCond29) CFA_XSP16 add(XSP16, 16)
        CFI Block cfiPicker30 Using cfiCommon1
        CFI (cfiPicker30) NoFunction
        CFI (cfiPicker30) Picker
        MOVX    @DPTR,A
        ; Setup parameters for call to function sAddrExtCpy
        ; Setup parameters for call to function sAddrExtCpy
        MOV     R4,#(_NIB + 53) & 0xff
        MOV     R5,#((_NIB + 53) >> 8) & 0xff
        MOV     R2,#ZDO_UseExtendedPANID & 0xff
        MOV     R3,#(ZDO_UseExtendedPANID >> 8) & 0xff
        LCALL   ??sAddrExtCpy?relay
        RET
        CFI EndBlock cfiCond28
        CFI EndBlock cfiCond29
        CFI EndBlock cfiPicker30
// 1131 
// 1132 /*********************************************************************
// 1133  * @fn      ZDApp_ProcessMsgCBs()
// 1134  *
// 1135  * @brief   Process response messages
// 1136  *
// 1137  * @param   none
// 1138  *
// 1139  * @return  none
// 1140  */

        RSEG BANKED_CODE:CODE:NOROOT(0)
// 1141 void ZDApp_ProcessMsgCBs( zdoIncomingMsg_t *inMsg )
ZDApp_ProcessMsgCBs:
        CFI Block cfiBlock31 Using cfiCommon0
        CFI Function ZDApp_ProcessMsgCBs
        CODE
// 1142 {
        FUNCALL ZDApp_ProcessMsgCBs, ZDO_ParseAddrRsp
        LOCFRAME ISTACK, 0, STACK
        LOCFRAME PSTACK, 0, STACK
        LOCFRAME XSTACK, 54, STACK
        LOCFRAME IOVERLAY, 0, STATIC
        LOCFRAME DOVERLAY, 0, STATIC
        ARGFRAME ISTACK, 0, STACK
        ARGFRAME PSTACK, 0, STACK
        ARGFRAME XSTACK, 54, STACK
        ARGFRAME IOVERLAY, 0, STATIC
        ARGFRAME DOVERLAY, 0, STATIC
        FUNCALL ZDApp_ProcessMsgCBs, ZDO_UpdateAddrManager
        LOCFRAME ISTACK, 0, STACK
        LOCFRAME PSTACK, 0, STACK
        LOCFRAME XSTACK, 54, STACK
        LOCFRAME IOVERLAY, 0, STATIC
        LOCFRAME DOVERLAY, 0, STATIC
        ARGFRAME ISTACK, 0, STACK
        ARGFRAME PSTACK, 0, STACK
        ARGFRAME XSTACK, 54, STACK
        ARGFRAME IOVERLAY, 0, STATIC
        ARGFRAME DOVERLAY, 0, STATIC
        FUNCALL ZDApp_ProcessMsgCBs, osal_mem_free
        LOCFRAME ISTACK, 0, STACK
        LOCFRAME PSTACK, 0, STACK
        LOCFRAME XSTACK, 54, STACK
        LOCFRAME IOVERLAY, 0, STATIC
        LOCFRAME DOVERLAY, 0, STATIC
        ARGFRAME ISTACK, 0, STACK
        ARGFRAME PSTACK, 0, STACK
        ARGFRAME XSTACK, 54, STACK
        ARGFRAME IOVERLAY, 0, STATIC
        ARGFRAME DOVERLAY, 0, STATIC
        FUNCALL ZDApp_ProcessMsgCBs, ZDO_ParseBindUnbindReq
        LOCFRAME ISTACK, 0, STACK
        LOCFRAME PSTACK, 0, STACK
        LOCFRAME XSTACK, 54, STACK
        LOCFRAME IOVERLAY, 0, STATIC
        LOCFRAME DOVERLAY, 0, STATIC
        ARGFRAME ISTACK, 0, STACK
        ARGFRAME PSTACK, 0, STACK
        ARGFRAME XSTACK, 54, STACK
        ARGFRAME IOVERLAY, 0, STATIC
        ARGFRAME DOVERLAY, 0, STATIC
        FUNCALL ZDApp_ProcessMsgCBs, ZDO_ProcessBindUnbindReq
        LOCFRAME ISTACK, 0, STACK
        LOCFRAME PSTACK, 0, STACK
        LOCFRAME XSTACK, 54, STACK
        LOCFRAME IOVERLAY, 0, STATIC
        LOCFRAME DOVERLAY, 0, STATIC
        ARGFRAME ISTACK, 0, STACK
        ARGFRAME PSTACK, 0, STACK
        ARGFRAME XSTACK, 54, STACK
        ARGFRAME IOVERLAY, 0, STATIC
        ARGFRAME DOVERLAY, 0, STATIC
        FUNCALL ZDApp_ProcessMsgCBs, ZDMatchSendState
        LOCFRAME ISTACK, 0, STACK
        LOCFRAME PSTACK, 0, STACK
        LOCFRAME XSTACK, 54, STACK
        LOCFRAME IOVERLAY, 0, STATIC
        LOCFRAME DOVERLAY, 0, STATIC
        ARGFRAME ISTACK, 0, STACK
        ARGFRAME PSTACK, 0, STACK
        ARGFRAME XSTACK, 54, STACK
        ARGFRAME IOVERLAY, 0, STATIC
        ARGFRAME DOVERLAY, 0, STATIC
        FUNCALL ZDApp_ProcessMsgCBs, ZDO_ParseEndDeviceBindReq
        LOCFRAME ISTACK, 0, STACK
        LOCFRAME PSTACK, 0, STACK
        LOCFRAME XSTACK, 54, STACK
        LOCFRAME IOVERLAY, 0, STATIC
        LOCFRAME DOVERLAY, 0, STATIC
        ARGFRAME ISTACK, 0, STACK
        ARGFRAME PSTACK, 0, STACK
        ARGFRAME XSTACK, 54, STACK
        ARGFRAME IOVERLAY, 0, STATIC
        ARGFRAME DOVERLAY, 0, STATIC
        FUNCALL ZDApp_ProcessMsgCBs, ZDO_MatchEndDeviceBind
        LOCFRAME ISTACK, 0, STACK
        LOCFRAME PSTACK, 0, STACK
        LOCFRAME XSTACK, 54, STACK
        LOCFRAME IOVERLAY, 0, STATIC
        LOCFRAME DOVERLAY, 0, STATIC
        ARGFRAME ISTACK, 0, STACK
        ARGFRAME PSTACK, 0, STACK
        ARGFRAME XSTACK, 54, STACK
        ARGFRAME IOVERLAY, 0, STATIC
        ARGFRAME DOVERLAY, 0, STATIC
        FUNCALL ZDApp_ProcessMsgCBs, osal_mem_free
        LOCFRAME ISTACK, 0, STACK
        LOCFRAME PSTACK, 0, STACK
        LOCFRAME XSTACK, 54, STACK
        LOCFRAME IOVERLAY, 0, STATIC
        LOCFRAME DOVERLAY, 0, STATIC
        ARGFRAME ISTACK, 0, STACK
        ARGFRAME PSTACK, 0, STACK
        ARGFRAME XSTACK, 54, STACK
        ARGFRAME IOVERLAY, 0, STATIC
        ARGFRAME DOVERLAY, 0, STATIC
        FUNCALL ZDApp_ProcessMsgCBs, osal_mem_free
        LOCFRAME ISTACK, 0, STACK
        LOCFRAME PSTACK, 0, STACK
        LOCFRAME XSTACK, 54, STACK
        LOCFRAME IOVERLAY, 0, STATIC
        LOCFRAME DOVERLAY, 0, STATIC
        ARGFRAME ISTACK, 0, STACK
        ARGFRAME PSTACK, 0, STACK
        ARGFRAME XSTACK, 54, STACK
        ARGFRAME IOVERLAY, 0, STATIC
        ARGFRAME DOVERLAY, 0, STATIC
        MOV     A,#-0xa
        LCALL   ?BANKED_ENTER_XDATA
        CFI DPH0 load(1, XDATA, add(CFA_XSP16, literal(-1)))
        CFI DPL0 load(1, XDATA, add(CFA_XSP16, literal(-2)))
        CFI ?BRET_EXT load(1, XDATA, add(CFA_XSP16, literal(-3)))
        CFI ?RET_HIGH load(1, XDATA, add(CFA_XSP16, literal(-4)))
        CFI ?RET_LOW load(1, XDATA, add(CFA_XSP16, literal(-5)))
        CFI R7 load(1, XDATA, add(CFA_XSP16, literal(-6)))
        CFI V1 load(1, XDATA, add(CFA_XSP16, literal(-7)))
        CFI V0 load(1, XDATA, add(CFA_XSP16, literal(-8)))
        CFI VB load(1, XDATA, add(CFA_XSP16, literal(-9)))
        CFI R6 load(1, XDATA, add(CFA_XSP16, literal(-10)))
        CFI CFA_SP SP+0
        CFI CFA_XSP16 add(XSP16, 10)
        ; Saved register size: 10
        ; Auto size: 44
        MOV     A,#-0x2c
        LCALL   ?ALLOC_XSTACK8
        CFI CFA_XSP16 add(XSP16, 54)
        MOV     A,R2
        MOV     R6,A
        MOV     A,R3
        MOV     R7,A
// 1143   switch ( inMsg->clusterID )
        MOV     A,R6
        ADD     A,#0xc
        MOV     DPL,A
        MOV     A,R7
        ADDC    A,#0x0
        MOV     DPH,A
        LCALL   ?Subroutine13 & 0xFFFF
??CrossCallReturnLabel_13:
        MOV     ?V0 + 0,R2
        MOV     ?V0 + 1,R3
        MOV     R0,#?V0 + 0
        LCALL   ?US_SWITCH_SPARSE
`?<Jumptable for ZDApp_ProcessMsgCBs>_0`:
        DATA
        DATA16
        DATA
        DATA16
        DATA
        DATA16
        DW        3
        DATA
        DATA16
        DATA
        DATA16
        DATA
        DATA16
        DW        33
        DATA
        DATA16
        DATA
        DATA16
        DW        34
        DATA
        DATA16
        DATA
        DATA16
        DATA
        DATA16
        DW        ??ZDApp_ProcessMsgCBs_0
        DATA
        DATA16
        DATA
        DATA16
        DATA
        DATA16
        DW        32768
        DATA
        DATA16
        DATA
        DATA16
        DW        32769
        DATA
        DATA16
        DATA
        DATA16
        DATA
        DATA16
        DW        ??ZDApp_ProcessMsgCBs_1
        DATA
        DATA16
        DATA
        DATA16
        DATA
        DATA16
        DW        32801
        DATA
        DATA16
        DATA
        DATA16
        DW        32802
        DATA
        DATA16
        DATA
        DATA16
        DATA
        DATA16
        DW        ??ZDApp_ProcessMsgCBs_2
        DATA
        DATA16
        DATA
        DATA16
        DATA
        DATA16
        DW        1
        DATA
        DATA16
        DATA
        DATA16
        DATA
        DATA16
        DW        32
        DATA
        DATA16
        DATA
        DATA16
        DATA
        DATA16
        DW        ??ZDApp_ProcessMsgCBs_3
        DATA
        DATA16
        DATA
        DATA16
        DW        ??ZDApp_ProcessMsgCBs_4
        CODE
// 1144   {
// 1145 #if defined ( ZDO_NWKADDR_REQUEST ) || defined ( ZDO_IEEEADDR_REQUEST ) || defined ( REFLECTOR )
// 1146     case NWK_addr_rsp:
// 1147     case IEEE_addr_rsp:
// 1148       {
// 1149         ZDO_NwkIEEEAddrResp_t *pAddrRsp;
// 1150         pAddrRsp = ZDO_ParseAddrRsp( inMsg );
??ZDApp_ProcessMsgCBs_1:
        ; Setup parameters for call to function ZDO_ParseAddrRsp
        MOV     A,R6
        MOV     R2,A
        MOV     A,R7
        MOV     R3,A
        LCALL   ??ZDO_ParseAddrRsp?relay
        MOV     ?V0 + 0,R2
        MOV     ?V0 + 1,R3
        MOV     R6,?V0 + 0
        MOV     R7,?V0 + 1
// 1151         if ( pAddrRsp )
        MOV     A,R6
        ORL     A,R7
        JNZ     $+5
        LJMP    ??ZDApp_ProcessMsgCBs_4 & 0xFFFF
// 1152         {
// 1153           if ( pAddrRsp->status == ZSuccess )
        MOV     DPL,R6
        MOV     DPH,R7
        MOVX    A,@DPTR
        JNZ     ??ZDApp_ProcessMsgCBs_5
// 1154           {
// 1155             ZDO_UpdateAddrManager( pAddrRsp->nwkAddr, pAddrRsp->extAddr );
        ; Setup parameters for call to function ZDO_UpdateAddrManager
        MOV     A,R6
        ADD     A,#0x3
        MOV     R4,A
        MOV     A,R7
        ADDC    A,#0x0
        MOV     R5,A
        INC     DPTR
        LCALL   ?Subroutine13 & 0xFFFF
// 1156           }
??CrossCallReturnLabel_14:
        LCALL   ??ZDO_UpdateAddrManager?relay
// 1157           osal_mem_free( pAddrRsp );
??ZDApp_ProcessMsgCBs_5:
        ; Setup parameters for call to function osal_mem_free
        MOV     A,R6
        MOV     R2,A
        MOV     A,R7
        LJMP    ??ZDApp_ProcessMsgCBs_6 & 0xFFFF
// 1158         }
// 1159       }
// 1160       break;
// 1161 #endif
// 1162       
// 1163 #if defined ( REFLECTOR )
// 1164     case Bind_req:
// 1165     case Unbind_req:
// 1166       {
// 1167         ZDO_BindUnbindReq_t bindReq;
// 1168         ZDO_ParseBindUnbindReq( inMsg, &bindReq );
??ZDApp_ProcessMsgCBs_0:
        ; Setup parameters for call to function ZDO_ParseBindUnbindReq
        MOV     A,#0x17
        LCALL   ?XSTACK_DISP0_8
        MOV     R4,DPL
        MOV     R5,DPH
        MOV     A,R6
        MOV     R2,A
        MOV     A,R7
        MOV     R3,A
        LCALL   ??ZDO_ParseBindUnbindReq?relay
// 1169         ZDO_ProcessBindUnbindReq( inMsg, &bindReq );
        ; Setup parameters for call to function ZDO_ProcessBindUnbindReq
        MOV     A,#0x17
        LCALL   ?XSTACK_DISP0_8
        MOV     R4,DPL
        MOV     R5,DPH
        MOV     A,R6
        MOV     R2,A
        MOV     A,R7
        MOV     R3,A
        LCALL   ??ZDO_ProcessBindUnbindReq?relay
// 1170       }
// 1171       break;
        SJMP    ??ZDApp_ProcessMsgCBs_4
// 1172 #endif      
// 1173 
// 1174 #if ( ZG_BUILD_COORDINATOR_TYPE )
// 1175     case Bind_rsp:
// 1176     case Unbind_rsp:
// 1177       if (ZG_DEVICE_COORDINATOR_TYPE && matchED)
??ZDApp_ProcessMsgCBs_2:
        MOV     DPTR,#zgDeviceLogicalType
        MOVX    A,@DPTR
        JNZ     ??ZDApp_ProcessMsgCBs_4
        MOV     DPTR,#matchED
        LCALL   ?Subroutine12 & 0xFFFF
??CrossCallReturnLabel_10:
        JZ      ??ZDApp_ProcessMsgCBs_4
// 1178       {
// 1179         ZDMatchSendState(
// 1180              (uint8)((inMsg->clusterID == Bind_rsp) ? ZDMATCH_REASON_BIND_RSP : ZDMATCH_REASON_UNBIND_RSP),
// 1181              ZDO_ParseBindRsp(inMsg), inMsg->TransSeq );
        MOV     A,#0x21
        XRL     A,R2
        JNZ     ??ZDApp_ProcessMsgCBs_7
        MOV     A,#-0x80
        XRL     A,R3
??ZDApp_ProcessMsgCBs_7:
        JNZ     ??ZDApp_ProcessMsgCBs_8
        MOV     R1,#0x3
        SJMP    ??ZDApp_ProcessMsgCBs_9
??ZDApp_ProcessMsgCBs_8:
        MOV     R1,#0x2
??ZDApp_ProcessMsgCBs_9:
        ; Setup parameters for call to function ZDMatchSendState
        LCALL   ?Subroutine23 & 0xFFFF
// 1182       }
??CrossCallReturnLabel_72:
        MOV     R3,A
        MOV     A,R6
        ADD     A,#0x13
        LCALL   ?Subroutine22 & 0xFFFF
??CrossCallReturnLabel_36:
        MOV     DPH,A
        MOV     DPL,R0
        MOVX    A,@DPTR
        MOV     R2,A
        LCALL   ??ZDMatchSendState?relay
        SJMP    ??ZDApp_ProcessMsgCBs_4
// 1183       break;
// 1184       
// 1185     case End_Device_Bind_req:
// 1186       if (ZG_DEVICE_COORDINATOR_TYPE)
??ZDApp_ProcessMsgCBs_3:
        MOV     DPTR,#zgDeviceLogicalType
        MOVX    A,@DPTR
        JNZ     ??ZDApp_ProcessMsgCBs_4
// 1187       {
// 1188         ZDEndDeviceBind_t bindReq;
// 1189         ZDO_ParseEndDeviceBindReq( inMsg, &bindReq );
        ; Setup parameters for call to function ZDO_ParseEndDeviceBindReq
        MOV     DPL,?XSP + 0
        MOV     DPH,?XSP + 1
        MOV     R4,DPL
        MOV     R5,DPH
        MOV     A,R6
        MOV     R2,A
        MOV     A,R7
        MOV     R3,A
        LCALL   ??ZDO_ParseEndDeviceBindReq?relay
// 1190         ZDO_MatchEndDeviceBind( &bindReq );
        ; Setup parameters for call to function ZDO_MatchEndDeviceBind
        MOV     DPL,?XSP + 0
        MOV     DPH,?XSP + 1
        MOV     R2,DPL
        MOV     R3,DPH
        LCALL   ??ZDO_MatchEndDeviceBind?relay
// 1191         
// 1192         // Freeing the cluster lists - if allocated.
// 1193         if ( bindReq.numInClusters )
        MOV     A,#0x11
        LCALL   ?XSTACK_DISP0_8
        MOVX    A,@DPTR
        JZ      ??ZDApp_ProcessMsgCBs_10
// 1194           osal_mem_free( bindReq.inClusters );
        ; Setup parameters for call to function osal_mem_free
        MOV     A,#0x12
        LCALL   ?XSTACK_DISP0_8
        LCALL   ?Subroutine13 & 0xFFFF
??CrossCallReturnLabel_15:
        LCALL   ??osal_mem_free?relay
// 1195         if ( bindReq.numOutClusters )
??ZDApp_ProcessMsgCBs_10:
        MOV     A,#0x14
        LCALL   ?XSTACK_DISP0_8
        MOVX    A,@DPTR
        JZ      ??ZDApp_ProcessMsgCBs_4
// 1196           osal_mem_free( bindReq.outClusters );
        ; Setup parameters for call to function osal_mem_free
        MOV     A,#0x15
        LCALL   ?XSTACK_DISP0_8
        MOVX    A,@DPTR
        MOV     R2,A
        INC     DPTR
        MOVX    A,@DPTR
??ZDApp_ProcessMsgCBs_6:
        MOV     R3,A
        LCALL   ??osal_mem_free?relay
// 1197       }
// 1198       break;
// 1199 #endif
// 1200   }
// 1201 }
??ZDApp_ProcessMsgCBs_4:
        MOV     A,#0x2c
        LJMP    ??Subroutine34_0 & 0xFFFF
        CFI EndBlock cfiBlock31

        RSEG BANKED_CODE:CODE:NOROOT(0)
?Subroutine12:
        CFI Block cfiCond32 Using cfiCommon0
        CFI NoFunction
        CFI Conditional ??CrossCallReturnLabel_8
        CFI R6 load(1, XDATA, add(CFA_XSP16, literal(-9)))
        CFI VB load(1, XDATA, add(CFA_XSP16, literal(-8)))
        CFI V0 load(1, XDATA, add(CFA_XSP16, literal(-7)))
        CFI R7 load(1, XDATA, add(CFA_XSP16, literal(-6)))
        CFI ?RET_LOW load(1, XDATA, add(CFA_XSP16, literal(-5)))
        CFI ?RET_HIGH load(1, XDATA, add(CFA_XSP16, literal(-4)))
        CFI ?BRET_EXT load(1, XDATA, add(CFA_XSP16, literal(-3)))
        CFI DPL0 load(1, XDATA, add(CFA_XSP16, literal(-2)))
        CFI DPH0 load(1, XDATA, add(CFA_XSP16, literal(-1)))
        CFI CFA_SP SP+0
        CFI CFA_XSP16 add(XSP16, 9)
        CFI Block cfiCond33 Using cfiCommon0
        CFI (cfiCond33) NoFunction
        CFI (cfiCond33) Conditional ??CrossCallReturnLabel_9
        CFI (cfiCond33) R6 load(1, XDATA, add(CFA_XSP16, literal(-15)))
        CFI (cfiCond33) VB load(1, XDATA, add(CFA_XSP16, literal(-14)))
        CFI (cfiCond33) V0 load(1, XDATA, add(CFA_XSP16, literal(-13)))
        CFI (cfiCond33) V1 load(1, XDATA, add(CFA_XSP16, literal(-12)))
        CFI (cfiCond33) V2 load(1, XDATA, add(CFA_XSP16, literal(-11)))
        CFI (cfiCond33) V3 load(1, XDATA, add(CFA_XSP16, literal(-10)))
        CFI (cfiCond33) V4 load(1, XDATA, add(CFA_XSP16, literal(-9)))
        CFI (cfiCond33) V5 load(1, XDATA, add(CFA_XSP16, literal(-8)))
        CFI (cfiCond33) V6 load(1, XDATA, add(CFA_XSP16, literal(-7)))
        CFI (cfiCond33) R7 load(1, XDATA, add(CFA_XSP16, literal(-6)))
        CFI (cfiCond33) ?RET_LOW load(1, XDATA, add(CFA_XSP16, literal(-5)))
        CFI (cfiCond33) ?RET_HIGH load(1, XDATA, add(CFA_XSP16, literal(-4)))
        CFI (cfiCond33) ?BRET_EXT load(1, XDATA, add(CFA_XSP16, literal(-3)))
        CFI (cfiCond33) DPL0 load(1, XDATA, add(CFA_XSP16, literal(-2)))
        CFI (cfiCond33) DPH0 load(1, XDATA, add(CFA_XSP16, literal(-1)))
        CFI (cfiCond33) CFA_SP SP+0
        CFI (cfiCond33) CFA_XSP16 add(XSP16, 16)
        CFI Block cfiCond34 Using cfiCommon0
        CFI (cfiCond34) NoFunction
        CFI (cfiCond34) Conditional ??CrossCallReturnLabel_10
        CFI (cfiCond34) R6 load(1, XDATA, add(CFA_XSP16, literal(-10)))
        CFI (cfiCond34) VB load(1, XDATA, add(CFA_XSP16, literal(-9)))
        CFI (cfiCond34) V0 load(1, XDATA, add(CFA_XSP16, literal(-8)))
        CFI (cfiCond34) V1 load(1, XDATA, add(CFA_XSP16, literal(-7)))
        CFI (cfiCond34) R7 load(1, XDATA, add(CFA_XSP16, literal(-6)))
        CFI (cfiCond34) ?RET_LOW load(1, XDATA, add(CFA_XSP16, literal(-5)))
        CFI (cfiCond34) ?RET_HIGH load(1, XDATA, add(CFA_XSP16, literal(-4)))
        CFI (cfiCond34) ?BRET_EXT load(1, XDATA, add(CFA_XSP16, literal(-3)))
        CFI (cfiCond34) DPL0 load(1, XDATA, add(CFA_XSP16, literal(-2)))
        CFI (cfiCond34) DPH0 load(1, XDATA, add(CFA_XSP16, literal(-1)))
        CFI (cfiCond34) CFA_SP SP+0
        CFI (cfiCond34) CFA_XSP16 add(XSP16, 54)
        CFI Block cfiCond35 Using cfiCommon0
        CFI (cfiCond35) NoFunction
        CFI (cfiCond35) Conditional ??CrossCallReturnLabel_11
        CFI (cfiCond35) R6 load(1, XDATA, add(CFA_XSP16, literal(-9)))
        CFI (cfiCond35) VB load(1, XDATA, add(CFA_XSP16, literal(-8)))
        CFI (cfiCond35) V0 load(1, XDATA, add(CFA_XSP16, literal(-7)))
        CFI (cfiCond35) R7 load(1, XDATA, add(CFA_XSP16, literal(-6)))
        CFI (cfiCond35) ?RET_LOW load(1, XDATA, add(CFA_XSP16, literal(-5)))
        CFI (cfiCond35) ?RET_HIGH load(1, XDATA, add(CFA_XSP16, literal(-4)))
        CFI (cfiCond35) ?BRET_EXT load(1, XDATA, add(CFA_XSP16, literal(-3)))
        CFI (cfiCond35) DPL0 load(1, XDATA, add(CFA_XSP16, literal(-2)))
        CFI (cfiCond35) DPH0 load(1, XDATA, add(CFA_XSP16, literal(-1)))
        CFI (cfiCond35) CFA_SP SP+0
        CFI (cfiCond35) CFA_XSP16 add(XSP16, 14)
        CFI Block cfiPicker36 Using cfiCommon1
        CFI (cfiPicker36) NoFunction
        CFI (cfiPicker36) Picker
        LCALL   ?Subroutine26 & 0xFFFF
??CrossCallReturnLabel_43:
        MOV     A,R0
        ORL     A,R1
        RET
        CFI EndBlock cfiCond32
        CFI EndBlock cfiCond33
        CFI EndBlock cfiCond34
        CFI EndBlock cfiCond35
        CFI EndBlock cfiPicker36
// 1202 
// 1203 /*********************************************************************
// 1204  * @fn      ZDApp_RegisterCBs()
// 1205  *
// 1206  * @brief   Process response messages
// 1207  *
// 1208  * @param   none
// 1209  *
// 1210  * @return  none
// 1211  */

        RSEG BANKED_CODE:CODE:NOROOT(0)
// 1212 void ZDApp_RegisterCBs( void )
ZDApp_RegisterCBs:
        CFI Block cfiBlock37 Using cfiCommon0
        CFI Function ZDApp_RegisterCBs
        CODE
// 1213 {
        FUNCALL ZDApp_RegisterCBs, ZDO_RegisterForZDOMsg
        LOCFRAME ISTACK, 2, STACK
        LOCFRAME PSTACK, 0, STACK
        LOCFRAME XSTACK, 0, STACK
        LOCFRAME IOVERLAY, 0, STATIC
        LOCFRAME DOVERLAY, 0, STATIC
        ARGFRAME ISTACK, 2, STACK
        ARGFRAME PSTACK, 0, STACK
        ARGFRAME XSTACK, 0, STACK
        ARGFRAME IOVERLAY, 0, STATIC
        ARGFRAME DOVERLAY, 0, STATIC
        FUNCALL ZDApp_RegisterCBs, ZDO_RegisterForZDOMsg
        LOCFRAME ISTACK, 2, STACK
        LOCFRAME PSTACK, 0, STACK
        LOCFRAME XSTACK, 0, STACK
        LOCFRAME IOVERLAY, 0, STATIC
        LOCFRAME DOVERLAY, 0, STATIC
        ARGFRAME ISTACK, 2, STACK
        ARGFRAME PSTACK, 0, STACK
        ARGFRAME XSTACK, 0, STACK
        ARGFRAME IOVERLAY, 0, STATIC
        ARGFRAME DOVERLAY, 0, STATIC
        FUNCALL ZDApp_RegisterCBs, ZDO_RegisterForZDOMsg
        LOCFRAME ISTACK, 2, STACK
        LOCFRAME PSTACK, 0, STACK
        LOCFRAME XSTACK, 0, STACK
        LOCFRAME IOVERLAY, 0, STATIC
        LOCFRAME DOVERLAY, 0, STATIC
        ARGFRAME ISTACK, 2, STACK
        ARGFRAME PSTACK, 0, STACK
        ARGFRAME XSTACK, 0, STACK
        ARGFRAME IOVERLAY, 0, STATIC
        ARGFRAME DOVERLAY, 0, STATIC
        FUNCALL ZDApp_RegisterCBs, ZDO_RegisterForZDOMsg
        LOCFRAME ISTACK, 2, STACK
        LOCFRAME PSTACK, 0, STACK
        LOCFRAME XSTACK, 0, STACK
        LOCFRAME IOVERLAY, 0, STATIC
        LOCFRAME DOVERLAY, 0, STATIC
        ARGFRAME ISTACK, 2, STACK
        ARGFRAME PSTACK, 0, STACK
        ARGFRAME XSTACK, 0, STACK
        ARGFRAME IOVERLAY, 0, STATIC
        ARGFRAME DOVERLAY, 0, STATIC
        FUNCALL ZDApp_RegisterCBs, ZDO_RegisterForZDOMsg
        LOCFRAME ISTACK, 2, STACK
        LOCFRAME PSTACK, 0, STACK
        LOCFRAME XSTACK, 0, STACK
        LOCFRAME IOVERLAY, 0, STATIC
        LOCFRAME DOVERLAY, 0, STATIC
        ARGFRAME ISTACK, 2, STACK
        ARGFRAME PSTACK, 0, STACK
        ARGFRAME XSTACK, 0, STACK
        ARGFRAME IOVERLAY, 0, STATIC
        ARGFRAME DOVERLAY, 0, STATIC
        FUNCALL ZDApp_RegisterCBs, ZDO_RegisterForZDOMsg
        LOCFRAME ISTACK, 2, STACK
        LOCFRAME PSTACK, 0, STACK
        LOCFRAME XSTACK, 0, STACK
        LOCFRAME IOVERLAY, 0, STATIC
        LOCFRAME DOVERLAY, 0, STATIC
        ARGFRAME ISTACK, 2, STACK
        ARGFRAME PSTACK, 0, STACK
        ARGFRAME XSTACK, 0, STACK
        ARGFRAME IOVERLAY, 0, STATIC
        ARGFRAME DOVERLAY, 0, STATIC
        FUNCALL ZDApp_RegisterCBs, ZDO_RegisterForZDOMsg
        LOCFRAME ISTACK, 2, STACK
        LOCFRAME PSTACK, 0, STACK
        LOCFRAME XSTACK, 0, STACK
        LOCFRAME IOVERLAY, 0, STATIC
        LOCFRAME DOVERLAY, 0, STATIC
        ARGFRAME ISTACK, 2, STACK
        ARGFRAME PSTACK, 0, STACK
        ARGFRAME XSTACK, 0, STACK
        ARGFRAME IOVERLAY, 0, STATIC
        ARGFRAME DOVERLAY, 0, STATIC
        PUSH    DPL
        CFI DPL0 Frame(CFA_SP, 4)
        CFI CFA_SP SP+-4
        PUSH    DPH
        CFI DPH0 Frame(CFA_SP, 5)
        CFI CFA_SP SP+-5
        ; Saved register size: 2
        ; Auto size: 0
// 1214 #if defined ( ZDO_IEEEADDR_REQUEST ) || defined ( REFLECTOR )
// 1215   ZDO_RegisterForZDOMsg( ZDAppTaskID, IEEE_addr_rsp );
        ; Setup parameters for call to function ZDO_RegisterForZDOMsg
        MOV     R2,#0x1
        LCALL   ?Subroutine11 & 0xFFFF
// 1216 #endif
// 1217 #if defined ( ZDO_NWKADDR_REQUEST ) || defined ( REFLECTOR )
// 1218   ZDO_RegisterForZDOMsg( ZDAppTaskID, NWK_addr_rsp );
??CrossCallReturnLabel_53:
        ; Setup parameters for call to function ZDO_RegisterForZDOMsg
        MOV     R2,#0x0
        LCALL   ?Subroutine11 & 0xFFFF
// 1219 #endif  
// 1220 #if ZG_BUILD_COORDINATOR_TYPE
// 1221   ZDO_RegisterForZDOMsg( ZDAppTaskID, Bind_rsp );
??CrossCallReturnLabel_54:
        ; Setup parameters for call to function ZDO_RegisterForZDOMsg
        MOV     R2,#0x21
        LCALL   ?Subroutine11 & 0xFFFF
// 1222   ZDO_RegisterForZDOMsg( ZDAppTaskID, Unbind_rsp );
??CrossCallReturnLabel_55:
        ; Setup parameters for call to function ZDO_RegisterForZDOMsg
        MOV     R2,#0x22
        LCALL   ?Subroutine11 & 0xFFFF
// 1223   ZDO_RegisterForZDOMsg( ZDAppTaskID, End_Device_Bind_req );
??CrossCallReturnLabel_56:
        ; Setup parameters for call to function ZDO_RegisterForZDOMsg
        MOV     R2,#0x20
        MOV     R3,#0x0
        LCALL   ??Subroutine28_0 & 0xFFFF
// 1224 #endif
// 1225 #if defined ( REFLECTOR )
// 1226   ZDO_RegisterForZDOMsg( ZDAppTaskID, Bind_req );
??CrossCallReturnLabel_57:
        ; Setup parameters for call to function ZDO_RegisterForZDOMsg
        MOV     R2,#0x21
        MOV     R3,#0x0
        LCALL   ??Subroutine28_0 & 0xFFFF
// 1227   ZDO_RegisterForZDOMsg( ZDAppTaskID, Unbind_req );
??CrossCallReturnLabel_58:
        ; Setup parameters for call to function ZDO_RegisterForZDOMsg
        MOV     R2,#0x22
        MOV     R3,#0x0
        LCALL   ??Subroutine28_0 & 0xFFFF
// 1228 #endif  
// 1229 }
??CrossCallReturnLabel_59:
        LJMP    ?Subroutine2 & 0xFFFF
        CFI EndBlock cfiBlock37

        RSEG BANKED_CODE:CODE:NOROOT(0)
?Subroutine11:
        CFI Block cfiCond38 Using cfiCommon0
        CFI NoFunction
        CFI Conditional ??CrossCallReturnLabel_53
        CFI DPL0 Frame(CFA_SP, 4)
        CFI DPH0 Frame(CFA_SP, 5)
        CFI CFA_SP SP+-5
        CFI Block cfiCond39 Using cfiCommon0
        CFI (cfiCond39) NoFunction
        CFI (cfiCond39) Conditional ??CrossCallReturnLabel_54
        CFI (cfiCond39) DPL0 Frame(CFA_SP, 4)
        CFI (cfiCond39) DPH0 Frame(CFA_SP, 5)
        CFI (cfiCond39) CFA_SP SP+-5
        CFI Block cfiCond40 Using cfiCommon0
        CFI (cfiCond40) NoFunction
        CFI (cfiCond40) Conditional ??CrossCallReturnLabel_55
        CFI (cfiCond40) DPL0 Frame(CFA_SP, 4)
        CFI (cfiCond40) DPH0 Frame(CFA_SP, 5)
        CFI (cfiCond40) CFA_SP SP+-5
        CFI Block cfiCond41 Using cfiCommon0
        CFI (cfiCond41) NoFunction
        CFI (cfiCond41) Conditional ??CrossCallReturnLabel_56
        CFI (cfiCond41) DPL0 Frame(CFA_SP, 4)
        CFI (cfiCond41) DPH0 Frame(CFA_SP, 5)
        CFI (cfiCond41) CFA_SP SP+-5
        CFI Block cfiPicker42 Using cfiCommon1
        CFI (cfiPicker42) NoFunction
        CFI (cfiPicker42) Picker
        MOV     R3,#-0x80
        CFI EndBlock cfiCond38
        CFI EndBlock cfiCond39
        CFI EndBlock cfiCond40
        CFI EndBlock cfiCond41
        CFI EndBlock cfiPicker42
        REQUIRE ??Subroutine28_0
        ; // Fall through to label ??Subroutine28_0

        RSEG BANKED_CODE:CODE:NOROOT(0)
??Subroutine28_0:
        CFI Block cfiCond43 Using cfiCommon0
        CFI NoFunction
        CFI Conditional ??CrossCallReturnLabel_57
        CFI DPL0 Frame(CFA_SP, 4)
        CFI DPH0 Frame(CFA_SP, 5)
        CFI CFA_SP SP+-5
        CFI Block cfiCond44 Using cfiCommon0
        CFI (cfiCond44) NoFunction
        CFI (cfiCond44) Conditional ??CrossCallReturnLabel_58
        CFI (cfiCond44) DPL0 Frame(CFA_SP, 4)
        CFI (cfiCond44) DPH0 Frame(CFA_SP, 5)
        CFI (cfiCond44) CFA_SP SP+-5
        CFI Block cfiCond45 Using cfiCommon0
        CFI (cfiCond45) NoFunction
        CFI (cfiCond45) Conditional ??CrossCallReturnLabel_59
        CFI (cfiCond45) DPL0 Frame(CFA_SP, 4)
        CFI (cfiCond45) DPH0 Frame(CFA_SP, 5)
        CFI (cfiCond45) CFA_SP SP+-5
        CFI Block cfiCond46 Using cfiCommon0
        CFI (cfiCond46) NoFunction
        CFI (cfiCond46) Conditional ??CrossCallReturnLabel_53
        CFI (cfiCond46) DPL0 Frame(CFA_SP, 4)
        CFI (cfiCond46) DPH0 Frame(CFA_SP, 5)
        CFI (cfiCond46) CFA_SP SP+-5
        CFI Block cfiCond47 Using cfiCommon0
        CFI (cfiCond47) NoFunction
        CFI (cfiCond47) Conditional ??CrossCallReturnLabel_54
        CFI (cfiCond47) DPL0 Frame(CFA_SP, 4)
        CFI (cfiCond47) DPH0 Frame(CFA_SP, 5)
        CFI (cfiCond47) CFA_SP SP+-5
        CFI Block cfiCond48 Using cfiCommon0
        CFI (cfiCond48) NoFunction
        CFI (cfiCond48) Conditional ??CrossCallReturnLabel_55
        CFI (cfiCond48) DPL0 Frame(CFA_SP, 4)
        CFI (cfiCond48) DPH0 Frame(CFA_SP, 5)
        CFI (cfiCond48) CFA_SP SP+-5
        CFI Block cfiCond49 Using cfiCommon0
        CFI (cfiCond49) NoFunction
        CFI (cfiCond49) Conditional ??CrossCallReturnLabel_56
        CFI (cfiCond49) DPL0 Frame(CFA_SP, 4)
        CFI (cfiCond49) DPH0 Frame(CFA_SP, 5)
        CFI (cfiCond49) CFA_SP SP+-5
        CFI Block cfiPicker50 Using cfiCommon1
        CFI (cfiPicker50) NoFunction
        CFI (cfiPicker50) Picker
        MOV     DPTR,#ZDAppTaskID
        MOVX    A,@DPTR
        MOV     R1,A
        LCALL   ??ZDO_RegisterForZDOMsg?relay
        RET
        CFI EndBlock cfiCond43
        CFI EndBlock cfiCond44
        CFI EndBlock cfiCond45
        CFI EndBlock cfiCond46
        CFI EndBlock cfiCond47
        CFI EndBlock cfiCond48
        CFI EndBlock cfiCond49
        CFI EndBlock cfiPicker50
// 1230 
// 1231 /*********************************************************************
// 1232  * @fn      ZDApp_ProcessSecMsg()
// 1233  *
// 1234  * @brief   Process the incoming security message.
// 1235  *
// 1236  * @param   msgPtr - message to process
// 1237  *
// 1238  * @return  none
// 1239  */

        RSEG BANKED_CODE:CODE:NOROOT(0)
// 1240 void ZDApp_ProcessSecMsg( osal_event_hdr_t *msgPtr )
ZDApp_ProcessSecMsg:
        CFI Block cfiBlock51 Using cfiCommon0
        CFI Function ZDApp_ProcessSecMsg
        CODE
// 1241 {
        FUNCALL ZDApp_ProcessSecMsg, ZDSecMgrTransportKeyInd
        LOCFRAME ISTACK, 2, STACK
        LOCFRAME PSTACK, 0, STACK
        LOCFRAME XSTACK, 0, STACK
        LOCFRAME IOVERLAY, 0, STATIC
        LOCFRAME DOVERLAY, 0, STATIC
        ARGFRAME ISTACK, 2, STACK
        ARGFRAME PSTACK, 0, STACK
        ARGFRAME XSTACK, 0, STACK
        ARGFRAME IOVERLAY, 0, STATIC
        ARGFRAME DOVERLAY, 0, STATIC
        FUNCALL ZDApp_ProcessSecMsg, ZDSecMgrUpdateDeviceInd
        LOCFRAME ISTACK, 2, STACK
        LOCFRAME PSTACK, 0, STACK
        LOCFRAME XSTACK, 0, STACK
        LOCFRAME IOVERLAY, 0, STATIC
        LOCFRAME DOVERLAY, 0, STATIC
        ARGFRAME ISTACK, 2, STACK
        ARGFRAME PSTACK, 0, STACK
        ARGFRAME XSTACK, 0, STACK
        ARGFRAME IOVERLAY, 0, STATIC
        ARGFRAME DOVERLAY, 0, STATIC
        FUNCALL ZDApp_ProcessSecMsg, ZDSecMgrSwitchKeyInd
        LOCFRAME ISTACK, 2, STACK
        LOCFRAME PSTACK, 0, STACK
        LOCFRAME XSTACK, 0, STACK
        LOCFRAME IOVERLAY, 0, STATIC
        LOCFRAME DOVERLAY, 0, STATIC
        ARGFRAME ISTACK, 2, STACK
        ARGFRAME PSTACK, 0, STACK
        ARGFRAME XSTACK, 0, STACK
        ARGFRAME IOVERLAY, 0, STATIC
        ARGFRAME DOVERLAY, 0, STATIC
        PUSH    DPL
        CFI DPL0 Frame(CFA_SP, 4)
        CFI CFA_SP SP+-4
        PUSH    DPH
        CFI DPH0 Frame(CFA_SP, 5)
        CFI CFA_SP SP+-5
        ; Saved register size: 2
        ; Auto size: 0
// 1242   switch ( msgPtr->event )
        MOV     DPL,R2
        MOV     DPH,R3
        MOVX    A,@DPTR
        ADD     A,#-0x6
        JZ      ??ZDApp_ProcessSecMsg_0
        DEC     A
        JZ      ??ZDApp_ProcessSecMsg_1
        ADD     A,#-0x3
        JZ      ??ZDApp_ProcessSecMsg_2
        SJMP    ??ZDApp_ProcessSecMsg_3
// 1243   {
// 1244     case ZDO_ESTABLISH_KEY_CFM:
// 1245       if ( ZG_CHECK_SECURITY_MODE == ZG_SECURITY_PRO_HIGH )
// 1246       {
// 1247         ZDSecMgrEstablishKeyCfm( (ZDO_EstablishKeyCfm_t*)msgPtr );
// 1248       }
// 1249       break;
// 1250 
// 1251     case ZDO_ESTABLISH_KEY_IND:
// 1252       if ( ZG_CHECK_SECURITY_MODE == ZG_SECURITY_PRO_HIGH )
// 1253       {
// 1254         if ( ZG_BUILD_JOINING_TYPE && ZG_DEVICE_JOINING_TYPE )
// 1255         {
// 1256           ZDSecMgrEstablishKeyInd( (ZDO_EstablishKeyInd_t*)msgPtr );
// 1257         }
// 1258       }
// 1259       break;
// 1260 
// 1261     case ZDO_TRANSPORT_KEY_IND:
// 1262       if ( ZG_BUILD_JOINING_TYPE && ZG_DEVICE_JOINING_TYPE )
??ZDApp_ProcessSecMsg_0:
        MOV     DPTR,#zgDeviceLogicalType
        MOVX    A,@DPTR
        XRL     A,#0x1
        JZ      ??ZDApp_ProcessSecMsg_4
        MOVX    A,@DPTR
        XRL     A,#0x2
        JNZ     ??ZDApp_ProcessSecMsg_3
// 1263       {
// 1264         ZDSecMgrTransportKeyInd( (ZDO_TransportKeyInd_t*)msgPtr );
??ZDApp_ProcessSecMsg_4:
        ; Setup parameters for call to function ZDSecMgrTransportKeyInd
        LCALL   ??ZDSecMgrTransportKeyInd?relay
        SJMP    ??ZDApp_ProcessSecMsg_3
// 1265       }
// 1266       break;
// 1267 
// 1268     case ZDO_UPDATE_DEVICE_IND:
// 1269       if ( ZG_BUILD_COORDINATOR_TYPE && ZG_DEVICE_COORDINATOR_TYPE )
??ZDApp_ProcessSecMsg_1:
        MOV     DPTR,#zgDeviceLogicalType
        MOVX    A,@DPTR
        JNZ     ??ZDApp_ProcessSecMsg_3
// 1270       {
// 1271         ZDSecMgrUpdateDeviceInd( (ZDO_UpdateDeviceInd_t*)msgPtr );
        ; Setup parameters for call to function ZDSecMgrUpdateDeviceInd
        LCALL   ??ZDSecMgrUpdateDeviceInd?relay
        SJMP    ??ZDApp_ProcessSecMsg_3
// 1272       }
// 1273       break;
// 1274 
// 1275     case ZDO_REMOVE_DEVICE_IND:
// 1276       if ( ZG_BUILD_RTRONLY_TYPE && ( zgDeviceLogicalType == ZG_DEVICETYPE_ROUTER ) )
// 1277       {
// 1278         ZDSecMgrRemoveDeviceInd( (ZDO_RemoveDeviceInd_t*)msgPtr );
// 1279       }
// 1280       break;
// 1281 
// 1282     case ZDO_REQUEST_KEY_IND:
// 1283       if ( ZG_CHECK_SECURITY_MODE == ZG_SECURITY_PRO_HIGH )
// 1284       {
// 1285         if ( ZG_BUILD_COORDINATOR_TYPE && ZG_DEVICE_COORDINATOR_TYPE )
// 1286         {
// 1287           ZDSecMgrRequestKeyInd( (ZDO_RequestKeyInd_t*)msgPtr );
// 1288         }
// 1289       }
// 1290       break;
// 1291 
// 1292     case ZDO_SWITCH_KEY_IND:
// 1293       if ( ZG_BUILD_JOINING_TYPE && ZG_DEVICE_JOINING_TYPE )
??ZDApp_ProcessSecMsg_2:
        MOV     DPTR,#zgDeviceLogicalType
        MOVX    A,@DPTR
        XRL     A,#0x1
        JZ      ??ZDApp_ProcessSecMsg_5
        MOVX    A,@DPTR
        XRL     A,#0x2
        JNZ     ??ZDApp_ProcessSecMsg_3
// 1294       {
// 1295         ZDSecMgrSwitchKeyInd( (ZDO_SwitchKeyInd_t*)msgPtr );
??ZDApp_ProcessSecMsg_5:
        ; Setup parameters for call to function ZDSecMgrSwitchKeyInd
        LCALL   ??ZDSecMgrSwitchKeyInd?relay
// 1296       }
// 1297       break;
// 1298     
// 1299     case ZDO_AUTHENTICATE_IND:
// 1300       if ( ZG_CHECK_SECURITY_MODE == ZG_SECURITY_PRO_HIGH )
// 1301       {
// 1302         ZDSecMgrAuthenticateInd( (ZDO_AuthenticateInd_t*)msgPtr );
// 1303       }
// 1304       break;
// 1305 
// 1306     case ZDO_AUTHENTICATE_CFM:
// 1307       if ( ZG_CHECK_SECURITY_MODE == ZG_SECURITY_PRO_HIGH )
// 1308       {
// 1309         ZDSecMgrAuthenticateCfm( (ZDO_AuthenticateCfm_t*)msgPtr );
// 1310       }
// 1311       break;
// 1312 
// 1313     default:
// 1314       // Unsupported messages
// 1315       break;
// 1316   }
// 1317 }
??ZDApp_ProcessSecMsg_3:
        LJMP    ?Subroutine2 & 0xFFFF
        CFI EndBlock cfiBlock51
// 1318 
// 1319 /*********************************************************************
// 1320  * @fn      ZDApp_ProcessNetworkJoin()
// 1321  *
// 1322  * @brief
// 1323  *
// 1324  *   Save off the Network key information.
// 1325  *
// 1326  * @param   none
// 1327  *
// 1328  * @return  none
// 1329  */

        RSEG BANKED_CODE:CODE:NOROOT(0)
// 1330 void ZDApp_ProcessNetworkJoin( void )
ZDApp_ProcessNetworkJoin:
        CFI Block cfiBlock52 Using cfiCommon0
        CFI Function ZDApp_ProcessNetworkJoin
        CODE
// 1331 {
        FUNCALL ZDApp_ProcessNetworkJoin, osal_set_event
        LOCFRAME ISTACK, 0, STACK
        LOCFRAME PSTACK, 0, STACK
        LOCFRAME XSTACK, 12, STACK
        LOCFRAME IOVERLAY, 0, STATIC
        LOCFRAME DOVERLAY, 0, STATIC
        ARGFRAME ISTACK, 0, STACK
        ARGFRAME PSTACK, 0, STACK
        ARGFRAME XSTACK, 12, STACK
        ARGFRAME IOVERLAY, 0, STATIC
        ARGFRAME DOVERLAY, 0, STATIC
        FUNCALL ZDApp_ProcessNetworkJoin, ZDApp_AnnounceNewAddress
        LOCFRAME ISTACK, 0, STACK
        LOCFRAME PSTACK, 0, STACK
        LOCFRAME XSTACK, 12, STACK
        LOCFRAME IOVERLAY, 0, STATIC
        LOCFRAME DOVERLAY, 0, STATIC
        ARGFRAME ISTACK, 0, STACK
        ARGFRAME PSTACK, 0, STACK
        ARGFRAME XSTACK, 12, STACK
        ARGFRAME IOVERLAY, 0, STATIC
        ARGFRAME DOVERLAY, 0, STATIC
        FUNCALL ZDApp_ProcessNetworkJoin, NLME_StartRouterRequest
        LOCFRAME ISTACK, 0, STACK
        LOCFRAME PSTACK, 0, STACK
        LOCFRAME XSTACK, 12, STACK
        LOCFRAME IOVERLAY, 0, STATIC
        LOCFRAME DOVERLAY, 0, STATIC
        ARGFRAME ISTACK, 0, STACK
        ARGFRAME PSTACK, 0, STACK
        ARGFRAME XSTACK, 12, STACK
        ARGFRAME IOVERLAY, 0, STATIC
        ARGFRAME DOVERLAY, 0, STATIC
        FUNCALL ZDApp_ProcessNetworkJoin, NLME_GetShortAddr
        LOCFRAME ISTACK, 0, STACK
        LOCFRAME PSTACK, 0, STACK
        LOCFRAME XSTACK, 12, STACK
        LOCFRAME IOVERLAY, 0, STATIC
        LOCFRAME DOVERLAY, 0, STATIC
        ARGFRAME ISTACK, 0, STACK
        ARGFRAME PSTACK, 0, STACK
        ARGFRAME XSTACK, 12, STACK
        ARGFRAME IOVERLAY, 0, STATIC
        ARGFRAME DOVERLAY, 0, STATIC
        FUNCALL ZDApp_ProcessNetworkJoin, ZMacSetReq
        LOCFRAME ISTACK, 0, STACK
        LOCFRAME PSTACK, 0, STACK
        LOCFRAME XSTACK, 12, STACK
        LOCFRAME IOVERLAY, 0, STATIC
        LOCFRAME DOVERLAY, 0, STATIC
        ARGFRAME ISTACK, 0, STACK
        ARGFRAME PSTACK, 0, STACK
        ARGFRAME XSTACK, 12, STACK
        ARGFRAME IOVERLAY, 0, STATIC
        ARGFRAME DOVERLAY, 0, STATIC
        FUNCALL ZDApp_ProcessNetworkJoin, nwkNeighborInitTable
        LOCFRAME ISTACK, 0, STACK
        LOCFRAME PSTACK, 0, STACK
        LOCFRAME XSTACK, 12, STACK
        LOCFRAME IOVERLAY, 0, STATIC
        LOCFRAME DOVERLAY, 0, STATIC
        ARGFRAME ISTACK, 0, STACK
        ARGFRAME PSTACK, 0, STACK
        ARGFRAME XSTACK, 12, STACK
        ARGFRAME IOVERLAY, 0, STATIC
        ARGFRAME DOVERLAY, 0, STATIC
        FUNCALL ZDApp_ProcessNetworkJoin, NLME_NwkDiscTerm
        LOCFRAME ISTACK, 0, STACK
        LOCFRAME PSTACK, 0, STACK
        LOCFRAME XSTACK, 12, STACK
        LOCFRAME IOVERLAY, 0, STATIC
        LOCFRAME DOVERLAY, 0, STATIC
        ARGFRAME ISTACK, 0, STACK
        ARGFRAME PSTACK, 0, STACK
        ARGFRAME XSTACK, 12, STACK
        ARGFRAME IOVERLAY, 0, STATIC
        ARGFRAME DOVERLAY, 0, STATIC
        FUNCALL ZDApp_ProcessNetworkJoin, osal_rand
        LOCFRAME ISTACK, 0, STACK
        LOCFRAME PSTACK, 0, STACK
        LOCFRAME XSTACK, 12, STACK
        LOCFRAME IOVERLAY, 0, STATIC
        LOCFRAME DOVERLAY, 0, STATIC
        ARGFRAME ISTACK, 0, STACK
        ARGFRAME PSTACK, 0, STACK
        ARGFRAME XSTACK, 12, STACK
        ARGFRAME IOVERLAY, 0, STATIC
        ARGFRAME DOVERLAY, 0, STATIC
        FUNCALL ZDApp_ProcessNetworkJoin, ZDApp_NetworkInit
        LOCFRAME ISTACK, 0, STACK
        LOCFRAME PSTACK, 0, STACK
        LOCFRAME XSTACK, 12, STACK
        LOCFRAME IOVERLAY, 0, STATIC
        LOCFRAME DOVERLAY, 0, STATIC
        ARGFRAME ISTACK, 0, STACK
        ARGFRAME PSTACK, 0, STACK
        ARGFRAME XSTACK, 12, STACK
        ARGFRAME IOVERLAY, 0, STATIC
        ARGFRAME DOVERLAY, 0, STATIC
        FUNCALL ZDApp_ProcessNetworkJoin, osal_set_event
        LOCFRAME ISTACK, 0, STACK
        LOCFRAME PSTACK, 0, STACK
        LOCFRAME XSTACK, 12, STACK
        LOCFRAME IOVERLAY, 0, STATIC
        LOCFRAME DOVERLAY, 0, STATIC
        ARGFRAME ISTACK, 0, STACK
        ARGFRAME PSTACK, 0, STACK
        ARGFRAME XSTACK, 12, STACK
        ARGFRAME IOVERLAY, 0, STATIC
        ARGFRAME DOVERLAY, 0, STATIC
        FUNCALL ZDApp_ProcessNetworkJoin, NLME_SetPollRate
        LOCFRAME ISTACK, 0, STACK
        LOCFRAME PSTACK, 0, STACK
        LOCFRAME XSTACK, 12, STACK
        LOCFRAME IOVERLAY, 0, STATIC
        LOCFRAME DOVERLAY, 0, STATIC
        ARGFRAME ISTACK, 0, STACK
        ARGFRAME PSTACK, 0, STACK
        ARGFRAME XSTACK, 12, STACK
        ARGFRAME IOVERLAY, 0, STATIC
        ARGFRAME DOVERLAY, 0, STATIC
        FUNCALL ZDApp_ProcessNetworkJoin, NLME_SetQueuedPollRate
        LOCFRAME ISTACK, 0, STACK
        LOCFRAME PSTACK, 0, STACK
        LOCFRAME XSTACK, 12, STACK
        LOCFRAME IOVERLAY, 0, STATIC
        LOCFRAME DOVERLAY, 0, STATIC
        ARGFRAME ISTACK, 0, STACK
        ARGFRAME PSTACK, 0, STACK
        ARGFRAME XSTACK, 12, STACK
        ARGFRAME IOVERLAY, 0, STATIC
        ARGFRAME DOVERLAY, 0, STATIC
        FUNCALL ZDApp_ProcessNetworkJoin, NLME_SetResponseRate
        LOCFRAME ISTACK, 0, STACK
        LOCFRAME PSTACK, 0, STACK
        LOCFRAME XSTACK, 12, STACK
        LOCFRAME IOVERLAY, 0, STATIC
        LOCFRAME DOVERLAY, 0, STATIC
        ARGFRAME ISTACK, 0, STACK
        ARGFRAME PSTACK, 0, STACK
        ARGFRAME XSTACK, 12, STACK
        ARGFRAME IOVERLAY, 0, STATIC
        ARGFRAME DOVERLAY, 0, STATIC
        FUNCALL ZDApp_ProcessNetworkJoin, NLME_StartRouterRequest
        LOCFRAME ISTACK, 0, STACK
        LOCFRAME PSTACK, 0, STACK
        LOCFRAME XSTACK, 12, STACK
        LOCFRAME IOVERLAY, 0, STATIC
        LOCFRAME DOVERLAY, 0, STATIC
        ARGFRAME ISTACK, 0, STACK
        ARGFRAME PSTACK, 0, STACK
        ARGFRAME XSTACK, 12, STACK
        ARGFRAME IOVERLAY, 0, STATIC
        ARGFRAME DOVERLAY, 0, STATIC
        FUNCALL ZDApp_ProcessNetworkJoin, ZDApp_AnnounceNewAddress
        LOCFRAME ISTACK, 0, STACK
        LOCFRAME PSTACK, 0, STACK
        LOCFRAME XSTACK, 12, STACK
        LOCFRAME IOVERLAY, 0, STATIC
        LOCFRAME DOVERLAY, 0, STATIC
        ARGFRAME ISTACK, 0, STACK
        ARGFRAME PSTACK, 0, STACK
        ARGFRAME XSTACK, 12, STACK
        ARGFRAME IOVERLAY, 0, STATIC
        ARGFRAME DOVERLAY, 0, STATIC
        FUNCALL ZDApp_ProcessNetworkJoin, nwkNeighborInitTable
        LOCFRAME ISTACK, 0, STACK
        LOCFRAME PSTACK, 0, STACK
        LOCFRAME XSTACK, 12, STACK
        LOCFRAME IOVERLAY, 0, STATIC
        LOCFRAME DOVERLAY, 0, STATIC
        ARGFRAME ISTACK, 0, STACK
        ARGFRAME PSTACK, 0, STACK
        ARGFRAME XSTACK, 12, STACK
        ARGFRAME IOVERLAY, 0, STATIC
        ARGFRAME DOVERLAY, 0, STATIC
        FUNCALL ZDApp_ProcessNetworkJoin, NLME_NwkDiscTerm
        LOCFRAME ISTACK, 0, STACK
        LOCFRAME PSTACK, 0, STACK
        LOCFRAME XSTACK, 12, STACK
        LOCFRAME IOVERLAY, 0, STATIC
        LOCFRAME DOVERLAY, 0, STATIC
        ARGFRAME ISTACK, 0, STACK
        ARGFRAME PSTACK, 0, STACK
        ARGFRAME XSTACK, 12, STACK
        ARGFRAME IOVERLAY, 0, STATIC
        ARGFRAME DOVERLAY, 0, STATIC
        FUNCALL ZDApp_ProcessNetworkJoin, osal_rand
        LOCFRAME ISTACK, 0, STACK
        LOCFRAME PSTACK, 0, STACK
        LOCFRAME XSTACK, 12, STACK
        LOCFRAME IOVERLAY, 0, STATIC
        LOCFRAME DOVERLAY, 0, STATIC
        ARGFRAME ISTACK, 0, STACK
        ARGFRAME PSTACK, 0, STACK
        ARGFRAME XSTACK, 12, STACK
        ARGFRAME IOVERLAY, 0, STATIC
        ARGFRAME DOVERLAY, 0, STATIC
        FUNCALL ZDApp_ProcessNetworkJoin, ZDApp_NetworkInit
        LOCFRAME ISTACK, 0, STACK
        LOCFRAME PSTACK, 0, STACK
        LOCFRAME XSTACK, 12, STACK
        LOCFRAME IOVERLAY, 0, STATIC
        LOCFRAME DOVERLAY, 0, STATIC
        ARGFRAME ISTACK, 0, STACK
        ARGFRAME PSTACK, 0, STACK
        ARGFRAME XSTACK, 12, STACK
        ARGFRAME IOVERLAY, 0, STATIC
        ARGFRAME DOVERLAY, 0, STATIC
        MOV     A,#-0xa
        LCALL   ?BANKED_ENTER_XDATA
        CFI DPH0 load(1, XDATA, add(CFA_XSP16, literal(-1)))
        CFI DPL0 load(1, XDATA, add(CFA_XSP16, literal(-2)))
        CFI ?BRET_EXT load(1, XDATA, add(CFA_XSP16, literal(-3)))
        CFI ?RET_HIGH load(1, XDATA, add(CFA_XSP16, literal(-4)))
        CFI ?RET_LOW load(1, XDATA, add(CFA_XSP16, literal(-5)))
        CFI R7 load(1, XDATA, add(CFA_XSP16, literal(-6)))
        CFI V1 load(1, XDATA, add(CFA_XSP16, literal(-7)))
        CFI V0 load(1, XDATA, add(CFA_XSP16, literal(-8)))
        CFI VB load(1, XDATA, add(CFA_XSP16, literal(-9)))
        CFI R6 load(1, XDATA, add(CFA_XSP16, literal(-10)))
        CFI CFA_SP SP+0
        CFI CFA_XSP16 add(XSP16, 10)
        ; Saved register size: 10
        ; Auto size: 2
        MOV     A,#-0x2
        LCALL   ?ALLOC_XSTACK8
        CFI CFA_XSP16 add(XSP16, 12)
// 1332   // devState  ZDO_StartDevice() 
// 1333   if ( (devState == DEV_NWK_JOINING) ||
// 1334       ((devState == DEV_NWK_ORPHAN)  &&
// 1335        (ZDO_Config_Node_Descriptor.LogicalType == NODETYPE_ROUTER)) )
        MOV     DPTR,#devState
        MOVX    A,@DPTR
        XRL     A,#0x3
        JZ      ??ZDApp_ProcessNetworkJoin_0
        MOVX    A,@DPTR
        XRL     A,#0xa
        JZ      $+5
        LJMP    ??ZDApp_ProcessNetworkJoin_1 & 0xFFFF
        MOV     DPTR,#ZDO_Config_Node_Descriptor
        MOVX    A,@DPTR
        ANL     A,#0x7
        XRL     A,#0x1
        JZ      $+5
        LJMP    ??ZDApp_ProcessNetworkJoin_2 & 0xFFFF
// 1336   {
// 1337     // Result of a Join attempt by this device.
// 1338     // nwkStatus  ZDO_JoinConfirmCB() 
// 1339     //  NLME_JoinRequest() 
// 1340     //  ZDO_JoinConfirmCB()
// 1341     if ( nwkStatus == ZSuccess )
??ZDApp_ProcessNetworkJoin_0:
        MOV     DPTR,#nwkStatus
        MOVX    A,@DPTR
        JNZ     ??ZDApp_ProcessNetworkJoin_3
// 1342     {
// 1343       osal_set_event( ZDAppTaskID, ZDO_STATE_CHANGE_EVT );
        ; Setup parameters for call to function osal_set_event
        LCALL   ?Subroutine10 & 0xFFFF
// 1344 
// 1345 #if defined ( POWER_SAVING )
// 1346       osal_pwrmgr_device( PWRMGR_BATTERY );
// 1347 #endif
// 1348 
// 1349       if ( ZG_SECURE_ENABLED && ( ZDApp_RestoreNwkKey() == false ) )
// 1350       {
// 1351         // wait for auth from trust center!!
// 1352         devState = DEV_END_DEVICE_UNAUTH;
// 1353 
// 1354         // Start the reset timer for MAX UNAUTH time
// 1355         ZDApp_ResetTimerStart( 10000 );//MAX_DEVICE_UNAUTH_TIMEOUT );
// 1356       }
// 1357       else
// 1358       {
// 1359         if ( ZSTACK_ROUTER_BUILD )
??CrossCallReturnLabel_47:
        MOV     DPTR,#zgDeviceLogicalType
        MOVX    A,@DPTR
        JZ      ??ZDApp_ProcessNetworkJoin_4
        XRL     A,#0x1
        JNZ     ??ZDApp_ProcessNetworkJoin_5
// 1360         {
// 1361           if ( devState == DEV_NWK_ORPHAN 
// 1362             && ZDO_Config_Node_Descriptor.LogicalType != NODETYPE_DEVICE )
??ZDApp_ProcessNetworkJoin_4:
        MOV     DPTR,#devState
        MOVX    A,@DPTR
        XRL     A,#0xa
        JNZ     ??ZDApp_ProcessNetworkJoin_5
        LCALL   ?Subroutine14 & 0xFFFF
??CrossCallReturnLabel_19:
        JZ      ??ZDApp_ProcessNetworkJoin_6
// 1363           {
// 1364             // Change NIB state to router for restore
// 1365             _NIB.nwkState = NWK_ROUTER;
        MOV     DPTR,#_NIB + 35
        MOV     A,#0x8
        MOVX    @DPTR,A
        SJMP    ??ZDApp_ProcessNetworkJoin_6
// 1366           }
// 1367         }
// 1368                 
// 1369         if ( devState == DEV_NWK_JOINING )
??ZDApp_ProcessNetworkJoin_5:
        MOV     DPTR,#devState
        MOVX    A,@DPTR
        XRL     A,#0x3
        JNZ     ??ZDApp_ProcessNetworkJoin_6
// 1370         {
// 1371           ZDApp_AnnounceNewAddress();
        ; Setup parameters for call to function ZDApp_AnnounceNewAddress
        LCALL   ??ZDApp_AnnounceNewAddress?relay
// 1372         }
// 1373         
// 1374         devState = DEV_END_DEVICE;
??ZDApp_ProcessNetworkJoin_6:
        MOV     DPTR,#devState
        MOV     A,#0x6
        MOVX    @DPTR,A
// 1375         if ( ZSTACK_ROUTER_BUILD )
        MOV     DPTR,#zgDeviceLogicalType
        MOVX    A,@DPTR
        JZ      ??ZDApp_ProcessNetworkJoin_7
        XRL     A,#0x1
        JZ      $+5
        LJMP    ??CrossCallReturnLabel_33 & 0xFFFF
// 1376         {
// 1377           // NOTE: first two parameters are not used, see NLMEDE.h for details
// 1378           if ( ZDO_Config_Node_Descriptor.LogicalType != NODETYPE_DEVICE )
??ZDApp_ProcessNetworkJoin_7:
        LCALL   ?Subroutine14 & 0xFFFF
??CrossCallReturnLabel_20:
        JNZ     $+5
        LJMP    ??CrossCallReturnLabel_33 & 0xFFFF
// 1379           {
// 1380             NLME_StartRouterRequest( 0, 0, false );
        ; Setup parameters for call to function NLME_StartRouterRequest
        MOV     R3,#0x0
        MOV     R2,#0x0
        MOV     R1,#0x0
        LCALL   ??NLME_StartRouterRequest?relay
        LJMP    ??CrossCallReturnLabel_33 & 0xFFFF
// 1381           }
// 1382         }
// 1383       }
// 1384     }
// 1385     else
// 1386     {
// 1387       if ( (devStartMode == MODE_RESUME) && (++retryCnt >= MAX_RESUME_RETRY) )
??ZDApp_ProcessNetworkJoin_3:
        MOV     DPTR,#devStartMode
        MOVX    A,@DPTR
        XRL     A,#0x1
        JNZ     ??ZDApp_ProcessNetworkJoin_8
        MOV     DPTR,#retryCnt
        MOVX    A,@DPTR
        INC     A
        MOVX    @DPTR,A
        CLR     C
        SUBB    A,#0x3
        JC      ??ZDApp_ProcessNetworkJoin_8
// 1388       {
// 1389         if ( _NIB.nwkPanId == 0xFFFF || _NIB.nwkPanId == INVALID_PAN_ID )
        LCALL   ?Subroutine17 & 0xFFFF
??CrossCallReturnLabel_26:
        JNZ     ??ZDApp_ProcessNetworkJoin_9
        MOV     A,#-0x1
        XRL     A,R1
??ZDApp_ProcessNetworkJoin_9:
        JZ      ??ZDApp_ProcessNetworkJoin_10
        MOV     A,#-0x2
        XRL     A,R0
        JNZ     ??ZDApp_ProcessNetworkJoin_11
        MOV     A,#-0x1
        XRL     A,R1
??ZDApp_ProcessNetworkJoin_11:
        JNZ     ??ZDApp_ProcessNetworkJoin_12
// 1390           devStartMode = MODE_JOIN;
??ZDApp_ProcessNetworkJoin_10:
        MOV     DPTR,#devStartMode
        CLR     A
        SJMP    ??ZDApp_ProcessNetworkJoin_13
// 1391         else
// 1392         {
// 1393           devStartMode = MODE_REJOIN;
??ZDApp_ProcessNetworkJoin_12:
        MOV     DPTR,#devStartMode
        MOV     A,#0x3
        MOVX    @DPTR,A
// 1394           _tmpRejoinState = true;
        MOV     DPTR,#_tmpRejoinState
        MOV     A,#0x1
??ZDApp_ProcessNetworkJoin_13:
        MOVX    @DPTR,A
// 1395         }
// 1396       }
// 1397 
// 1398       if ( (NLME_GetShortAddr() != INVALID_NODE_ADDR) ||
// 1399            (_NIB.nwkDevAddress != INVALID_NODE_ADDR) )
??ZDApp_ProcessNetworkJoin_8:
        ; Setup parameters for call to function NLME_GetShortAddr
        LCALL   ??NLME_GetShortAddr?relay
        MOV     ?V0 + 0,R2
        MOV     ?V0 + 1,R3
        MOV     A,#-0x2
        XRL     A,?V0 + 0
        JNZ     ??ZDApp_ProcessNetworkJoin_14
        MOV     A,#-0x1
        XRL     A,?V0 + 1
??ZDApp_ProcessNetworkJoin_14:
        JNZ     ??ZDApp_ProcessNetworkJoin_15
        MOV     DPTR,#_NIB + 20
        MOVX    A,@DPTR
        XRL     A,#0xfe
        JNZ     ??ZDApp_ProcessNetworkJoin_16
        INC     DPTR
        MOVX    A,@DPTR
        CPL     A
??ZDApp_ProcessNetworkJoin_16:
        JZ      ??ZDApp_ProcessNetworkJoin_17
// 1400       {
// 1401         uint16 addr = INVALID_NODE_ADDR;
??ZDApp_ProcessNetworkJoin_15:
        MOV     DPL,?XSP + 0
        MOV     DPH,?XSP + 1
        MOV     A,#-0x2
        MOVX    @DPTR,A
        INC     DPTR
        INC     A
        MOVX    @DPTR,A
// 1402         // Invalidate nwk addr so end device does not use in its data reqs.
// 1403         _NIB.nwkDevAddress = INVALID_NODE_ADDR;
        MOV     DPTR,#_NIB + 20
        DEC     A
        MOVX    @DPTR,A
        INC     DPTR
        INC     A
        MOVX    @DPTR,A
// 1404         ZMacSetReq( ZMacShortAddress, (uint8 *)&addr );
        ; Setup parameters for call to function ZMacSetReq
        MOV     DPL,?XSP + 0
        MOV     DPH,?XSP + 1
        MOV     R2,DPL
        MOV     R3,DPH
        MOV     R1,#0x53
        LCALL   ??ZMacSetReq?relay
// 1405       }
// 1406 
// 1407       // Clear the neighbor Table and network discovery tables.
// 1408       nwkNeighborInitTable();
??ZDApp_ProcessNetworkJoin_17:
        ; Setup parameters for call to function nwkNeighborInitTable
        LCALL   ??nwkNeighborInitTable?relay
// 1409       NLME_NwkDiscTerm();
        ; Setup parameters for call to function NLME_NwkDiscTerm
        LCALL   ??NLME_NwkDiscTerm?relay
// 1410 
// 1411       zdoDiscCounter = 1;
        MOV     DPTR,#zdoDiscCounter
        MOV     A,#0x1
        MOVX    @DPTR,A
// 1412 
// 1413 //      ZDApp_NetworkInit( (uint16)
// 1414 //                         ((NWK_START_DELAY * (osal_rand() & 0x0F)) +
// 1415 //                          (NWK_START_DELAY * 5)) );
// 1416       ZDApp_NetworkInit( (uint16)(NWK_START_DELAY
// 1417            + ((uint16)(osal_rand()& EXTENDED_JOINING_RANDOM_MASK))) );
        ; Setup parameters for call to function ZDApp_NetworkInit
        ; Setup parameters for call to function osal_rand
        SJMP    ??ZDApp_ProcessNetworkJoin_18
// 1418     }
// 1419   }
// 1420   else if ( devState == DEV_NWK_ORPHAN || devState == DEV_NWK_REJOIN )
??ZDApp_ProcessNetworkJoin_1:
        MOVX    A,@DPTR
        XRL     A,#0x4
        JNZ     ??CrossCallReturnLabel_33
// 1421   {
// 1422     // results of an orphaning attempt by this device
// 1423     if (nwkStatus == ZSuccess)
??ZDApp_ProcessNetworkJoin_2:
        MOV     DPTR,#nwkStatus
        MOVX    A,@DPTR
        JNZ     ??ZDApp_ProcessNetworkJoin_19
// 1424     {
// 1425       if ( ZG_SECURE_ENABLED )
// 1426       {
// 1427         ZDApp_RestoreNwkKey();
// 1428       }
// 1429       
// 1430       devState = DEV_END_DEVICE;
        LCALL   ?Subroutine5 & 0xFFFF
// 1431       osal_set_event( ZDAppTaskID, ZDO_STATE_CHANGE_EVT );
// 1432       // setup Power Manager Device
// 1433 #if defined ( POWER_SAVING )
// 1434       osal_pwrmgr_device( PWRMGR_BATTERY );
// 1435 #endif
// 1436 
// 1437       if ( ZDO_Config_Node_Descriptor.CapabilityFlags & CAPINFO_RCVR_ON_IDLE )
??CrossCallReturnLabel_1:
        MOV     DPTR,#ZDO_Config_Node_Descriptor + 2
        MOVX    A,@DPTR
        MOV     C,0xE0 /* A   */.3
        JNC     ??CrossCallReturnLabel_29
// 1438       {
// 1439         // The receiver is on, turn network layer polling off.
// 1440         NLME_SetPollRate( 0 );
        ; Setup parameters for call to function NLME_SetPollRate
        LCALL   ?Subroutine18 & 0xFFFF
// 1441         NLME_SetQueuedPollRate( 0 );
// 1442         NLME_SetResponseRate( 0 );
// 1443       }
// 1444 
// 1445       if ( ZSTACK_ROUTER_BUILD )
??CrossCallReturnLabel_29:
        MOV     DPTR,#zgDeviceLogicalType
        MOVX    A,@DPTR
        JZ      ??ZDApp_ProcessNetworkJoin_20
        XRL     A,#0x1
        JNZ     ??ZDApp_ProcessNetworkJoin_21
// 1446       {
// 1447         // NOTE: first two parameters are not used, see NLMEDE.h for details
// 1448         if ( ZDO_Config_Node_Descriptor.LogicalType != NODETYPE_DEVICE )
??ZDApp_ProcessNetworkJoin_20:
        LCALL   ?Subroutine14 & 0xFFFF
??CrossCallReturnLabel_21:
        JZ      ??ZDApp_ProcessNetworkJoin_21
// 1449         {
// 1450           NLME_StartRouterRequest( 0, 0, false );
        ; Setup parameters for call to function NLME_StartRouterRequest
        MOV     R3,#0x0
        MOV     R2,#0x0
        MOV     R1,#0x0
        LCALL   ??NLME_StartRouterRequest?relay
// 1451         }
// 1452       }
// 1453       
// 1454       ZDApp_AnnounceNewAddress();
??ZDApp_ProcessNetworkJoin_21:
        ; Setup parameters for call to function ZDApp_AnnounceNewAddress
        LCALL   ??ZDApp_AnnounceNewAddress?relay
        SJMP    ??CrossCallReturnLabel_33
// 1455     }
// 1456     else
// 1457     {
// 1458       if ( devStartMode == MODE_RESUME )
??ZDApp_ProcessNetworkJoin_19:
        MOV     DPTR,#devStartMode
        MOVX    A,@DPTR
        XRL     A,#0x1
        JNZ     ??ZDApp_ProcessNetworkJoin_22
// 1459       {
// 1460         if ( ++retryCnt <= MAX_RESUME_RETRY )
        MOV     DPTR,#retryCnt
        MOVX    A,@DPTR
        INC     A
        MOVX    @DPTR,A
        CLR     C
        SUBB    A,#0x4
        JNC     ??ZDApp_ProcessNetworkJoin_23
// 1461         {
// 1462           if ( _NIB.nwkPanId == 0xFFFF || _NIB.nwkPanId == INVALID_PAN_ID )
        LCALL   ?Subroutine17 & 0xFFFF
??CrossCallReturnLabel_27:
        JNZ     ??ZDApp_ProcessNetworkJoin_24
        MOV     A,#-0x1
        XRL     A,R1
??ZDApp_ProcessNetworkJoin_24:
        JZ      ??ZDApp_ProcessNetworkJoin_25
        MOV     A,#-0x2
        XRL     A,R0
        JNZ     ??ZDApp_ProcessNetworkJoin_26
        MOV     A,#-0x1
        XRL     A,R1
??ZDApp_ProcessNetworkJoin_26:
        JNZ     ??ZDApp_ProcessNetworkJoin_27
// 1463             devStartMode = MODE_JOIN;
??ZDApp_ProcessNetworkJoin_25:
        MOV     DPTR,#devStartMode
        CLR     A
??ZDApp_ProcessNetworkJoin_28:
        MOVX    @DPTR,A
        SJMP    ??ZDApp_ProcessNetworkJoin_22
// 1464           else
// 1465           {
// 1466             devStartMode = MODE_REJOIN;
??ZDApp_ProcessNetworkJoin_27:
        MOV     DPTR,#devStartMode
        MOV     A,#0x3
        MOVX    @DPTR,A
// 1467             _tmpRejoinState = true;
        MOV     DPTR,#_tmpRejoinState
        MOV     A,#0x1
        SJMP    ??ZDApp_ProcessNetworkJoin_28
// 1468           }
// 1469         }
// 1470         // Do a normal join to the network after certain times of rejoin retries
// 1471         else if( AIB_apsUseInsecureJoin == true )
??ZDApp_ProcessNetworkJoin_23:
        MOV     DPTR,#AIB_apsUseInsecureJoin
        MOVX    A,@DPTR
        XRL     A,#0x1
        JZ      ??ZDApp_ProcessNetworkJoin_25
// 1472         {
// 1473           devStartMode = MODE_JOIN;
// 1474         }
// 1475       }
// 1476 
// 1477       // Clear the neighbor Table and network discovery tables.
// 1478       nwkNeighborInitTable();
??ZDApp_ProcessNetworkJoin_22:
        ; Setup parameters for call to function nwkNeighborInitTable
        LCALL   ??nwkNeighborInitTable?relay
// 1479       NLME_NwkDiscTerm();
        ; Setup parameters for call to function NLME_NwkDiscTerm
        LCALL   ??NLME_NwkDiscTerm?relay
// 1480 
// 1481       // setup a retry for later...
// 1482       ZDApp_NetworkInit( (uint16)(NWK_START_DELAY
// 1483            + (osal_rand()& EXTENDED_JOINING_RANDOM_MASK)) );
        ; Setup parameters for call to function ZDApp_NetworkInit
        ; Setup parameters for call to function osal_rand
// 1484     }
// 1485   }
??ZDApp_ProcessNetworkJoin_18:
        LCALL   ?Subroutine20 & 0xFFFF
// 1486 #if defined ( ZIGBEE_STOCHASTIC_ADDRESSING )
// 1487   else
// 1488   {
// 1489     // Assume from address conflict
// 1490     if ( _NIB.nwkAddrAlloc == NWK_ADDRESSING_STOCHASTIC )
// 1491     {
// 1492       // Notify the network
// 1493       ZDApp_AnnounceNewAddress();
// 1494       
// 1495       // Notify apps
// 1496       osal_set_event( ZDAppTaskID, ZDO_STATE_CHANGE_EVT );
// 1497     }
// 1498   }
// 1499 #endif
// 1500 }
??CrossCallReturnLabel_33:
        LJMP    ?Subroutine1 & 0xFFFF
        CFI EndBlock cfiBlock52

        RSEG BANKED_CODE:CODE:NOROOT(0)
?Subroutine20:
        CFI Block cfiCond53 Using cfiCommon0
        CFI NoFunction
        CFI Conditional ??CrossCallReturnLabel_32
        CFI R6 load(1, XDATA, add(CFA_XSP16, literal(-15)))
        CFI VB load(1, XDATA, add(CFA_XSP16, literal(-14)))
        CFI V0 load(1, XDATA, add(CFA_XSP16, literal(-13)))
        CFI V1 load(1, XDATA, add(CFA_XSP16, literal(-12)))
        CFI V2 load(1, XDATA, add(CFA_XSP16, literal(-11)))
        CFI V3 load(1, XDATA, add(CFA_XSP16, literal(-10)))
        CFI V4 load(1, XDATA, add(CFA_XSP16, literal(-9)))
        CFI V5 load(1, XDATA, add(CFA_XSP16, literal(-8)))
        CFI V6 load(1, XDATA, add(CFA_XSP16, literal(-7)))
        CFI R7 load(1, XDATA, add(CFA_XSP16, literal(-6)))
        CFI ?RET_LOW load(1, XDATA, add(CFA_XSP16, literal(-5)))
        CFI ?RET_HIGH load(1, XDATA, add(CFA_XSP16, literal(-4)))
        CFI ?BRET_EXT load(1, XDATA, add(CFA_XSP16, literal(-3)))
        CFI DPL0 load(1, XDATA, add(CFA_XSP16, literal(-2)))
        CFI DPH0 load(1, XDATA, add(CFA_XSP16, literal(-1)))
        CFI CFA_SP SP+0
        CFI CFA_XSP16 add(XSP16, 16)
        CFI Block cfiCond54 Using cfiCommon0
        CFI (cfiCond54) NoFunction
        CFI (cfiCond54) Conditional ??CrossCallReturnLabel_33
        CFI (cfiCond54) R6 load(1, XDATA, add(CFA_XSP16, literal(-10)))
        CFI (cfiCond54) VB load(1, XDATA, add(CFA_XSP16, literal(-9)))
        CFI (cfiCond54) V0 load(1, XDATA, add(CFA_XSP16, literal(-8)))
        CFI (cfiCond54) V1 load(1, XDATA, add(CFA_XSP16, literal(-7)))
        CFI (cfiCond54) R7 load(1, XDATA, add(CFA_XSP16, literal(-6)))
        CFI (cfiCond54) ?RET_LOW load(1, XDATA, add(CFA_XSP16, literal(-5)))
        CFI (cfiCond54) ?RET_HIGH load(1, XDATA, add(CFA_XSP16, literal(-4)))
        CFI (cfiCond54) ?BRET_EXT load(1, XDATA, add(CFA_XSP16, literal(-3)))
        CFI (cfiCond54) DPL0 load(1, XDATA, add(CFA_XSP16, literal(-2)))
        CFI (cfiCond54) DPH0 load(1, XDATA, add(CFA_XSP16, literal(-1)))
        CFI (cfiCond54) CFA_SP SP+0
        CFI (cfiCond54) CFA_XSP16 add(XSP16, 12)
        CFI Block cfiPicker55 Using cfiCommon1
        CFI (cfiPicker55) NoFunction
        CFI (cfiPicker55) Picker
        LCALL   ??osal_rand?relay
        MOV     A,R2
        ANL     A,#0x7f
        ADD     A,#0x64
        MOV     R2,A
        MOV     R3,#0x0
        LCALL   ??ZDApp_NetworkInit?relay
        RET
        CFI EndBlock cfiCond53
        CFI EndBlock cfiCond54
        CFI EndBlock cfiPicker55

        RSEG BANKED_CODE:CODE:NOROOT(0)
?Subroutine18:
        CFI Block cfiCond56 Using cfiCommon0
        CFI NoFunction
        CFI Conditional ??CrossCallReturnLabel_28
        CFI R6 load(1, XDATA, add(CFA_XSP16, literal(-15)))
        CFI VB load(1, XDATA, add(CFA_XSP16, literal(-14)))
        CFI V0 load(1, XDATA, add(CFA_XSP16, literal(-13)))
        CFI V1 load(1, XDATA, add(CFA_XSP16, literal(-12)))
        CFI V2 load(1, XDATA, add(CFA_XSP16, literal(-11)))
        CFI V3 load(1, XDATA, add(CFA_XSP16, literal(-10)))
        CFI V4 load(1, XDATA, add(CFA_XSP16, literal(-9)))
        CFI V5 load(1, XDATA, add(CFA_XSP16, literal(-8)))
        CFI V6 load(1, XDATA, add(CFA_XSP16, literal(-7)))
        CFI R7 load(1, XDATA, add(CFA_XSP16, literal(-6)))
        CFI ?RET_LOW load(1, XDATA, add(CFA_XSP16, literal(-5)))
        CFI ?RET_HIGH load(1, XDATA, add(CFA_XSP16, literal(-4)))
        CFI ?BRET_EXT load(1, XDATA, add(CFA_XSP16, literal(-3)))
        CFI DPL0 load(1, XDATA, add(CFA_XSP16, literal(-2)))
        CFI DPH0 load(1, XDATA, add(CFA_XSP16, literal(-1)))
        CFI CFA_SP SP+0
        CFI CFA_XSP16 add(XSP16, 16)
        CFI Block cfiCond57 Using cfiCommon0
        CFI (cfiCond57) NoFunction
        CFI (cfiCond57) Conditional ??CrossCallReturnLabel_29
        CFI (cfiCond57) R6 load(1, XDATA, add(CFA_XSP16, literal(-10)))
        CFI (cfiCond57) VB load(1, XDATA, add(CFA_XSP16, literal(-9)))
        CFI (cfiCond57) V0 load(1, XDATA, add(CFA_XSP16, literal(-8)))
        CFI (cfiCond57) V1 load(1, XDATA, add(CFA_XSP16, literal(-7)))
        CFI (cfiCond57) R7 load(1, XDATA, add(CFA_XSP16, literal(-6)))
        CFI (cfiCond57) ?RET_LOW load(1, XDATA, add(CFA_XSP16, literal(-5)))
        CFI (cfiCond57) ?RET_HIGH load(1, XDATA, add(CFA_XSP16, literal(-4)))
        CFI (cfiCond57) ?BRET_EXT load(1, XDATA, add(CFA_XSP16, literal(-3)))
        CFI (cfiCond57) DPL0 load(1, XDATA, add(CFA_XSP16, literal(-2)))
        CFI (cfiCond57) DPH0 load(1, XDATA, add(CFA_XSP16, literal(-1)))
        CFI (cfiCond57) CFA_SP SP+0
        CFI (cfiCond57) CFA_XSP16 add(XSP16, 12)
        CFI Block cfiPicker58 Using cfiCommon1
        CFI (cfiPicker58) NoFunction
        CFI (cfiPicker58) Picker
        MOV     R2,#0x0
        MOV     R3,#0x0
        LCALL   ??NLME_SetPollRate?relay
        ; Setup parameters for call to function NLME_SetQueuedPollRate
        ; Setup parameters for call to function NLME_SetQueuedPollRate
        MOV     R2,#0x0
        MOV     R3,#0x0
        LCALL   ??NLME_SetQueuedPollRate?relay
        ; Setup parameters for call to function NLME_SetResponseRate
        ; Setup parameters for call to function NLME_SetResponseRate
        MOV     R2,#0x0
        MOV     R3,#0x0
        LCALL   ??NLME_SetResponseRate?relay
        RET
        CFI EndBlock cfiCond56
        CFI EndBlock cfiCond57
        CFI EndBlock cfiPicker58

        RSEG BANKED_CODE:CODE:NOROOT(0)
?Subroutine17:
        CFI Block cfiCond59 Using cfiCommon0
        CFI NoFunction
        CFI Conditional ??CrossCallReturnLabel_26
        CFI R6 load(1, XDATA, add(CFA_XSP16, literal(-10)))
        CFI VB load(1, XDATA, add(CFA_XSP16, literal(-9)))
        CFI V0 load(1, XDATA, add(CFA_XSP16, literal(-8)))
        CFI V1 load(1, XDATA, add(CFA_XSP16, literal(-7)))
        CFI R7 load(1, XDATA, add(CFA_XSP16, literal(-6)))
        CFI ?RET_LOW load(1, XDATA, add(CFA_XSP16, literal(-5)))
        CFI ?RET_HIGH load(1, XDATA, add(CFA_XSP16, literal(-4)))
        CFI ?BRET_EXT load(1, XDATA, add(CFA_XSP16, literal(-3)))
        CFI DPL0 load(1, XDATA, add(CFA_XSP16, literal(-2)))
        CFI DPH0 load(1, XDATA, add(CFA_XSP16, literal(-1)))
        CFI CFA_SP SP+0
        CFI CFA_XSP16 add(XSP16, 12)
        CFI Block cfiCond60 Using cfiCommon0
        CFI (cfiCond60) NoFunction
        CFI (cfiCond60) Conditional ??CrossCallReturnLabel_27
        CFI (cfiCond60) R6 load(1, XDATA, add(CFA_XSP16, literal(-10)))
        CFI (cfiCond60) VB load(1, XDATA, add(CFA_XSP16, literal(-9)))
        CFI (cfiCond60) V0 load(1, XDATA, add(CFA_XSP16, literal(-8)))
        CFI (cfiCond60) V1 load(1, XDATA, add(CFA_XSP16, literal(-7)))
        CFI (cfiCond60) R7 load(1, XDATA, add(CFA_XSP16, literal(-6)))
        CFI (cfiCond60) ?RET_LOW load(1, XDATA, add(CFA_XSP16, literal(-5)))
        CFI (cfiCond60) ?RET_HIGH load(1, XDATA, add(CFA_XSP16, literal(-4)))
        CFI (cfiCond60) ?BRET_EXT load(1, XDATA, add(CFA_XSP16, literal(-3)))
        CFI (cfiCond60) DPL0 load(1, XDATA, add(CFA_XSP16, literal(-2)))
        CFI (cfiCond60) DPH0 load(1, XDATA, add(CFA_XSP16, literal(-1)))
        CFI (cfiCond60) CFA_SP SP+0
        CFI (cfiCond60) CFA_XSP16 add(XSP16, 12)
        CFI Block cfiPicker61 Using cfiCommon1
        CFI (cfiPicker61) NoFunction
        CFI (cfiPicker61) Picker
        MOV     DPTR,#_NIB + 33
        LCALL   ?Subroutine26 & 0xFFFF
??CrossCallReturnLabel_44:
        MOV     A,#-0x1
        XRL     A,R0
        RET
        CFI EndBlock cfiCond59
        CFI EndBlock cfiCond60
        CFI EndBlock cfiPicker61

        RSEG BANKED_CODE:CODE:NOROOT(0)
?Subroutine26:
        CFI Block cfiCond62 Using cfiCommon0
        CFI NoFunction
        CFI Conditional ??CrossCallReturnLabel_41
        CFI R6 load(1, XDATA, add(CFA_XSP16, literal(-9)))
        CFI VB load(1, XDATA, add(CFA_XSP16, literal(-8)))
        CFI V0 load(1, XDATA, add(CFA_XSP16, literal(-7)))
        CFI R7 load(1, XDATA, add(CFA_XSP16, literal(-6)))
        CFI ?RET_LOW load(1, XDATA, add(CFA_XSP16, literal(-5)))
        CFI ?RET_HIGH load(1, XDATA, add(CFA_XSP16, literal(-4)))
        CFI ?BRET_EXT load(1, XDATA, add(CFA_XSP16, literal(-3)))
        CFI DPL0 load(1, XDATA, add(CFA_XSP16, literal(-2)))
        CFI DPH0 load(1, XDATA, add(CFA_XSP16, literal(-1)))
        CFI CFA_SP SP+0
        CFI CFA_XSP16 add(XSP16, 9)
        CFI Block cfiCond63 Using cfiCommon0
        CFI (cfiCond63) NoFunction
        CFI (cfiCond63) Conditional ??CrossCallReturnLabel_43, ??CrossCallReturnLabel_8
        CFI (cfiCond63) R6 load(1, XDATA, add(CFA_XSP16, literal(-9)))
        CFI (cfiCond63) VB load(1, XDATA, add(CFA_XSP16, literal(-8)))
        CFI (cfiCond63) V0 load(1, XDATA, add(CFA_XSP16, literal(-7)))
        CFI (cfiCond63) R7 load(1, XDATA, add(CFA_XSP16, literal(-6)))
        CFI (cfiCond63) ?RET_LOW load(1, XDATA, add(CFA_XSP16, literal(-5)))
        CFI (cfiCond63) ?RET_HIGH load(1, XDATA, add(CFA_XSP16, literal(-4)))
        CFI (cfiCond63) ?BRET_EXT load(1, XDATA, add(CFA_XSP16, literal(-3)))
        CFI (cfiCond63) DPL0 load(1, XDATA, add(CFA_XSP16, literal(-2)))
        CFI (cfiCond63) DPH0 load(1, XDATA, add(CFA_XSP16, literal(-1)))
        CFI (cfiCond63) CFA_SP SP+0
        CFI (cfiCond63) CFA_XSP16 add(XSP16, 9)
        CFI Block cfiCond64 Using cfiCommon0
        CFI (cfiCond64) NoFunction
        CFI (cfiCond64) Conditional ??CrossCallReturnLabel_43, ??CrossCallReturnLabel_9
        CFI (cfiCond64) R6 load(1, XDATA, add(CFA_XSP16, literal(-15)))
        CFI (cfiCond64) VB load(1, XDATA, add(CFA_XSP16, literal(-14)))
        CFI (cfiCond64) V0 load(1, XDATA, add(CFA_XSP16, literal(-13)))
        CFI (cfiCond64) V1 load(1, XDATA, add(CFA_XSP16, literal(-12)))
        CFI (cfiCond64) V2 load(1, XDATA, add(CFA_XSP16, literal(-11)))
        CFI (cfiCond64) V3 load(1, XDATA, add(CFA_XSP16, literal(-10)))
        CFI (cfiCond64) V4 load(1, XDATA, add(CFA_XSP16, literal(-9)))
        CFI (cfiCond64) V5 load(1, XDATA, add(CFA_XSP16, literal(-8)))
        CFI (cfiCond64) V6 load(1, XDATA, add(CFA_XSP16, literal(-7)))
        CFI (cfiCond64) R7 load(1, XDATA, add(CFA_XSP16, literal(-6)))
        CFI (cfiCond64) ?RET_LOW load(1, XDATA, add(CFA_XSP16, literal(-5)))
        CFI (cfiCond64) ?RET_HIGH load(1, XDATA, add(CFA_XSP16, literal(-4)))
        CFI (cfiCond64) ?BRET_EXT load(1, XDATA, add(CFA_XSP16, literal(-3)))
        CFI (cfiCond64) DPL0 load(1, XDATA, add(CFA_XSP16, literal(-2)))
        CFI (cfiCond64) DPH0 load(1, XDATA, add(CFA_XSP16, literal(-1)))
        CFI (cfiCond64) CFA_SP SP+0
        CFI (cfiCond64) CFA_XSP16 add(XSP16, 16)
        CFI Block cfiCond65 Using cfiCommon0
        CFI (cfiCond65) NoFunction
        CFI (cfiCond65) Conditional ??CrossCallReturnLabel_43, ??CrossCallReturnLabel_10
        CFI (cfiCond65) R6 load(1, XDATA, add(CFA_XSP16, literal(-10)))
        CFI (cfiCond65) VB load(1, XDATA, add(CFA_XSP16, literal(-9)))
        CFI (cfiCond65) V0 load(1, XDATA, add(CFA_XSP16, literal(-8)))
        CFI (cfiCond65) V1 load(1, XDATA, add(CFA_XSP16, literal(-7)))
        CFI (cfiCond65) R7 load(1, XDATA, add(CFA_XSP16, literal(-6)))
        CFI (cfiCond65) ?RET_LOW load(1, XDATA, add(CFA_XSP16, literal(-5)))
        CFI (cfiCond65) ?RET_HIGH load(1, XDATA, add(CFA_XSP16, literal(-4)))
        CFI (cfiCond65) ?BRET_EXT load(1, XDATA, add(CFA_XSP16, literal(-3)))
        CFI (cfiCond65) DPL0 load(1, XDATA, add(CFA_XSP16, literal(-2)))
        CFI (cfiCond65) DPH0 load(1, XDATA, add(CFA_XSP16, literal(-1)))
        CFI (cfiCond65) CFA_SP SP+0
        CFI (cfiCond65) CFA_XSP16 add(XSP16, 54)
        CFI Block cfiCond66 Using cfiCommon0
        CFI (cfiCond66) NoFunction
        CFI (cfiCond66) Conditional ??CrossCallReturnLabel_43, ??CrossCallReturnLabel_11
        CFI (cfiCond66) R6 load(1, XDATA, add(CFA_XSP16, literal(-9)))
        CFI (cfiCond66) VB load(1, XDATA, add(CFA_XSP16, literal(-8)))
        CFI (cfiCond66) V0 load(1, XDATA, add(CFA_XSP16, literal(-7)))
        CFI (cfiCond66) R7 load(1, XDATA, add(CFA_XSP16, literal(-6)))
        CFI (cfiCond66) ?RET_LOW load(1, XDATA, add(CFA_XSP16, literal(-5)))
        CFI (cfiCond66) ?RET_HIGH load(1, XDATA, add(CFA_XSP16, literal(-4)))
        CFI (cfiCond66) ?BRET_EXT load(1, XDATA, add(CFA_XSP16, literal(-3)))
        CFI (cfiCond66) DPL0 load(1, XDATA, add(CFA_XSP16, literal(-2)))
        CFI (cfiCond66) DPH0 load(1, XDATA, add(CFA_XSP16, literal(-1)))
        CFI (cfiCond66) CFA_SP SP+0
        CFI (cfiCond66) CFA_XSP16 add(XSP16, 14)
        CFI Block cfiCond67 Using cfiCommon0
        CFI (cfiCond67) NoFunction
        CFI (cfiCond67) Conditional ??CrossCallReturnLabel_44, ??CrossCallReturnLabel_26
        CFI (cfiCond67) R6 load(1, XDATA, add(CFA_XSP16, literal(-10)))
        CFI (cfiCond67) VB load(1, XDATA, add(CFA_XSP16, literal(-9)))
        CFI (cfiCond67) V0 load(1, XDATA, add(CFA_XSP16, literal(-8)))
        CFI (cfiCond67) V1 load(1, XDATA, add(CFA_XSP16, literal(-7)))
        CFI (cfiCond67) R7 load(1, XDATA, add(CFA_XSP16, literal(-6)))
        CFI (cfiCond67) ?RET_LOW load(1, XDATA, add(CFA_XSP16, literal(-5)))
        CFI (cfiCond67) ?RET_HIGH load(1, XDATA, add(CFA_XSP16, literal(-4)))
        CFI (cfiCond67) ?BRET_EXT load(1, XDATA, add(CFA_XSP16, literal(-3)))
        CFI (cfiCond67) DPL0 load(1, XDATA, add(CFA_XSP16, literal(-2)))
        CFI (cfiCond67) DPH0 load(1, XDATA, add(CFA_XSP16, literal(-1)))
        CFI (cfiCond67) CFA_SP SP+0
        CFI (cfiCond67) CFA_XSP16 add(XSP16, 12)
        CFI Block cfiCond68 Using cfiCommon0
        CFI (cfiCond68) NoFunction
        CFI (cfiCond68) Conditional ??CrossCallReturnLabel_44, ??CrossCallReturnLabel_27
        CFI (cfiCond68) R6 load(1, XDATA, add(CFA_XSP16, literal(-10)))
        CFI (cfiCond68) VB load(1, XDATA, add(CFA_XSP16, literal(-9)))
        CFI (cfiCond68) V0 load(1, XDATA, add(CFA_XSP16, literal(-8)))
        CFI (cfiCond68) V1 load(1, XDATA, add(CFA_XSP16, literal(-7)))
        CFI (cfiCond68) R7 load(1, XDATA, add(CFA_XSP16, literal(-6)))
        CFI (cfiCond68) ?RET_LOW load(1, XDATA, add(CFA_XSP16, literal(-5)))
        CFI (cfiCond68) ?RET_HIGH load(1, XDATA, add(CFA_XSP16, literal(-4)))
        CFI (cfiCond68) ?BRET_EXT load(1, XDATA, add(CFA_XSP16, literal(-3)))
        CFI (cfiCond68) DPL0 load(1, XDATA, add(CFA_XSP16, literal(-2)))
        CFI (cfiCond68) DPH0 load(1, XDATA, add(CFA_XSP16, literal(-1)))
        CFI (cfiCond68) CFA_SP SP+0
        CFI (cfiCond68) CFA_XSP16 add(XSP16, 12)
        CFI Block cfiCond69 Using cfiCommon0
        CFI (cfiCond69) NoFunction
        CFI (cfiCond69) Conditional ??CrossCallReturnLabel_42
        CFI (cfiCond69) R6 load(1, XDATA, add(CFA_XSP16, literal(-18)))
        CFI (cfiCond69) VB load(1, XDATA, add(CFA_XSP16, literal(-17)))
        CFI (cfiCond69) V0 load(1, XDATA, add(CFA_XSP16, literal(-16)))
        CFI (cfiCond69) V1 load(1, XDATA, add(CFA_XSP16, literal(-15)))
        CFI (cfiCond69) V2 load(1, XDATA, add(CFA_XSP16, literal(-14)))
        CFI (cfiCond69) V3 load(1, XDATA, add(CFA_XSP16, literal(-13)))
        CFI (cfiCond69) V4 load(1, XDATA, add(CFA_XSP16, literal(-12)))
        CFI (cfiCond69) V5 load(1, XDATA, add(CFA_XSP16, literal(-11)))
        CFI (cfiCond69) V6 load(1, XDATA, add(CFA_XSP16, literal(-10)))
        CFI (cfiCond69) V7 load(1, XDATA, add(CFA_XSP16, literal(-9)))
        CFI (cfiCond69) V8 load(1, XDATA, add(CFA_XSP16, literal(-8)))
        CFI (cfiCond69) V9 load(1, XDATA, add(CFA_XSP16, literal(-7)))
        CFI (cfiCond69) R7 load(1, XDATA, add(CFA_XSP16, literal(-6)))
        CFI (cfiCond69) ?RET_LOW load(1, XDATA, add(CFA_XSP16, literal(-5)))
        CFI (cfiCond69) ?RET_HIGH load(1, XDATA, add(CFA_XSP16, literal(-4)))
        CFI (cfiCond69) ?BRET_EXT load(1, XDATA, add(CFA_XSP16, literal(-3)))
        CFI (cfiCond69) DPL0 load(1, XDATA, add(CFA_XSP16, literal(-2)))
        CFI (cfiCond69) DPH0 load(1, XDATA, add(CFA_XSP16, literal(-1)))
        CFI (cfiCond69) CFA_SP SP+0
        CFI (cfiCond69) CFA_XSP16 add(XSP16, 32)
        CFI Block cfiPicker70 Using cfiCommon1
        CFI (cfiPicker70) NoFunction
        CFI (cfiPicker70) Picker
        MOVX    A,@DPTR
        MOV     R0,A
        INC     DPTR
        MOVX    A,@DPTR
        MOV     R1,A
        RET
        CFI EndBlock cfiCond62
        CFI EndBlock cfiCond63
        CFI EndBlock cfiCond64
        CFI EndBlock cfiCond65
        CFI EndBlock cfiCond66
        CFI EndBlock cfiCond67
        CFI EndBlock cfiCond68
        CFI EndBlock cfiCond69
        CFI EndBlock cfiPicker70

        RSEG BANKED_CODE:CODE:NOROOT(0)
?Subroutine14:
        CFI Block cfiCond71 Using cfiCommon0
        CFI NoFunction
        CFI Conditional ??CrossCallReturnLabel_18
        CFI DPL0 Frame(CFA_SP, 4)
        CFI DPH0 Frame(CFA_SP, 5)
        CFI CFA_SP SP+-5
        CFI Block cfiCond72 Using cfiCommon0
        CFI (cfiCond72) NoFunction
        CFI (cfiCond72) Conditional ??CrossCallReturnLabel_19
        CFI (cfiCond72) R6 load(1, XDATA, add(CFA_XSP16, literal(-10)))
        CFI (cfiCond72) VB load(1, XDATA, add(CFA_XSP16, literal(-9)))
        CFI (cfiCond72) V0 load(1, XDATA, add(CFA_XSP16, literal(-8)))
        CFI (cfiCond72) V1 load(1, XDATA, add(CFA_XSP16, literal(-7)))
        CFI (cfiCond72) R7 load(1, XDATA, add(CFA_XSP16, literal(-6)))
        CFI (cfiCond72) ?RET_LOW load(1, XDATA, add(CFA_XSP16, literal(-5)))
        CFI (cfiCond72) ?RET_HIGH load(1, XDATA, add(CFA_XSP16, literal(-4)))
        CFI (cfiCond72) ?BRET_EXT load(1, XDATA, add(CFA_XSP16, literal(-3)))
        CFI (cfiCond72) DPL0 load(1, XDATA, add(CFA_XSP16, literal(-2)))
        CFI (cfiCond72) DPH0 load(1, XDATA, add(CFA_XSP16, literal(-1)))
        CFI (cfiCond72) CFA_SP SP+0
        CFI (cfiCond72) CFA_XSP16 add(XSP16, 12)
        CFI Block cfiCond73 Using cfiCommon0
        CFI (cfiCond73) NoFunction
        CFI (cfiCond73) Conditional ??CrossCallReturnLabel_20
        CFI (cfiCond73) R6 load(1, XDATA, add(CFA_XSP16, literal(-10)))
        CFI (cfiCond73) VB load(1, XDATA, add(CFA_XSP16, literal(-9)))
        CFI (cfiCond73) V0 load(1, XDATA, add(CFA_XSP16, literal(-8)))
        CFI (cfiCond73) V1 load(1, XDATA, add(CFA_XSP16, literal(-7)))
        CFI (cfiCond73) R7 load(1, XDATA, add(CFA_XSP16, literal(-6)))
        CFI (cfiCond73) ?RET_LOW load(1, XDATA, add(CFA_XSP16, literal(-5)))
        CFI (cfiCond73) ?RET_HIGH load(1, XDATA, add(CFA_XSP16, literal(-4)))
        CFI (cfiCond73) ?BRET_EXT load(1, XDATA, add(CFA_XSP16, literal(-3)))
        CFI (cfiCond73) DPL0 load(1, XDATA, add(CFA_XSP16, literal(-2)))
        CFI (cfiCond73) DPH0 load(1, XDATA, add(CFA_XSP16, literal(-1)))
        CFI (cfiCond73) CFA_SP SP+0
        CFI (cfiCond73) CFA_XSP16 add(XSP16, 12)
        CFI Block cfiCond74 Using cfiCommon0
        CFI (cfiCond74) NoFunction
        CFI (cfiCond74) Conditional ??CrossCallReturnLabel_21
        CFI (cfiCond74) R6 load(1, XDATA, add(CFA_XSP16, literal(-10)))
        CFI (cfiCond74) VB load(1, XDATA, add(CFA_XSP16, literal(-9)))
        CFI (cfiCond74) V0 load(1, XDATA, add(CFA_XSP16, literal(-8)))
        CFI (cfiCond74) V1 load(1, XDATA, add(CFA_XSP16, literal(-7)))
        CFI (cfiCond74) R7 load(1, XDATA, add(CFA_XSP16, literal(-6)))
        CFI (cfiCond74) ?RET_LOW load(1, XDATA, add(CFA_XSP16, literal(-5)))
        CFI (cfiCond74) ?RET_HIGH load(1, XDATA, add(CFA_XSP16, literal(-4)))
        CFI (cfiCond74) ?BRET_EXT load(1, XDATA, add(CFA_XSP16, literal(-3)))
        CFI (cfiCond74) DPL0 load(1, XDATA, add(CFA_XSP16, literal(-2)))
        CFI (cfiCond74) DPH0 load(1, XDATA, add(CFA_XSP16, literal(-1)))
        CFI (cfiCond74) CFA_SP SP+0
        CFI (cfiCond74) CFA_XSP16 add(XSP16, 12)
        CFI Block cfiCond75 Using cfiCommon0
        CFI (cfiCond75) NoFunction
        CFI (cfiCond75) Conditional ??CrossCallReturnLabel_22
        CFI (cfiCond75) R6 load(1, XDATA, add(CFA_XSP16, literal(-14)))
        CFI (cfiCond75) VB load(1, XDATA, add(CFA_XSP16, literal(-13)))
        CFI (cfiCond75) V0 load(1, XDATA, add(CFA_XSP16, literal(-12)))
        CFI (cfiCond75) V1 load(1, XDATA, add(CFA_XSP16, literal(-11)))
        CFI (cfiCond75) V2 load(1, XDATA, add(CFA_XSP16, literal(-10)))
        CFI (cfiCond75) V3 load(1, XDATA, add(CFA_XSP16, literal(-9)))
        CFI (cfiCond75) V4 load(1, XDATA, add(CFA_XSP16, literal(-8)))
        CFI (cfiCond75) V5 load(1, XDATA, add(CFA_XSP16, literal(-7)))
        CFI (cfiCond75) R7 load(1, XDATA, add(CFA_XSP16, literal(-6)))
        CFI (cfiCond75) ?RET_LOW load(1, XDATA, add(CFA_XSP16, literal(-5)))
        CFI (cfiCond75) ?RET_HIGH load(1, XDATA, add(CFA_XSP16, literal(-4)))
        CFI (cfiCond75) ?BRET_EXT load(1, XDATA, add(CFA_XSP16, literal(-3)))
        CFI (cfiCond75) DPL0 load(1, XDATA, add(CFA_XSP16, literal(-2)))
        CFI (cfiCond75) DPH0 load(1, XDATA, add(CFA_XSP16, literal(-1)))
        CFI (cfiCond75) CFA_SP SP+0
        CFI (cfiCond75) CFA_XSP16 add(XSP16, 16)
        CFI Block cfiPicker76 Using cfiCommon1
        CFI (cfiPicker76) NoFunction
        CFI (cfiPicker76) Picker
        MOV     DPTR,#ZDO_Config_Node_Descriptor
        MOVX    A,@DPTR
        ANL     A,#0x7
        XRL     A,#0x2
        RET
        CFI EndBlock cfiCond71
        CFI EndBlock cfiCond72
        CFI EndBlock cfiCond73
        CFI EndBlock cfiCond74
        CFI EndBlock cfiCond75
        CFI EndBlock cfiPicker76

        RSEG BANKED_CODE:CODE:NOROOT(0)
?Subroutine5:
        CFI Block cfiCond77 Using cfiCommon0
        CFI NoFunction
        CFI Conditional ??CrossCallReturnLabel_0
        CFI DPL0 Frame(CFA_SP, 4)
        CFI DPH0 Frame(CFA_SP, 5)
        CFI CFA_SP SP+-5
        CFI Block cfiCond78 Using cfiCommon0
        CFI (cfiCond78) NoFunction
        CFI (cfiCond78) Conditional ??CrossCallReturnLabel_1
        CFI (cfiCond78) R6 load(1, XDATA, add(CFA_XSP16, literal(-10)))
        CFI (cfiCond78) VB load(1, XDATA, add(CFA_XSP16, literal(-9)))
        CFI (cfiCond78) V0 load(1, XDATA, add(CFA_XSP16, literal(-8)))
        CFI (cfiCond78) V1 load(1, XDATA, add(CFA_XSP16, literal(-7)))
        CFI (cfiCond78) R7 load(1, XDATA, add(CFA_XSP16, literal(-6)))
        CFI (cfiCond78) ?RET_LOW load(1, XDATA, add(CFA_XSP16, literal(-5)))
        CFI (cfiCond78) ?RET_HIGH load(1, XDATA, add(CFA_XSP16, literal(-4)))
        CFI (cfiCond78) ?BRET_EXT load(1, XDATA, add(CFA_XSP16, literal(-3)))
        CFI (cfiCond78) DPL0 load(1, XDATA, add(CFA_XSP16, literal(-2)))
        CFI (cfiCond78) DPH0 load(1, XDATA, add(CFA_XSP16, literal(-1)))
        CFI (cfiCond78) CFA_SP SP+0
        CFI (cfiCond78) CFA_XSP16 add(XSP16, 12)
        CFI Block cfiPicker79 Using cfiCommon1
        CFI (cfiPicker79) NoFunction
        CFI (cfiPicker79) Picker
        MOV     DPTR,#devState
        MOV     A,#0x6
        MOVX    @DPTR,A
        ; Setup parameters for call to function osal_set_event
        ; Setup parameters for call to function osal_set_event
        MOV     R2,#0x10
        MOV     R3,#0x0
        MOV     DPTR,#ZDAppTaskID
        MOVX    A,@DPTR
        MOV     R1,A
        LCALL   ??osal_set_event?relay
        RET
        CFI EndBlock cfiCond77
        CFI EndBlock cfiCond78
        CFI EndBlock cfiPicker79
// 1501 
// 1502 /*********************************************************************
// 1503  * @fn      ZDApp_SaveNwkKey()
// 1504  *
// 1505  * @brief   Save off the Network key information.
// 1506  *
// 1507  * @param   none
// 1508  *
// 1509  * @return  none
// 1510  */

        RSEG BANKED_CODE:CODE:NOROOT(0)
// 1511 void ZDApp_SaveNwkKey( void )
ZDApp_SaveNwkKey:
        CFI Block cfiBlock80 Using cfiCommon0
        CFI Function ZDApp_SaveNwkKey
        CODE
// 1512 {
        FUNCALL ZDApp_SaveNwkKey, SSP_ReadNwkActiveKey
        LOCFRAME ISTACK, 0, STACK
        LOCFRAME PSTACK, 0, STACK
        LOCFRAME XSTACK, 33, STACK
        LOCFRAME IOVERLAY, 0, STATIC
        LOCFRAME DOVERLAY, 0, STATIC
        ARGFRAME ISTACK, 0, STACK
        ARGFRAME PSTACK, 0, STACK
        ARGFRAME XSTACK, 33, STACK
        ARGFRAME IOVERLAY, 0, STATIC
        ARGFRAME DOVERLAY, 0, STATIC
        FUNCALL ZDApp_SaveNwkKey, osal_nv_write
        LOCFRAME ISTACK, 0, STACK
        LOCFRAME PSTACK, 0, STACK
        LOCFRAME XSTACK, 37, STACK
        LOCFRAME IOVERLAY, 0, STATIC
        LOCFRAME DOVERLAY, 0, STATIC
        ARGFRAME ISTACK, 0, STACK
        ARGFRAME PSTACK, 0, STACK
        ARGFRAME XSTACK, 37, STACK
        ARGFRAME IOVERLAY, 0, STATIC
        ARGFRAME DOVERLAY, 0, STATIC
        MOV     A,#-0xc
        LCALL   ?BANKED_ENTER_XDATA
        CFI DPH0 load(1, XDATA, add(CFA_XSP16, literal(-1)))
        CFI DPL0 load(1, XDATA, add(CFA_XSP16, literal(-2)))
        CFI ?BRET_EXT load(1, XDATA, add(CFA_XSP16, literal(-3)))
        CFI ?RET_HIGH load(1, XDATA, add(CFA_XSP16, literal(-4)))
        CFI ?RET_LOW load(1, XDATA, add(CFA_XSP16, literal(-5)))
        CFI R7 load(1, XDATA, add(CFA_XSP16, literal(-6)))
        CFI V3 load(1, XDATA, add(CFA_XSP16, literal(-7)))
        CFI V2 load(1, XDATA, add(CFA_XSP16, literal(-8)))
        CFI V1 load(1, XDATA, add(CFA_XSP16, literal(-9)))
        CFI V0 load(1, XDATA, add(CFA_XSP16, literal(-10)))
        CFI VB load(1, XDATA, add(CFA_XSP16, literal(-11)))
        CFI R6 load(1, XDATA, add(CFA_XSP16, literal(-12)))
        CFI CFA_SP SP+0
        CFI CFA_XSP16 add(XSP16, 12)
        ; Saved register size: 12
        ; Auto size: 21
        MOV     A,#-0x15
        LCALL   ?ALLOC_XSTACK8
        CFI CFA_XSP16 add(XSP16, 33)
// 1513   nwkActiveKeyItems keyItems;
// 1514 
// 1515   SSP_ReadNwkActiveKey( &keyItems );
        ; Setup parameters for call to function SSP_ReadNwkActiveKey
        MOV     DPL,?XSP + 0
        MOV     DPH,?XSP + 1
        MOV     R2,DPL
        MOV     R3,DPH
        LCALL   ??SSP_ReadNwkActiveKey?relay
// 1516   keyItems.frameCounter++;
        MOV     DPTR,#__Constant_1
        MOV     R0,#?V0 + 0
        LCALL   ?L_MOV_X
        MOV     A,#0x11
        LCALL   ?XSTACK_DISP0_8
        MOV     R0,#?V0 + 0
        LCALL   ?L_ADD_TO_X
// 1517 
// 1518   osal_nv_write( ZCD_NV_NWKKEY, 0, sizeof( nwkActiveKeyItems ),
// 1519                 (void *)&keyItems );
        ; Setup parameters for call to function osal_nv_write
        MOV     DPL,?XSP + 0
        MOV     DPH,?XSP + 1
        MOV     ?V0 + 0,DPL
        MOV     ?V0 + 1,DPH
        MOV     R0,#?V0 + 0
        LCALL   ?PUSH_XSTACK_I_TWO
        CFI CFA_XSP16 add(XSP16, 35)
        MOV     ?V0 + 0,#0x15
        MOV     ?V0 + 1,#0x0
        MOV     R0,#?V0 + 0
        LCALL   ?PUSH_XSTACK_I_TWO
        CFI CFA_XSP16 add(XSP16, 37)
        LCALL   ?Subroutine25 & 0xFFFF
??CrossCallReturnLabel_60:
        LCALL   ?DEALLOC_XSTACK8
        CFI CFA_XSP16 add(XSP16, 33)
// 1520 
// 1521   nwkFrameCounterChanges = 0;
        MOV     DPTR,#nwkFrameCounterChanges
        CLR     A
        MOVX    @DPTR,A
        INC     DPTR
        MOVX    @DPTR,A
        CFI EndBlock cfiBlock80
// 1522 }
        REQUIRE ?Subroutine4
        ; // Fall through to label ?Subroutine4

        RSEG BANKED_CODE:CODE:NOROOT(0)
?Subroutine4:
        CFI Block cfiBlock81 Using cfiCommon0
        CFI NoFunction
        CFI CFA_SP SP+0
        CFI CFA_XSP16 add(XSP16, 33)
        CFI VB load(1, XDATA, add(CFA_XSP16, literal(-11)))
        CFI DPL0 load(1, XDATA, add(CFA_XSP16, literal(-2)))
        CFI DPH0 load(1, XDATA, add(CFA_XSP16, literal(-1)))
        CFI R6 load(1, XDATA, add(CFA_XSP16, literal(-12)))
        CFI R7 load(1, XDATA, add(CFA_XSP16, literal(-6)))
        CFI V0 load(1, XDATA, add(CFA_XSP16, literal(-10)))
        CFI V1 load(1, XDATA, add(CFA_XSP16, literal(-9)))
        CFI V2 load(1, XDATA, add(CFA_XSP16, literal(-8)))
        CFI V3 load(1, XDATA, add(CFA_XSP16, literal(-7)))
        CFI ?BRET_EXT load(1, XDATA, add(CFA_XSP16, literal(-3)))
        CFI ?RET_HIGH load(1, XDATA, add(CFA_XSP16, literal(-4)))
        CFI ?RET_LOW load(1, XDATA, add(CFA_XSP16, literal(-5)))
        MOV     A,#0x15
        LCALL   ?DEALLOC_XSTACK8
        CFI CFA_XSP16 add(XSP16, 12)
        MOV     R7,#0x4
        LJMP    ?BANKED_LEAVE_XDATA
        CFI EndBlock cfiBlock81

        RSEG BANKED_CODE:CODE:NOROOT(0)
?Subroutine25:
        CFI Block cfiCond82 Using cfiCommon0
        CFI NoFunction
        CFI Conditional ??CrossCallReturnLabel_60
        CFI R6 load(1, XDATA, add(CFA_XSP16, literal(-12)))
        CFI VB load(1, XDATA, add(CFA_XSP16, literal(-11)))
        CFI V0 load(1, XDATA, add(CFA_XSP16, literal(-10)))
        CFI V1 load(1, XDATA, add(CFA_XSP16, literal(-9)))
        CFI V2 load(1, XDATA, add(CFA_XSP16, literal(-8)))
        CFI V3 load(1, XDATA, add(CFA_XSP16, literal(-7)))
        CFI R7 load(1, XDATA, add(CFA_XSP16, literal(-6)))
        CFI ?RET_LOW load(1, XDATA, add(CFA_XSP16, literal(-5)))
        CFI ?RET_HIGH load(1, XDATA, add(CFA_XSP16, literal(-4)))
        CFI ?BRET_EXT load(1, XDATA, add(CFA_XSP16, literal(-3)))
        CFI DPL0 load(1, XDATA, add(CFA_XSP16, literal(-2)))
        CFI DPH0 load(1, XDATA, add(CFA_XSP16, literal(-1)))
        CFI CFA_SP SP+0
        CFI CFA_XSP16 add(XSP16, 37)
        CFI Block cfiCond83 Using cfiCommon0
        CFI (cfiCond83) NoFunction
        CFI (cfiCond83) Conditional ??CrossCallReturnLabel_61
        CFI (cfiCond83) R6 load(1, XDATA, add(CFA_XSP16, literal(-10)))
        CFI (cfiCond83) VB load(1, XDATA, add(CFA_XSP16, literal(-9)))
        CFI (cfiCond83) V0 load(1, XDATA, add(CFA_XSP16, literal(-8)))
        CFI (cfiCond83) V1 load(1, XDATA, add(CFA_XSP16, literal(-7)))
        CFI (cfiCond83) R7 load(1, XDATA, add(CFA_XSP16, literal(-6)))
        CFI (cfiCond83) ?RET_LOW load(1, XDATA, add(CFA_XSP16, literal(-5)))
        CFI (cfiCond83) ?RET_HIGH load(1, XDATA, add(CFA_XSP16, literal(-4)))
        CFI (cfiCond83) ?BRET_EXT load(1, XDATA, add(CFA_XSP16, literal(-3)))
        CFI (cfiCond83) DPL0 load(1, XDATA, add(CFA_XSP16, literal(-2)))
        CFI (cfiCond83) DPH0 load(1, XDATA, add(CFA_XSP16, literal(-1)))
        CFI (cfiCond83) CFA_SP SP+0
        CFI (cfiCond83) CFA_XSP16 add(XSP16, 35)
        CFI Block cfiPicker84 Using cfiCommon1
        CFI (cfiPicker84) NoFunction
        CFI (cfiPicker84) Picker
        MOV     R4,#0x0
        MOV     R5,#0x0
        MOV     R2,#-0x7e
        CFI EndBlock cfiCond82
        CFI EndBlock cfiCond83
        CFI EndBlock cfiPicker84
        REQUIRE ??Subroutine29_0
        ; // Fall through to label ??Subroutine29_0

        RSEG BANKED_CODE:CODE:NOROOT(0)
??Subroutine29_0:
        CFI Block cfiCond85 Using cfiCommon0
        CFI NoFunction
        CFI Conditional ??CrossCallReturnLabel_62
        CFI R6 load(1, XDATA, add(CFA_XSP16, literal(-10)))
        CFI VB load(1, XDATA, add(CFA_XSP16, literal(-9)))
        CFI V0 load(1, XDATA, add(CFA_XSP16, literal(-8)))
        CFI V1 load(1, XDATA, add(CFA_XSP16, literal(-7)))
        CFI R7 load(1, XDATA, add(CFA_XSP16, literal(-6)))
        CFI ?RET_LOW load(1, XDATA, add(CFA_XSP16, literal(-5)))
        CFI ?RET_HIGH load(1, XDATA, add(CFA_XSP16, literal(-4)))
        CFI ?BRET_EXT load(1, XDATA, add(CFA_XSP16, literal(-3)))
        CFI DPL0 load(1, XDATA, add(CFA_XSP16, literal(-2)))
        CFI DPH0 load(1, XDATA, add(CFA_XSP16, literal(-1)))
        CFI CFA_SP SP+0
        CFI CFA_XSP16 add(XSP16, 14)
        CFI Block cfiCond86 Using cfiCommon0
        CFI (cfiCond86) NoFunction
        CFI (cfiCond86) Conditional ??CrossCallReturnLabel_63
        CFI (cfiCond86) R6 load(1, XDATA, add(CFA_XSP16, literal(-10)))
        CFI (cfiCond86) VB load(1, XDATA, add(CFA_XSP16, literal(-9)))
        CFI (cfiCond86) V0 load(1, XDATA, add(CFA_XSP16, literal(-8)))
        CFI (cfiCond86) V1 load(1, XDATA, add(CFA_XSP16, literal(-7)))
        CFI (cfiCond86) R7 load(1, XDATA, add(CFA_XSP16, literal(-6)))
        CFI (cfiCond86) ?RET_LOW load(1, XDATA, add(CFA_XSP16, literal(-5)))
        CFI (cfiCond86) ?RET_HIGH load(1, XDATA, add(CFA_XSP16, literal(-4)))
        CFI (cfiCond86) ?BRET_EXT load(1, XDATA, add(CFA_XSP16, literal(-3)))
        CFI (cfiCond86) DPL0 load(1, XDATA, add(CFA_XSP16, literal(-2)))
        CFI (cfiCond86) DPH0 load(1, XDATA, add(CFA_XSP16, literal(-1)))
        CFI (cfiCond86) CFA_SP SP+0
        CFI (cfiCond86) CFA_XSP16 add(XSP16, 14)
        CFI Block cfiCond87 Using cfiCommon0
        CFI (cfiCond87) NoFunction
        CFI (cfiCond87) Conditional ??CrossCallReturnLabel_60
        CFI (cfiCond87) R6 load(1, XDATA, add(CFA_XSP16, literal(-12)))
        CFI (cfiCond87) VB load(1, XDATA, add(CFA_XSP16, literal(-11)))
        CFI (cfiCond87) V0 load(1, XDATA, add(CFA_XSP16, literal(-10)))
        CFI (cfiCond87) V1 load(1, XDATA, add(CFA_XSP16, literal(-9)))
        CFI (cfiCond87) V2 load(1, XDATA, add(CFA_XSP16, literal(-8)))
        CFI (cfiCond87) V3 load(1, XDATA, add(CFA_XSP16, literal(-7)))
        CFI (cfiCond87) R7 load(1, XDATA, add(CFA_XSP16, literal(-6)))
        CFI (cfiCond87) ?RET_LOW load(1, XDATA, add(CFA_XSP16, literal(-5)))
        CFI (cfiCond87) ?RET_HIGH load(1, XDATA, add(CFA_XSP16, literal(-4)))
        CFI (cfiCond87) ?BRET_EXT load(1, XDATA, add(CFA_XSP16, literal(-3)))
        CFI (cfiCond87) DPL0 load(1, XDATA, add(CFA_XSP16, literal(-2)))
        CFI (cfiCond87) DPH0 load(1, XDATA, add(CFA_XSP16, literal(-1)))
        CFI (cfiCond87) CFA_SP SP+0
        CFI (cfiCond87) CFA_XSP16 add(XSP16, 37)
        CFI Block cfiCond88 Using cfiCommon0
        CFI (cfiCond88) NoFunction
        CFI (cfiCond88) Conditional ??CrossCallReturnLabel_61
        CFI (cfiCond88) R6 load(1, XDATA, add(CFA_XSP16, literal(-10)))
        CFI (cfiCond88) VB load(1, XDATA, add(CFA_XSP16, literal(-9)))
        CFI (cfiCond88) V0 load(1, XDATA, add(CFA_XSP16, literal(-8)))
        CFI (cfiCond88) V1 load(1, XDATA, add(CFA_XSP16, literal(-7)))
        CFI (cfiCond88) R7 load(1, XDATA, add(CFA_XSP16, literal(-6)))
        CFI (cfiCond88) ?RET_LOW load(1, XDATA, add(CFA_XSP16, literal(-5)))
        CFI (cfiCond88) ?RET_HIGH load(1, XDATA, add(CFA_XSP16, literal(-4)))
        CFI (cfiCond88) ?BRET_EXT load(1, XDATA, add(CFA_XSP16, literal(-3)))
        CFI (cfiCond88) DPL0 load(1, XDATA, add(CFA_XSP16, literal(-2)))
        CFI (cfiCond88) DPH0 load(1, XDATA, add(CFA_XSP16, literal(-1)))
        CFI (cfiCond88) CFA_SP SP+0
        CFI (cfiCond88) CFA_XSP16 add(XSP16, 35)
        CFI Block cfiPicker89 Using cfiCommon1
        CFI (cfiPicker89) NoFunction
        CFI (cfiPicker89) Picker
        MOV     R3,#0x0
        LCALL   ??osal_nv_write?relay
        MOV     A,#0x4
        RET
        CFI EndBlock cfiCond85
        CFI EndBlock cfiCond86
        CFI EndBlock cfiCond87
        CFI EndBlock cfiCond88
        CFI EndBlock cfiPicker89
// 1523 
// 1524 /*********************************************************************
// 1525  * @fn      ZDApp_ResetNwkKey()
// 1526  *
// 1527  * @brief   Reset the Network key information in NV.
// 1528  *
// 1529  * @param   none
// 1530  *
// 1531  * @return  none
// 1532  */

        RSEG BANKED_CODE:CODE:NOROOT(0)
// 1533 void ZDApp_ResetNwkKey( void )
ZDApp_ResetNwkKey:
        CFI Block cfiBlock90 Using cfiCommon0
        CFI Function ZDApp_ResetNwkKey
        CODE
// 1534 {
        FUNCALL ZDApp_ResetNwkKey, osal_memset
        LOCFRAME ISTACK, 0, STACK
        LOCFRAME PSTACK, 0, STACK
        LOCFRAME XSTACK, 31, STACK
        LOCFRAME IOVERLAY, 0, STATIC
        LOCFRAME DOVERLAY, 0, STATIC
        ARGFRAME ISTACK, 0, STACK
        ARGFRAME PSTACK, 0, STACK
        ARGFRAME XSTACK, 31, STACK
        ARGFRAME IOVERLAY, 0, STATIC
        ARGFRAME DOVERLAY, 0, STATIC
        FUNCALL ZDApp_ResetNwkKey, osal_nv_write
        LOCFRAME ISTACK, 0, STACK
        LOCFRAME PSTACK, 0, STACK
        LOCFRAME XSTACK, 35, STACK
        LOCFRAME IOVERLAY, 0, STATIC
        LOCFRAME DOVERLAY, 0, STATIC
        ARGFRAME ISTACK, 0, STACK
        ARGFRAME PSTACK, 0, STACK
        ARGFRAME XSTACK, 35, STACK
        ARGFRAME IOVERLAY, 0, STATIC
        ARGFRAME DOVERLAY, 0, STATIC
        MOV     A,#-0xa
        LCALL   ?BANKED_ENTER_XDATA
        CFI DPH0 load(1, XDATA, add(CFA_XSP16, literal(-1)))
        CFI DPL0 load(1, XDATA, add(CFA_XSP16, literal(-2)))
        CFI ?BRET_EXT load(1, XDATA, add(CFA_XSP16, literal(-3)))
        CFI ?RET_HIGH load(1, XDATA, add(CFA_XSP16, literal(-4)))
        CFI ?RET_LOW load(1, XDATA, add(CFA_XSP16, literal(-5)))
        CFI R7 load(1, XDATA, add(CFA_XSP16, literal(-6)))
        CFI V1 load(1, XDATA, add(CFA_XSP16, literal(-7)))
        CFI V0 load(1, XDATA, add(CFA_XSP16, literal(-8)))
        CFI VB load(1, XDATA, add(CFA_XSP16, literal(-9)))
        CFI R6 load(1, XDATA, add(CFA_XSP16, literal(-10)))
        CFI CFA_SP SP+0
        CFI CFA_XSP16 add(XSP16, 10)
        ; Saved register size: 10
        ; Auto size: 21
        MOV     A,#-0x15
        LCALL   ?ALLOC_XSTACK8
        CFI CFA_XSP16 add(XSP16, 31)
// 1535   nwkActiveKeyItems keyItems;
// 1536 
// 1537   osal_memset( &keyItems, 0, sizeof( nwkActiveKeyItems ) );
        ; Setup parameters for call to function osal_memset
        MOV     R4,#0x15
        LCALL   ?Subroutine19 & 0xFFFF
// 1538   osal_nv_write( ZCD_NV_NWKKEY, 0, sizeof( nwkActiveKeyItems ),
// 1539                 (void *)&keyItems );
??CrossCallReturnLabel_31:
        LCALL   ?PUSH_XSTACK_I_TWO
        CFI CFA_XSP16 add(XSP16, 33)
        MOV     ?V0 + 0,#0x15
        MOV     ?V0 + 1,#0x0
        MOV     R0,#?V0 + 0
        LCALL   ?PUSH_XSTACK_I_TWO
        CFI CFA_XSP16 add(XSP16, 35)
        LCALL   ?Subroutine25 & 0xFFFF
??CrossCallReturnLabel_61:
        LCALL   ?DEALLOC_XSTACK8
        CFI CFA_XSP16 add(XSP16, 31)
// 1540 }
        MOV     A,#0x15
        LJMP    ??Subroutine34_0 & 0xFFFF
        CFI EndBlock cfiBlock90

        RSEG BANKED_CODE:CODE:NOROOT(0)
?Subroutine19:
        CFI Block cfiCond91 Using cfiCommon0
        CFI NoFunction
        CFI Conditional ??CrossCallReturnLabel_30
        CFI R6 load(1, XDATA, add(CFA_XSP16, literal(-10)))
        CFI VB load(1, XDATA, add(CFA_XSP16, literal(-9)))
        CFI V0 load(1, XDATA, add(CFA_XSP16, literal(-8)))
        CFI V1 load(1, XDATA, add(CFA_XSP16, literal(-7)))
        CFI R7 load(1, XDATA, add(CFA_XSP16, literal(-6)))
        CFI ?RET_LOW load(1, XDATA, add(CFA_XSP16, literal(-5)))
        CFI ?RET_HIGH load(1, XDATA, add(CFA_XSP16, literal(-4)))
        CFI ?BRET_EXT load(1, XDATA, add(CFA_XSP16, literal(-3)))
        CFI DPL0 load(1, XDATA, add(CFA_XSP16, literal(-2)))
        CFI DPH0 load(1, XDATA, add(CFA_XSP16, literal(-1)))
        CFI CFA_SP SP+0
        CFI CFA_XSP16 add(XSP16, 27)
        CFI Block cfiCond92 Using cfiCommon0
        CFI (cfiCond92) NoFunction
        CFI (cfiCond92) Conditional ??CrossCallReturnLabel_31
        CFI (cfiCond92) R6 load(1, XDATA, add(CFA_XSP16, literal(-10)))
        CFI (cfiCond92) VB load(1, XDATA, add(CFA_XSP16, literal(-9)))
        CFI (cfiCond92) V0 load(1, XDATA, add(CFA_XSP16, literal(-8)))
        CFI (cfiCond92) V1 load(1, XDATA, add(CFA_XSP16, literal(-7)))
        CFI (cfiCond92) R7 load(1, XDATA, add(CFA_XSP16, literal(-6)))
        CFI (cfiCond92) ?RET_LOW load(1, XDATA, add(CFA_XSP16, literal(-5)))
        CFI (cfiCond92) ?RET_HIGH load(1, XDATA, add(CFA_XSP16, literal(-4)))
        CFI (cfiCond92) ?BRET_EXT load(1, XDATA, add(CFA_XSP16, literal(-3)))
        CFI (cfiCond92) DPL0 load(1, XDATA, add(CFA_XSP16, literal(-2)))
        CFI (cfiCond92) DPH0 load(1, XDATA, add(CFA_XSP16, literal(-1)))
        CFI (cfiCond92) CFA_SP SP+0
        CFI (cfiCond92) CFA_XSP16 add(XSP16, 31)
        CFI Block cfiPicker93 Using cfiCommon1
        CFI (cfiPicker93) NoFunction
        CFI (cfiPicker93) Picker
        MOV     R5,#0x0
        MOV     R1,#0x0
        MOV     DPL,?XSP + 0
        MOV     DPH,?XSP + 1
        MOV     R2,DPL
        MOV     R3,DPH
        LCALL   ??osal_memset?relay
        ; Setup parameters for call to function osal_nv_item_init
        ; Setup parameters for call to function osal_nv_write
        MOV     DPL,?XSP + 0
        MOV     DPH,?XSP + 1
        MOV     ?V0 + 0,DPL
        MOV     ?V0 + 1,DPH
        MOV     R0,#?V0 + 0
        RET
        CFI EndBlock cfiCond91
        CFI EndBlock cfiCond92
        CFI EndBlock cfiPicker93
// 1541 
// 1542 /*********************************************************************
// 1543  * @fn      ZDApp_RestoreNwkKey()
// 1544  *
// 1545  * @brief
// 1546  *
// 1547  *   Save off the Network key information.
// 1548  *
// 1549  * @param   none
// 1550  *
// 1551  * @return  true if restored from NV, false if not
// 1552  */

        RSEG BANKED_CODE:CODE:NOROOT(0)
// 1553 uint8 ZDApp_RestoreNwkKey( void )
ZDApp_RestoreNwkKey:
        CFI Block cfiBlock94 Using cfiCommon0
        CFI Function ZDApp_RestoreNwkKey
        CODE
// 1554 {
        FUNCALL ZDApp_RestoreNwkKey, osal_nv_read
        LOCFRAME ISTACK, 0, STACK
        LOCFRAME PSTACK, 0, STACK
        LOCFRAME XSTACK, 37, STACK
        LOCFRAME IOVERLAY, 0, STATIC
        LOCFRAME DOVERLAY, 0, STATIC
        ARGFRAME ISTACK, 0, STACK
        ARGFRAME PSTACK, 0, STACK
        ARGFRAME XSTACK, 37, STACK
        ARGFRAME IOVERLAY, 0, STATIC
        ARGFRAME DOVERLAY, 0, STATIC
        MOV     A,#-0xc
        LCALL   ?BANKED_ENTER_XDATA
        CFI DPH0 load(1, XDATA, add(CFA_XSP16, literal(-1)))
        CFI DPL0 load(1, XDATA, add(CFA_XSP16, literal(-2)))
        CFI ?BRET_EXT load(1, XDATA, add(CFA_XSP16, literal(-3)))
        CFI ?RET_HIGH load(1, XDATA, add(CFA_XSP16, literal(-4)))
        CFI ?RET_LOW load(1, XDATA, add(CFA_XSP16, literal(-5)))
        CFI R7 load(1, XDATA, add(CFA_XSP16, literal(-6)))
        CFI V3 load(1, XDATA, add(CFA_XSP16, literal(-7)))
        CFI V2 load(1, XDATA, add(CFA_XSP16, literal(-8)))
        CFI V1 load(1, XDATA, add(CFA_XSP16, literal(-9)))
        CFI V0 load(1, XDATA, add(CFA_XSP16, literal(-10)))
        CFI VB load(1, XDATA, add(CFA_XSP16, literal(-11)))
        CFI R6 load(1, XDATA, add(CFA_XSP16, literal(-12)))
        CFI CFA_SP SP+0
        CFI CFA_XSP16 add(XSP16, 12)
        ; Saved register size: 12
        ; Auto size: 21
        MOV     A,#-0x15
        LCALL   ?ALLOC_XSTACK8
        CFI CFA_XSP16 add(XSP16, 33)
// 1555   nwkActiveKeyItems keyItems;
// 1556   uint8 ret = false;
        MOV     R6,#0x0
// 1557 
// 1558   if ( osal_nv_read( ZCD_NV_NWKKEY, 0, sizeof(nwkActiveKeyItems), (void*)&keyItems )
// 1559       == ZSUCCESS )
        ; Setup parameters for call to function osal_nv_read
        MOV     DPL,?XSP + 0
        MOV     DPH,?XSP + 1
        MOV     ?V0 + 0,DPL
        MOV     ?V0 + 1,DPH
        MOV     R0,#?V0 + 0
        LCALL   ?PUSH_XSTACK_I_TWO
        CFI CFA_XSP16 add(XSP16, 35)
        MOV     ?V0 + 0,#0x15
        MOV     ?V0 + 1,R6
        MOV     R0,#?V0 + 0
        LCALL   ?PUSH_XSTACK_I_TWO
        CFI CFA_XSP16 add(XSP16, 37)
        MOV     R4,#0x0
        MOV     R5,#0x0
        MOV     R2,#-0x7e
        MOV     R3,#0x0
        LCALL   ??osal_nv_read?relay
        MOV     A,#0x4
        LCALL   ?DEALLOC_XSTACK8
        CFI CFA_XSP16 add(XSP16, 33)
        MOV     A,R1
        JNZ     ??ZDApp_RestoreNwkKey_0
// 1560   {
// 1561     if ( keyItems.frameCounter > 0 )
        MOV     A,#0x11
        LCALL   ?XSTACK_DISP0_8
        MOV     R0,#?V0 + 0
        LCALL   ?L_MOV_X
        MOV     A,?V0 + 0
        ORL     A,?V0 + 1
        ORL     A,?V0 + 2
        ORL     A,?V0 + 3
        JZ      ??ZDApp_RestoreNwkKey_1
// 1562     {
// 1563       // Restore the key information
// 1564       keyItems.frameCounter += MAX_NWK_FRAMECOUNTER_CHANGES;
// 1565       nwkFrameCounter = keyItems.frameCounter;
        MOV     DPTR,#__Constant_3e8
        MOV     R0,#?V0 + 0
        LCALL   ?L_ADD_X
        MOV     DPTR,#nwkFrameCounter
        MOV     R0,#?V0 + 0
        LCALL   ?L_MOV_TO_X
// 1566       ret = true;
        INC     R6
// 1567     }
// 1568 
// 1569     // Force a save for the first frame counter increment
// 1570     nwkFrameCounterChanges = MAX_NWK_FRAMECOUNTER_CHANGES + 1;
??ZDApp_RestoreNwkKey_1:
        MOV     DPTR,#nwkFrameCounterChanges
        MOV     A,#-0x17
        MOVX    @DPTR,A
        INC     DPTR
        MOV     A,#0x3
        MOVX    @DPTR,A
// 1571   }
// 1572   return ( ret );
??ZDApp_RestoreNwkKey_0:
        MOV     A,R6
        MOV     R1,A
        LJMP    ?Subroutine4 & 0xFFFF
        CFI EndBlock cfiBlock94
// 1573 }
// 1574 
// 1575 /*********************************************************************
// 1576  * @fn      ZDApp_ResetTimerStart
// 1577  *
// 1578  * @brief   Start the reset timer.
// 1579  *
// 1580  * @param   delay - delay time(ms) before reset
// 1581  *
// 1582  * @return  none
// 1583  */

        RSEG BANKED_CODE:CODE:NOROOT(0)
// 1584 void ZDApp_ResetTimerStart( uint16 delay )
ZDApp_ResetTimerStart:
        CFI Block cfiBlock95 Using cfiCommon0
        CFI Function ZDApp_ResetTimerStart
        CODE
// 1585 {
        FUNCALL ZDApp_ResetTimerStart, osal_start_timerEx
        LOCFRAME ISTACK, 2, STACK
        LOCFRAME PSTACK, 0, STACK
        LOCFRAME XSTACK, 0, STACK
        LOCFRAME IOVERLAY, 0, STATIC
        LOCFRAME DOVERLAY, 0, STATIC
        ARGFRAME ISTACK, 2, STACK
        ARGFRAME PSTACK, 0, STACK
        ARGFRAME XSTACK, 0, STACK
        ARGFRAME IOVERLAY, 0, STATIC
        ARGFRAME DOVERLAY, 0, STATIC
        PUSH    DPL
        CFI DPL0 Frame(CFA_SP, 4)
        CFI CFA_SP SP+-4
        PUSH    DPH
        CFI DPH0 Frame(CFA_SP, 5)
        CFI CFA_SP SP+-5
        ; Saved register size: 2
        ; Auto size: 0
// 1586   // Start the rest timer
// 1587   osal_start_timerEx( ZDAppTaskID, ZDO_DEVICE_RESET, delay );
        ; Setup parameters for call to function osal_start_timerEx
        MOV     A,R2
        MOV     R4,A
        MOV     A,R3
        MOV     R5,A
        MOV     R2,#0x4
        LCALL   ?Subroutine15 & 0xFFFF
// 1588 }
??CrossCallReturnLabel_65:
        LJMP    ?Subroutine2 & 0xFFFF
        CFI EndBlock cfiBlock95

        RSEG BANKED_CODE:CODE:NOROOT(0)
?Subroutine15:
        CFI Block cfiCond96 Using cfiCommon0
        CFI NoFunction
        CFI Conditional ??CrossCallReturnLabel_64
        CFI R6 load(1, XDATA, add(CFA_XSP16, literal(-9)))
        CFI VB load(1, XDATA, add(CFA_XSP16, literal(-8)))
        CFI V0 load(1, XDATA, add(CFA_XSP16, literal(-7)))
        CFI R7 load(1, XDATA, add(CFA_XSP16, literal(-6)))
        CFI ?RET_LOW load(1, XDATA, add(CFA_XSP16, literal(-5)))
        CFI ?RET_HIGH load(1, XDATA, add(CFA_XSP16, literal(-4)))
        CFI ?BRET_EXT load(1, XDATA, add(CFA_XSP16, literal(-3)))
        CFI DPL0 load(1, XDATA, add(CFA_XSP16, literal(-2)))
        CFI DPH0 load(1, XDATA, add(CFA_XSP16, literal(-1)))
        CFI CFA_SP SP+0
        CFI CFA_XSP16 add(XSP16, 9)
        CFI Block cfiCond97 Using cfiCommon0
        CFI (cfiCond97) NoFunction
        CFI (cfiCond97) Conditional ??CrossCallReturnLabel_65
        CFI (cfiCond97) DPL0 Frame(CFA_SP, 4)
        CFI (cfiCond97) DPH0 Frame(CFA_SP, 5)
        CFI (cfiCond97) CFA_SP SP+-5
        CFI Block cfiCond98 Using cfiCommon0
        CFI (cfiCond98) NoFunction
        CFI (cfiCond98) Conditional ??CrossCallReturnLabel_66
        CFI (cfiCond98) DPL0 Frame(CFA_SP, 4)
        CFI (cfiCond98) DPH0 Frame(CFA_SP, 5)
        CFI (cfiCond98) CFA_SP SP+-5
        CFI Block cfiPicker99 Using cfiCommon1
        CFI (cfiPicker99) NoFunction
        CFI (cfiPicker99) Picker
        MOV     R3,#0x0
        MOV     DPTR,#ZDAppTaskID
        CFI EndBlock cfiCond96
        CFI EndBlock cfiCond97
        CFI EndBlock cfiCond98
        CFI EndBlock cfiPicker99
        REQUIRE ??Subroutine30_0
        ; // Fall through to label ??Subroutine30_0

        RSEG BANKED_CODE:CODE:NOROOT(0)
??Subroutine30_0:
        CFI Block cfiCond100 Using cfiCommon0
        CFI NoFunction
        CFI Conditional ??CrossCallReturnLabel_67
        CFI R6 load(1, XDATA, add(CFA_XSP16, literal(-10)))
        CFI VB load(1, XDATA, add(CFA_XSP16, literal(-9)))
        CFI V0 load(1, XDATA, add(CFA_XSP16, literal(-8)))
        CFI V1 load(1, XDATA, add(CFA_XSP16, literal(-7)))
        CFI R7 load(1, XDATA, add(CFA_XSP16, literal(-6)))
        CFI ?RET_LOW load(1, XDATA, add(CFA_XSP16, literal(-5)))
        CFI ?RET_HIGH load(1, XDATA, add(CFA_XSP16, literal(-4)))
        CFI ?BRET_EXT load(1, XDATA, add(CFA_XSP16, literal(-3)))
        CFI DPL0 load(1, XDATA, add(CFA_XSP16, literal(-2)))
        CFI DPH0 load(1, XDATA, add(CFA_XSP16, literal(-1)))
        CFI CFA_SP SP+0
        CFI CFA_XSP16 add(XSP16, 10)
        CFI Block cfiCond101 Using cfiCommon0
        CFI (cfiCond101) NoFunction
        CFI (cfiCond101) Conditional ??CrossCallReturnLabel_64
        CFI (cfiCond101) R6 load(1, XDATA, add(CFA_XSP16, literal(-9)))
        CFI (cfiCond101) VB load(1, XDATA, add(CFA_XSP16, literal(-8)))
        CFI (cfiCond101) V0 load(1, XDATA, add(CFA_XSP16, literal(-7)))
        CFI (cfiCond101) R7 load(1, XDATA, add(CFA_XSP16, literal(-6)))
        CFI (cfiCond101) ?RET_LOW load(1, XDATA, add(CFA_XSP16, literal(-5)))
        CFI (cfiCond101) ?RET_HIGH load(1, XDATA, add(CFA_XSP16, literal(-4)))
        CFI (cfiCond101) ?BRET_EXT load(1, XDATA, add(CFA_XSP16, literal(-3)))
        CFI (cfiCond101) DPL0 load(1, XDATA, add(CFA_XSP16, literal(-2)))
        CFI (cfiCond101) DPH0 load(1, XDATA, add(CFA_XSP16, literal(-1)))
        CFI (cfiCond101) CFA_SP SP+0
        CFI (cfiCond101) CFA_XSP16 add(XSP16, 9)
        CFI Block cfiCond102 Using cfiCommon0
        CFI (cfiCond102) NoFunction
        CFI (cfiCond102) Conditional ??CrossCallReturnLabel_65
        CFI (cfiCond102) DPL0 Frame(CFA_SP, 4)
        CFI (cfiCond102) DPH0 Frame(CFA_SP, 5)
        CFI (cfiCond102) CFA_SP SP+-5
        CFI Block cfiCond103 Using cfiCommon0
        CFI (cfiCond103) NoFunction
        CFI (cfiCond103) Conditional ??CrossCallReturnLabel_66
        CFI (cfiCond103) DPL0 Frame(CFA_SP, 4)
        CFI (cfiCond103) DPH0 Frame(CFA_SP, 5)
        CFI (cfiCond103) CFA_SP SP+-5
        CFI Block cfiPicker104 Using cfiCommon1
        CFI (cfiPicker104) NoFunction
        CFI (cfiPicker104) Picker
        MOVX    A,@DPTR
        MOV     R1,A
        LCALL   ??osal_start_timerEx?relay
        RET
        CFI EndBlock cfiCond100
        CFI EndBlock cfiCond101
        CFI EndBlock cfiCond102
        CFI EndBlock cfiCond103
        CFI EndBlock cfiPicker104
// 1589 
// 1590 /*********************************************************************
// 1591  * @fn      ZDApp_ResetTimerCancel
// 1592  *
// 1593  * @brief   Cancel the reset timer.
// 1594  *
// 1595  * @param   none
// 1596  *
// 1597  * @return  none
// 1598  */

        RSEG BANKED_CODE:CODE:NOROOT(0)
// 1599 void ZDApp_ResetTimerCancel( void )
ZDApp_ResetTimerCancel:
        CFI Block cfiBlock105 Using cfiCommon0
        CFI Function ZDApp_ResetTimerCancel
        CODE
// 1600 {
        FUNCALL ZDApp_ResetTimerCancel, osal_stop_timerEx
        LOCFRAME ISTACK, 2, STACK
        LOCFRAME PSTACK, 0, STACK
        LOCFRAME XSTACK, 0, STACK
        LOCFRAME IOVERLAY, 0, STATIC
        LOCFRAME DOVERLAY, 0, STATIC
        ARGFRAME ISTACK, 2, STACK
        ARGFRAME PSTACK, 0, STACK
        ARGFRAME XSTACK, 0, STACK
        ARGFRAME IOVERLAY, 0, STATIC
        ARGFRAME DOVERLAY, 0, STATIC
        PUSH    DPL
        CFI DPL0 Frame(CFA_SP, 4)
        CFI CFA_SP SP+-4
        PUSH    DPH
        CFI DPH0 Frame(CFA_SP, 5)
        CFI CFA_SP SP+-5
        ; Saved register size: 2
        ; Auto size: 0
// 1601   // Cancel the reset timer
// 1602   osal_stop_timerEx( ZDAppTaskID, ZDO_DEVICE_RESET );
        ; Setup parameters for call to function osal_stop_timerEx
        MOV     R2,#0x4
        MOV     R3,#0x0
        MOV     DPTR,#ZDAppTaskID
        MOVX    A,@DPTR
        MOV     R1,A
        LCALL   ??osal_stop_timerEx?relay
// 1603 }
        LJMP    ?Subroutine2 & 0xFFFF
        CFI EndBlock cfiBlock105
// 1604 
// 1605 /*********************************************************************
// 1606  * @fn      ZDApp_LeaveCtrlInit
// 1607  *
// 1608  * @brief   Initialize the leave control logic.
// 1609  *
// 1610  * @param   none
// 1611  *
// 1612  * @return  none
// 1613  */

        RSEG BANKED_CODE:CODE:NOROOT(0)
// 1614 void ZDApp_LeaveCtrlInit( void )
ZDApp_LeaveCtrlInit:
        CFI Block cfiBlock106 Using cfiCommon0
        CFI Function ZDApp_LeaveCtrlInit
        CODE
// 1615 {
        FUNCALL ZDApp_LeaveCtrlInit, osal_nv_item_init
        LOCFRAME ISTACK, 0, STACK
        LOCFRAME PSTACK, 0, STACK
        LOCFRAME XSTACK, 12, STACK
        LOCFRAME IOVERLAY, 0, STATIC
        LOCFRAME DOVERLAY, 0, STATIC
        ARGFRAME ISTACK, 0, STACK
        ARGFRAME PSTACK, 0, STACK
        ARGFRAME XSTACK, 12, STACK
        ARGFRAME IOVERLAY, 0, STATIC
        ARGFRAME DOVERLAY, 0, STATIC
        FUNCALL ZDApp_LeaveCtrlInit, osal_nv_read
        LOCFRAME ISTACK, 0, STACK
        LOCFRAME PSTACK, 0, STACK
        LOCFRAME XSTACK, 14, STACK
        LOCFRAME IOVERLAY, 0, STATIC
        LOCFRAME DOVERLAY, 0, STATIC
        ARGFRAME ISTACK, 0, STACK
        ARGFRAME PSTACK, 0, STACK
        ARGFRAME XSTACK, 14, STACK
        ARGFRAME IOVERLAY, 0, STATIC
        ARGFRAME DOVERLAY, 0, STATIC
        MOV     A,#-0xa
        LCALL   ?BANKED_ENTER_XDATA
        CFI DPH0 load(1, XDATA, add(CFA_XSP16, literal(-1)))
        CFI DPL0 load(1, XDATA, add(CFA_XSP16, literal(-2)))
        CFI ?BRET_EXT load(1, XDATA, add(CFA_XSP16, literal(-3)))
        CFI ?RET_HIGH load(1, XDATA, add(CFA_XSP16, literal(-4)))
        CFI ?RET_LOW load(1, XDATA, add(CFA_XSP16, literal(-5)))
        CFI R7 load(1, XDATA, add(CFA_XSP16, literal(-6)))
        CFI V1 load(1, XDATA, add(CFA_XSP16, literal(-7)))
        CFI V0 load(1, XDATA, add(CFA_XSP16, literal(-8)))
        CFI VB load(1, XDATA, add(CFA_XSP16, literal(-9)))
        CFI R6 load(1, XDATA, add(CFA_XSP16, literal(-10)))
        CFI CFA_SP SP+0
        CFI CFA_XSP16 add(XSP16, 10)
        ; Saved register size: 10
        ; Auto size: 0
// 1616   uint8 status;
// 1617 
// 1618 
// 1619   // Initialize control state
// 1620   ZDApp_LeaveCtrl = ZDAPP_LEAVE_CTRL_INIT;
        LCALL   ?Subroutine7 & 0xFFFF
// 1621 
// 1622   status = osal_nv_item_init( ZCD_NV_LEAVE_CTRL,
// 1623                               sizeof(ZDApp_LeaveCtrl),
// 1624                               &ZDApp_LeaveCtrl );
// 1625 
// 1626   if ( status == ZSUCCESS )
??CrossCallReturnLabel_4:
        LCALL   ?PUSH_XSTACK_I_TWO
        CFI CFA_XSP16 add(XSP16, 12)
        MOV     R4,#0x1
        MOV     R5,#0x0
        MOV     R2,#-0x7b
        MOV     R3,#0x0
        LCALL   ??osal_nv_item_init?relay
        MOV     A,#0x2
        LCALL   ?DEALLOC_XSTACK8
        CFI CFA_XSP16 add(XSP16, 10)
        MOV     A,R1
        JNZ     ??ZDApp_LeaveCtrlInit_0
// 1627   {
// 1628     // Read saved control
// 1629     osal_nv_read( ZCD_NV_LEAVE_CTRL,
// 1630                   0,
// 1631                   sizeof( uint8 ),
// 1632                   &ZDApp_LeaveCtrl);
        ; Setup parameters for call to function osal_nv_read
        MOV     R0,#?V0 + 0
        LCALL   ?PUSH_XSTACK_I_TWO
        CFI CFA_XSP16 add(XSP16, 12)
        MOV     ?V0 + 0,#0x1
        MOV     ?V0 + 1,#0x0
        MOV     R0,#?V0 + 0
        LCALL   ?PUSH_XSTACK_I_TWO
        CFI CFA_XSP16 add(XSP16, 14)
        MOV     R4,#0x0
        MOV     R5,#0x0
        MOV     R2,#-0x7b
        MOV     R3,#0x0
        LCALL   ??osal_nv_read?relay
        MOV     A,#0x4
        LCALL   ?DEALLOC_XSTACK8
        CFI CFA_XSP16 add(XSP16, 10)
// 1633   }
// 1634 }
??ZDApp_LeaveCtrlInit_0:
        LJMP    ??Subroutine35_0 & 0xFFFF
        CFI EndBlock cfiBlock106
// 1635 
// 1636 /*********************************************************************
// 1637  * @fn      ZDApp_LeaveCtrlSet
// 1638  *
// 1639  * @brief   Set the leave control logic.
// 1640  *
// 1641  * @param   ra - reassociate flag
// 1642  *
// 1643  * @return  none
// 1644  */

        RSEG BANKED_CODE:CODE:NOROOT(0)
// 1645 void ZDApp_LeaveCtrlSet( uint8 ra )
ZDApp_LeaveCtrlSet:
        CFI Block cfiBlock107 Using cfiCommon0
        CFI Function ZDApp_LeaveCtrlSet
        CODE
// 1646 {
        FUNCALL ZDApp_LeaveCtrlSet, osal_nv_write
        LOCFRAME ISTACK, 0, STACK
        LOCFRAME PSTACK, 0, STACK
        LOCFRAME XSTACK, 14, STACK
        LOCFRAME IOVERLAY, 0, STATIC
        LOCFRAME DOVERLAY, 0, STATIC
        ARGFRAME ISTACK, 0, STACK
        ARGFRAME PSTACK, 0, STACK
        ARGFRAME XSTACK, 14, STACK
        ARGFRAME IOVERLAY, 0, STATIC
        ARGFRAME DOVERLAY, 0, STATIC
        MOV     A,#-0xa
        LCALL   ?BANKED_ENTER_XDATA
        CFI DPH0 load(1, XDATA, add(CFA_XSP16, literal(-1)))
        CFI DPL0 load(1, XDATA, add(CFA_XSP16, literal(-2)))
        CFI ?BRET_EXT load(1, XDATA, add(CFA_XSP16, literal(-3)))
        CFI ?RET_HIGH load(1, XDATA, add(CFA_XSP16, literal(-4)))
        CFI ?RET_LOW load(1, XDATA, add(CFA_XSP16, literal(-5)))
        CFI R7 load(1, XDATA, add(CFA_XSP16, literal(-6)))
        CFI V1 load(1, XDATA, add(CFA_XSP16, literal(-7)))
        CFI V0 load(1, XDATA, add(CFA_XSP16, literal(-8)))
        CFI VB load(1, XDATA, add(CFA_XSP16, literal(-9)))
        CFI R6 load(1, XDATA, add(CFA_XSP16, literal(-10)))
        CFI CFA_SP SP+0
        CFI CFA_XSP16 add(XSP16, 10)
        ; Saved register size: 10
        ; Auto size: 0
        MOV     A,R1
        MOV     R6,A
// 1647   ZDApp_LeaveCtrl = ZDAPP_LEAVE_CTRL_SET;
        MOV     DPTR,#ZDApp_LeaveCtrl
        MOV     A,#0x1
        MOVX    @DPTR,A
// 1648 
// 1649   if ( ra == TRUE )
        XRL     A,R6
        JNZ     ??ZDApp_LeaveCtrlSet_0
// 1650   {
// 1651     ZDApp_LeaveCtrl |= ZDAPP_LEAVE_CTRL_RA;
        MOV     A,#0x3
        MOVX    @DPTR,A
// 1652   }
// 1653 
// 1654   // Write the leave control
// 1655   osal_nv_write( ZCD_NV_LEAVE_CTRL,
// 1656                  0,
// 1657                  sizeof( uint8 ),
// 1658                  &ZDApp_LeaveCtrl);
??ZDApp_LeaveCtrlSet_0:
        ; Setup parameters for call to function osal_nv_write
        MOV     ?V0 + 0,#ZDApp_LeaveCtrl & 0xff
        MOV     ?V0 + 1,#(ZDApp_LeaveCtrl >> 8) & 0xff
        MOV     R0,#?V0 + 0
        LCALL   ?PUSH_XSTACK_I_TWO
        CFI CFA_XSP16 add(XSP16, 12)
        MOV     ?V0 + 0,#0x1
        MOV     ?V0 + 1,#0x0
        MOV     R0,#?V0 + 0
        LCALL   ?PUSH_XSTACK_I_TWO
        CFI CFA_XSP16 add(XSP16, 14)
        MOV     R4,#0x0
        MOV     R5,#0x0
        MOV     R2,#-0x7b
        LCALL   ??Subroutine29_0 & 0xFFFF
??CrossCallReturnLabel_62:
        LJMP    ??Subroutine34_0 & 0xFFFF
        CFI EndBlock cfiBlock107
// 1659 }
// 1660 
// 1661 /*********************************************************************
// 1662  * @fn      ZDApp_LeaveCtrlBypass
// 1663  *
// 1664  * @brief   Check if NV restore should be skipped during a leave reset.
// 1665  *
// 1666  * @param   none
// 1667  *
// 1668  * @return  uint8 - (TRUE bypass:FALSE do not bypass)
// 1669  */

        RSEG BANKED_CODE:CODE:NOROOT(0)
// 1670 uint8 ZDApp_LeaveCtrlBypass( void )
ZDApp_LeaveCtrlBypass:
        CFI Block cfiBlock108 Using cfiCommon0
        CFI Function ZDApp_LeaveCtrlBypass
        CODE
// 1671 {
        PUSH    DPL
        CFI DPL0 Frame(CFA_SP, 4)
        CFI CFA_SP SP+-4
        PUSH    DPH
        CFI DPH0 Frame(CFA_SP, 5)
        CFI CFA_SP SP+-5
        ; Saved register size: 2
        ; Auto size: 0
// 1672   uint8 bypass;
// 1673 
// 1674   if ( ZDApp_LeaveCtrl & ZDAPP_LEAVE_CTRL_SET )
// 1675   {
// 1676     bypass = TRUE;
// 1677   }
// 1678   else
// 1679   {
// 1680     bypass = FALSE;
// 1681   }
// 1682 
// 1683   return bypass;
        MOV     DPTR,#ZDApp_LeaveCtrl
        MOVX    A,@DPTR
        MOV     C,0xE0 /* A   */.0
        CLR     A
        RLC     A
        MOV     R1,A
        CFI EndBlock cfiBlock108
        REQUIRE ?Subroutine2
        ; // Fall through to label ?Subroutine2
// 1684 }

        RSEG BANKED_CODE:CODE:NOROOT(0)
?Subroutine2:
        CFI Block cfiBlock109 Using cfiCommon0
        CFI NoFunction
        CFI CFA_SP SP+-5
        CFI DPL0 Frame(CFA_SP, 4)
        CFI DPH0 Frame(CFA_SP, 5)
        POP     DPH
        CFI CFA_SP SP+-4
        CFI DPH0 SameValue
        POP     DPL
        CFI CFA_SP SP+-3
        CFI DPL0 SameValue
        LJMP    ?BRET
        CFI EndBlock cfiBlock109
// 1685 
// 1686 /*********************************************************************
// 1687  * @fn      ZDApp_LeaveCtrlStartup
// 1688  *
// 1689  * @brief   Check for startup conditions during a leave reset.
// 1690  *
// 1691  * @param   state      - devState_t determined by leave control logic
// 1692  * @param   startDelay - startup delay
// 1693  *
// 1694  * @return  none
// 1695  */

        RSEG BANKED_CODE:CODE:NOROOT(0)
// 1696 void ZDApp_LeaveCtrlStartup( devStates_t* state, uint16* startDelay )
ZDApp_LeaveCtrlStartup:
        CFI Block cfiBlock110 Using cfiCommon0
        CFI Function ZDApp_LeaveCtrlStartup
        CODE
// 1697 {
        FUNCALL ZDApp_LeaveCtrlStartup, osal_nv_write
        LOCFRAME ISTACK, 0, STACK
        LOCFRAME PSTACK, 0, STACK
        LOCFRAME XSTACK, 14, STACK
        LOCFRAME IOVERLAY, 0, STATIC
        LOCFRAME DOVERLAY, 0, STATIC
        ARGFRAME ISTACK, 0, STACK
        ARGFRAME PSTACK, 0, STACK
        ARGFRAME XSTACK, 14, STACK
        ARGFRAME IOVERLAY, 0, STATIC
        ARGFRAME DOVERLAY, 0, STATIC
        MOV     A,#-0xa
        LCALL   ?BANKED_ENTER_XDATA
        CFI DPH0 load(1, XDATA, add(CFA_XSP16, literal(-1)))
        CFI DPL0 load(1, XDATA, add(CFA_XSP16, literal(-2)))
        CFI ?BRET_EXT load(1, XDATA, add(CFA_XSP16, literal(-3)))
        CFI ?RET_HIGH load(1, XDATA, add(CFA_XSP16, literal(-4)))
        CFI ?RET_LOW load(1, XDATA, add(CFA_XSP16, literal(-5)))
        CFI R7 load(1, XDATA, add(CFA_XSP16, literal(-6)))
        CFI V1 load(1, XDATA, add(CFA_XSP16, literal(-7)))
        CFI V0 load(1, XDATA, add(CFA_XSP16, literal(-8)))
        CFI VB load(1, XDATA, add(CFA_XSP16, literal(-9)))
        CFI R6 load(1, XDATA, add(CFA_XSP16, literal(-10)))
        CFI CFA_SP SP+0
        CFI CFA_XSP16 add(XSP16, 10)
        ; Saved register size: 10
        ; Auto size: 0
// 1698   *startDelay = 0;
        MOV     DPL,R4
        MOV     DPH,R5
        CLR     A
        MOVX    @DPTR,A
        INC     DPTR
        MOVX    @DPTR,A
// 1699 
// 1700   if ( ZDApp_LeaveCtrl & ZDAPP_LEAVE_CTRL_SET )
        MOV     DPTR,#ZDApp_LeaveCtrl
        MOVX    A,@DPTR
        MOV     C,0xE0 /* A   */.0
        JNC     ??ZDApp_LeaveCtrlStartup_0
// 1701   {
// 1702     if ( ZDApp_LeaveCtrl & ZDAPP_LEAVE_CTRL_RA )
        MOV     C,0xE0 /* A   */.1
        JNC     ??ZDApp_LeaveCtrlStartup_1
// 1703     {
// 1704       *startDelay = 5000;
        MOV     DPL,R4
        MOV     DPH,R5
        MOV     A,#-0x78
        MOVX    @DPTR,A
        INC     DPTR
        MOV     A,#0x13
        SJMP    ??ZDApp_LeaveCtrlStartup_2
// 1705     }
// 1706     else
// 1707     {
// 1708       *state = DEV_HOLD;
??ZDApp_LeaveCtrlStartup_1:
        MOV     DPL,R2
        MOV     DPH,R3
        CLR     A
??ZDApp_LeaveCtrlStartup_2:
        MOVX    @DPTR,A
// 1709     }
// 1710 
// 1711     // Set leave control to initialized state
// 1712     ZDApp_LeaveCtrl = ZDAPP_LEAVE_CTRL_INIT;
        LCALL   ?Subroutine7 & 0xFFFF
// 1713 
// 1714     // Write initialized control
// 1715     osal_nv_write( ZCD_NV_LEAVE_CTRL,
// 1716                   0,
// 1717                   sizeof( uint8 ),
// 1718                   &ZDApp_LeaveCtrl);
// 1719   }
??CrossCallReturnLabel_5:
        LCALL   ?PUSH_XSTACK_I_TWO
        CFI CFA_XSP16 add(XSP16, 12)
        MOV     ?V0 + 0,#0x1
        MOV     ?V0 + 1,#0x0
        MOV     R0,#?V0 + 0
        LCALL   ?PUSH_XSTACK_I_TWO
        CFI CFA_XSP16 add(XSP16, 14)
        MOV     R4,#0x0
        MOV     R5,#0x0
        MOV     R2,#-0x7b
        LCALL   ??Subroutine29_0 & 0xFFFF
??CrossCallReturnLabel_63:
        LCALL   ?DEALLOC_XSTACK8
        CFI CFA_XSP16 add(XSP16, 10)
// 1720 }
??ZDApp_LeaveCtrlStartup_0:
        LJMP    ??Subroutine35_0 & 0xFFFF
        CFI EndBlock cfiBlock110

        RSEG BANKED_CODE:CODE:NOROOT(0)
?Subroutine7:
        CFI Block cfiCond111 Using cfiCommon0
        CFI NoFunction
        CFI Conditional ??CrossCallReturnLabel_4
        CFI R6 load(1, XDATA, add(CFA_XSP16, literal(-10)))
        CFI VB load(1, XDATA, add(CFA_XSP16, literal(-9)))
        CFI V0 load(1, XDATA, add(CFA_XSP16, literal(-8)))
        CFI V1 load(1, XDATA, add(CFA_XSP16, literal(-7)))
        CFI R7 load(1, XDATA, add(CFA_XSP16, literal(-6)))
        CFI ?RET_LOW load(1, XDATA, add(CFA_XSP16, literal(-5)))
        CFI ?RET_HIGH load(1, XDATA, add(CFA_XSP16, literal(-4)))
        CFI ?BRET_EXT load(1, XDATA, add(CFA_XSP16, literal(-3)))
        CFI DPL0 load(1, XDATA, add(CFA_XSP16, literal(-2)))
        CFI DPH0 load(1, XDATA, add(CFA_XSP16, literal(-1)))
        CFI CFA_SP SP+0
        CFI CFA_XSP16 add(XSP16, 10)
        CFI Block cfiCond112 Using cfiCommon0
        CFI (cfiCond112) NoFunction
        CFI (cfiCond112) Conditional ??CrossCallReturnLabel_5
        CFI (cfiCond112) R6 load(1, XDATA, add(CFA_XSP16, literal(-10)))
        CFI (cfiCond112) VB load(1, XDATA, add(CFA_XSP16, literal(-9)))
        CFI (cfiCond112) V0 load(1, XDATA, add(CFA_XSP16, literal(-8)))
        CFI (cfiCond112) V1 load(1, XDATA, add(CFA_XSP16, literal(-7)))
        CFI (cfiCond112) R7 load(1, XDATA, add(CFA_XSP16, literal(-6)))
        CFI (cfiCond112) ?RET_LOW load(1, XDATA, add(CFA_XSP16, literal(-5)))
        CFI (cfiCond112) ?RET_HIGH load(1, XDATA, add(CFA_XSP16, literal(-4)))
        CFI (cfiCond112) ?BRET_EXT load(1, XDATA, add(CFA_XSP16, literal(-3)))
        CFI (cfiCond112) DPL0 load(1, XDATA, add(CFA_XSP16, literal(-2)))
        CFI (cfiCond112) DPH0 load(1, XDATA, add(CFA_XSP16, literal(-1)))
        CFI (cfiCond112) CFA_SP SP+0
        CFI (cfiCond112) CFA_XSP16 add(XSP16, 10)
        CFI Block cfiPicker113 Using cfiCommon1
        CFI (cfiPicker113) NoFunction
        CFI (cfiPicker113) Picker
        MOV     DPTR,#ZDApp_LeaveCtrl
        CLR     A
        MOVX    @DPTR,A
        ; Setup parameters for call to function osal_nv_item_init
        ; Setup parameters for call to function osal_nv_write
        MOV     ?V0 + 0,#ZDApp_LeaveCtrl & 0xff
        MOV     ?V0 + 1,#(ZDApp_LeaveCtrl >> 8) & 0xff
        MOV     R0,#?V0 + 0
        RET
        CFI EndBlock cfiCond111
        CFI EndBlock cfiCond112
        CFI EndBlock cfiPicker113
// 1721 
// 1722 /*********************************************************************
// 1723  * @fn      ZDApp_LeaveReset
// 1724  *
// 1725  * @brief   Setup a device reset due to a leave indication/confirm.
// 1726  *
// 1727  * @param   ra - reassociate flag
// 1728  *
// 1729  * @return  none
// 1730  */

        RSEG BANKED_CODE:CODE:NOROOT(0)
// 1731 void ZDApp_LeaveReset( uint8 ra )
ZDApp_LeaveReset:
        CFI Block cfiBlock114 Using cfiCommon0
        CFI Function ZDApp_LeaveReset
        CODE
// 1732 {
        FUNCALL ZDApp_LeaveReset, ZDApp_LeaveCtrlSet
        LOCFRAME ISTACK, 0, STACK
        LOCFRAME PSTACK, 0, STACK
        LOCFRAME XSTACK, 9, STACK
        LOCFRAME IOVERLAY, 0, STATIC
        LOCFRAME DOVERLAY, 0, STATIC
        ARGFRAME ISTACK, 0, STACK
        ARGFRAME PSTACK, 0, STACK
        ARGFRAME XSTACK, 9, STACK
        ARGFRAME IOVERLAY, 0, STATIC
        ARGFRAME DOVERLAY, 0, STATIC
        FUNCALL ZDApp_LeaveReset, ZDApp_ResetTimerStart
        LOCFRAME ISTACK, 0, STACK
        LOCFRAME PSTACK, 0, STACK
        LOCFRAME XSTACK, 9, STACK
        LOCFRAME IOVERLAY, 0, STATIC
        LOCFRAME DOVERLAY, 0, STATIC
        ARGFRAME ISTACK, 0, STACK
        ARGFRAME PSTACK, 0, STACK
        ARGFRAME XSTACK, 9, STACK
        ARGFRAME IOVERLAY, 0, STATIC
        ARGFRAME DOVERLAY, 0, STATIC
        MOV     A,#-0x9
        LCALL   ?BANKED_ENTER_XDATA
        CFI DPH0 load(1, XDATA, add(CFA_XSP16, literal(-1)))
        CFI DPL0 load(1, XDATA, add(CFA_XSP16, literal(-2)))
        CFI ?BRET_EXT load(1, XDATA, add(CFA_XSP16, literal(-3)))
        CFI ?RET_HIGH load(1, XDATA, add(CFA_XSP16, literal(-4)))
        CFI ?RET_LOW load(1, XDATA, add(CFA_XSP16, literal(-5)))
        CFI R7 load(1, XDATA, add(CFA_XSP16, literal(-6)))
        CFI V0 load(1, XDATA, add(CFA_XSP16, literal(-7)))
        CFI VB load(1, XDATA, add(CFA_XSP16, literal(-8)))
        CFI R6 load(1, XDATA, add(CFA_XSP16, literal(-9)))
        CFI CFA_SP SP+0
        CFI CFA_XSP16 add(XSP16, 9)
        ; Saved register size: 9
        ; Auto size: 0
// 1733   ZDApp_LeaveCtrlSet( ra );
        ; Setup parameters for call to function ZDApp_LeaveCtrlSet
        LCALL   ??ZDApp_LeaveCtrlSet?relay
// 1734 
// 1735   ZDApp_ResetTimerStart( 5000 );
        ; Setup parameters for call to function ZDApp_ResetTimerStart
        MOV     R2,#-0x78
        MOV     R3,#0x13
        LCALL   ??ZDApp_ResetTimerStart?relay
// 1736 }
        SJMP    ??Subroutine31_0
        CFI EndBlock cfiBlock114

        RSEG BANKED_CODE:CODE:NOROOT(0)
?Subroutine0:
        CFI Block cfiBlock115 Using cfiCommon0
        CFI NoFunction
        CFI CFA_SP SP+0
        CFI CFA_XSP16 add(XSP16, 9)
        CFI VB load(1, XDATA, add(CFA_XSP16, literal(-8)))
        CFI DPL0 load(1, XDATA, add(CFA_XSP16, literal(-2)))
        CFI DPH0 load(1, XDATA, add(CFA_XSP16, literal(-1)))
        CFI R6 load(1, XDATA, add(CFA_XSP16, literal(-9)))
        CFI R7 load(1, XDATA, add(CFA_XSP16, literal(-6)))
        CFI V0 load(1, XDATA, add(CFA_XSP16, literal(-7)))
        CFI ?BRET_EXT load(1, XDATA, add(CFA_XSP16, literal(-3)))
        CFI ?RET_HIGH load(1, XDATA, add(CFA_XSP16, literal(-4)))
        CFI ?RET_LOW load(1, XDATA, add(CFA_XSP16, literal(-5)))
        LCALL   ?Subroutine16 & 0xFFFF
        CFI EndBlock cfiBlock115
??CrossCallReturnLabel_23:
        REQUIRE ??Subroutine31_0
        ; // Fall through to label ??Subroutine31_0

        RSEG BANKED_CODE:CODE:NOROOT(0)
??Subroutine31_0:
        CFI Block cfiBlock116 Using cfiCommon0
        CFI NoFunction
        CFI CFA_SP SP+0
        CFI CFA_XSP16 add(XSP16, 9)
        CFI VB load(1, XDATA, add(CFA_XSP16, literal(-8)))
        CFI DPL0 load(1, XDATA, add(CFA_XSP16, literal(-2)))
        CFI DPH0 load(1, XDATA, add(CFA_XSP16, literal(-1)))
        CFI R6 load(1, XDATA, add(CFA_XSP16, literal(-9)))
        CFI R7 load(1, XDATA, add(CFA_XSP16, literal(-6)))
        CFI V0 load(1, XDATA, add(CFA_XSP16, literal(-7)))
        CFI ?BRET_EXT load(1, XDATA, add(CFA_XSP16, literal(-3)))
        CFI ?RET_HIGH load(1, XDATA, add(CFA_XSP16, literal(-4)))
        CFI ?RET_LOW load(1, XDATA, add(CFA_XSP16, literal(-5)))
        MOV     R7,#0x1
        LJMP    ?BANKED_LEAVE_XDATA
        CFI EndBlock cfiBlock116
// 1737 
// 1738 /*********************************************************************
// 1739  * @fn      ZDApp_LeaveUpdate
// 1740  *
// 1741  * @brief   Update local device data related to leaving device.
// 1742  *
// 1743  * @param   nwkAddr        - NWK address of leaving device
// 1744  * @param   extAddr        - EXT address of leaving device
// 1745  * @param   removeChildren - remove children of leaving device
// 1746  *
// 1747  * @return  none
// 1748  */

        RSEG BANKED_CODE:CODE:NOROOT(0)
// 1749 void ZDApp_LeaveUpdate( uint16 nwkAddr, uint8* extAddr,
ZDApp_LeaveUpdate:
        CFI Block cfiBlock117 Using cfiCommon0
        CFI Function ZDApp_LeaveUpdate
        CODE
// 1750                         uint8 removeChildren )
// 1751 {
        FUNCALL ZDApp_LeaveUpdate, NLME_RemoveChild
        LOCFRAME ISTACK, 0, STACK
        LOCFRAME PSTACK, 0, STACK
        LOCFRAME XSTACK, 9, STACK
        LOCFRAME IOVERLAY, 0, STATIC
        LOCFRAME DOVERLAY, 0, STATIC
        ARGFRAME ISTACK, 0, STACK
        ARGFRAME PSTACK, 0, STACK
        ARGFRAME XSTACK, 9, STACK
        ARGFRAME IOVERLAY, 0, STATIC
        ARGFRAME DOVERLAY, 0, STATIC
        MOV     A,#-0x9
        LCALL   ?BANKED_ENTER_XDATA
        CFI DPH0 load(1, XDATA, add(CFA_XSP16, literal(-1)))
        CFI DPL0 load(1, XDATA, add(CFA_XSP16, literal(-2)))
        CFI ?BRET_EXT load(1, XDATA, add(CFA_XSP16, literal(-3)))
        CFI ?RET_HIGH load(1, XDATA, add(CFA_XSP16, literal(-4)))
        CFI ?RET_LOW load(1, XDATA, add(CFA_XSP16, literal(-5)))
        CFI R7 load(1, XDATA, add(CFA_XSP16, literal(-6)))
        CFI V0 load(1, XDATA, add(CFA_XSP16, literal(-7)))
        CFI VB load(1, XDATA, add(CFA_XSP16, literal(-8)))
        CFI R6 load(1, XDATA, add(CFA_XSP16, literal(-9)))
        CFI CFA_SP SP+0
        CFI CFA_XSP16 add(XSP16, 9)
        ; Saved register size: 9
        ; Auto size: 0
        MOV     A,R4
        MOV     R2,A
        MOV     A,R5
        MOV     R3,A
// 1752   /*
// 1753   AddrMgrEntry_t entry;
// 1754   */
// 1755   (void)nwkAddr;  // Intentionally unreferenced parameter
// 1756 
// 1757   // Remove if child
// 1758   if ( ZSTACK_ROUTER_BUILD )
        MOV     DPTR,#zgDeviceLogicalType
        MOVX    A,@DPTR
        JZ      ??ZDApp_LeaveUpdate_0
        XRL     A,#0x1
        JNZ     ??ZDApp_LeaveUpdate_1
// 1759   {
// 1760     NLME_RemoveChild( extAddr, removeChildren );
??ZDApp_LeaveUpdate_0:
        ; Setup parameters for call to function NLME_RemoveChild
        LCALL   ??NLME_RemoveChild?relay
// 1761   }
// 1762 
// 1763   /*
// 1764   // Set NWK address to invalid
// 1765   entry.user    = ADDRMGR_USER_DEFAULT;
// 1766   entry.nwkAddr = INVALID_NODE_ADDR;
// 1767   AddrMgrExtAddrSet( entry.extAddr, extAddr );
// 1768   AddrMgrEntryUpdate( &entry );
// 1769 
// 1770   // Check
// 1771   if ( removeChildren == TRUE )
// 1772   {
// 1773     // Set index to INVALID_NODE_ADDR to start search
// 1774     entry.index = INVALID_NODE_ADDR;
// 1775 
// 1776     // Get first entry
// 1777     AddrMgrEntryGetNext( &entry );
// 1778 
// 1779     // Remove all descendents
// 1780     while ( entry.index != INVALID_NODE_ADDR )
// 1781     {
// 1782       // Check NWK address allocation algorithm
// 1783       if ( RTG_ANCESTOR( entry.nwkAddr, thisAddr ) != 0 )
// 1784       {
// 1785         // Set NWK address to invalid
// 1786         entry.nwkAddr = INVALID_NODE_ADDR;
// 1787         AddrMgrEntryUpdate( &entry );
// 1788       }
// 1789 
// 1790       // Get next entry
// 1791       AddrMgrEntryGetNext( &entry );
// 1792     }
// 1793   }
// 1794   */
// 1795 }
??ZDApp_LeaveUpdate_1:
        SJMP    ??Subroutine31_0
        CFI EndBlock cfiBlock117
// 1796 
// 1797 /*********************************************************************
// 1798  * CALLBACK FUNCTIONS
// 1799  */
// 1800 
// 1801 
// 1802 /*********************************************************************
// 1803  * @fn      ZDApp_SendEventMsg()
// 1804  *
// 1805  * @brief
// 1806  *
// 1807  *   Sends a Network Join message
// 1808  *
// 1809  * @param  cmd - command ID
// 1810  * @param  len - length (in bytes) of the buf field
// 1811  * @param  buf - buffer for the rest of the message.
// 1812  *
// 1813  * @return  none
// 1814  */

        RSEG BANKED_CODE:CODE:NOROOT(0)
// 1815 void ZDApp_SendEventMsg( uint8 cmd, uint8 len, uint8 *buf )
ZDApp_SendEventMsg:
        CFI Block cfiBlock118 Using cfiCommon0
        CFI Function ZDApp_SendEventMsg
        CODE
// 1816 {
        FUNCALL ZDApp_SendEventMsg, ZDApp_SendMsg
        LOCFRAME ISTACK, 0, STACK
        LOCFRAME PSTACK, 0, STACK
        LOCFRAME XSTACK, 9, STACK
        LOCFRAME IOVERLAY, 0, STATIC
        LOCFRAME DOVERLAY, 0, STATIC
        ARGFRAME ISTACK, 0, STACK
        ARGFRAME PSTACK, 0, STACK
        ARGFRAME XSTACK, 9, STACK
        ARGFRAME IOVERLAY, 0, STATIC
        ARGFRAME DOVERLAY, 0, STATIC
        MOV     A,#-0x9
        LCALL   ?BANKED_ENTER_XDATA
        CFI DPH0 load(1, XDATA, add(CFA_XSP16, literal(-1)))
        CFI DPL0 load(1, XDATA, add(CFA_XSP16, literal(-2)))
        CFI ?BRET_EXT load(1, XDATA, add(CFA_XSP16, literal(-3)))
        CFI ?RET_HIGH load(1, XDATA, add(CFA_XSP16, literal(-4)))
        CFI ?RET_LOW load(1, XDATA, add(CFA_XSP16, literal(-5)))
        CFI R7 load(1, XDATA, add(CFA_XSP16, literal(-6)))
        CFI V0 load(1, XDATA, add(CFA_XSP16, literal(-7)))
        CFI VB load(1, XDATA, add(CFA_XSP16, literal(-8)))
        CFI R6 load(1, XDATA, add(CFA_XSP16, literal(-9)))
        CFI CFA_SP SP+0
        CFI CFA_XSP16 add(XSP16, 9)
        ; Saved register size: 9
        ; Auto size: 0
        MOV     A,R1
        MOV     R6,A
        MOV     A,R2
// 1817   ZDApp_SendMsg( ZDAppTaskID, cmd, len, buf );
        ; Setup parameters for call to function ZDApp_SendMsg
        MOV     R3,A
        MOV     A,R6
        MOV     R2,A
        SJMP    ?Subroutine0
        CFI EndBlock cfiBlock118
// 1818 }
// 1819 
// 1820 /*********************************************************************
// 1821  * @fn      ZDApp_SendMsg()
// 1822  *
// 1823  * @brief   Sends a OSAL message
// 1824  *
// 1825  * @param  taskID - Where to send the message
// 1826  * @param  cmd - command ID
// 1827  * @param  len - length (in bytes) of the buf field
// 1828  * @param  buf - buffer for the rest of the message.
// 1829  *
// 1830  * @return  none
// 1831  */

        RSEG BANKED_CODE:CODE:NOROOT(0)
// 1832 void ZDApp_SendMsg( uint8 taskID, uint8 cmd, uint8 len, uint8 *buf )
ZDApp_SendMsg:
        CFI Block cfiBlock119 Using cfiCommon0
        CFI Function ZDApp_SendMsg
        CODE
// 1833 {
        FUNCALL ZDApp_SendMsg, osal_msg_allocate
        LOCFRAME ISTACK, 0, STACK
        LOCFRAME PSTACK, 0, STACK
        LOCFRAME XSTACK, 19, STACK
        LOCFRAME IOVERLAY, 0, STATIC
        LOCFRAME DOVERLAY, 0, STATIC
        ARGFRAME ISTACK, 0, STACK
        ARGFRAME PSTACK, 0, STACK
        ARGFRAME XSTACK, 19, STACK
        ARGFRAME IOVERLAY, 0, STATIC
        ARGFRAME DOVERLAY, 0, STATIC
        FUNCALL ZDApp_SendMsg, osal_memcpy
        LOCFRAME ISTACK, 0, STACK
        LOCFRAME PSTACK, 0, STACK
        LOCFRAME XSTACK, 22, STACK
        LOCFRAME IOVERLAY, 0, STATIC
        LOCFRAME DOVERLAY, 0, STATIC
        ARGFRAME ISTACK, 0, STACK
        ARGFRAME PSTACK, 0, STACK
        ARGFRAME XSTACK, 22, STACK
        ARGFRAME IOVERLAY, 0, STATIC
        ARGFRAME DOVERLAY, 0, STATIC
        FUNCALL ZDApp_SendMsg, osal_msg_send
        LOCFRAME ISTACK, 0, STACK
        LOCFRAME PSTACK, 0, STACK
        LOCFRAME XSTACK, 19, STACK
        LOCFRAME IOVERLAY, 0, STATIC
        LOCFRAME DOVERLAY, 0, STATIC
        ARGFRAME ISTACK, 0, STACK
        ARGFRAME PSTACK, 0, STACK
        ARGFRAME XSTACK, 19, STACK
        ARGFRAME IOVERLAY, 0, STATIC
        ARGFRAME DOVERLAY, 0, STATIC
        MOV     A,#-0x13
        LCALL   ?BANKED_ENTER_XDATA
        CFI DPH0 load(1, XDATA, add(CFA_XSP16, literal(-1)))
        CFI DPL0 load(1, XDATA, add(CFA_XSP16, literal(-2)))
        CFI ?BRET_EXT load(1, XDATA, add(CFA_XSP16, literal(-3)))
        CFI ?RET_HIGH load(1, XDATA, add(CFA_XSP16, literal(-4)))
        CFI ?RET_LOW load(1, XDATA, add(CFA_XSP16, literal(-5)))
        CFI R7 load(1, XDATA, add(CFA_XSP16, literal(-6)))
        CFI V10 load(1, XDATA, add(CFA_XSP16, literal(-7)))
        CFI V9 load(1, XDATA, add(CFA_XSP16, literal(-8)))
        CFI V8 load(1, XDATA, add(CFA_XSP16, literal(-9)))
        CFI V7 load(1, XDATA, add(CFA_XSP16, literal(-10)))
        CFI V6 load(1, XDATA, add(CFA_XSP16, literal(-11)))
        CFI V5 load(1, XDATA, add(CFA_XSP16, literal(-12)))
        CFI V4 load(1, XDATA, add(CFA_XSP16, literal(-13)))
        CFI V3 load(1, XDATA, add(CFA_XSP16, literal(-14)))
        CFI V2 load(1, XDATA, add(CFA_XSP16, literal(-15)))
        CFI V1 load(1, XDATA, add(CFA_XSP16, literal(-16)))
        CFI V0 load(1, XDATA, add(CFA_XSP16, literal(-17)))
        CFI VB load(1, XDATA, add(CFA_XSP16, literal(-18)))
        CFI R6 load(1, XDATA, add(CFA_XSP16, literal(-19)))
        CFI CFA_SP SP+0
        CFI CFA_XSP16 add(XSP16, 19)
        ; Saved register size: 19
        ; Auto size: 0
        MOV     ?V0 + 4,R1
        MOV     ?V0 + 6,R2
        MOV     ?V0 + 5,R3
        MOV     ?V0 + 2,R4
        MOV     ?V0 + 3,R5
// 1834   osal_event_hdr_t *msgPtr;
// 1835 
// 1836   // Send the address to the task
// 1837   msgPtr = (osal_event_hdr_t *)osal_msg_allocate( len );
        MOV     DPL,R3
        MOV     ?V0 + 0,DPL
        MOV     ?V0 + 1,#0x0
        ; Setup parameters for call to function osal_msg_allocate
        MOV     R2,?V0 + 0
        MOV     R3,?V0 + 1
        LCALL   ??osal_msg_allocate?relay
        MOV     ?V0 + 8,R2
        MOV     ?V0 + 9,R3
        MOV     R6,?V0 + 8
        MOV     R7,?V0 + 9
// 1838   if ( msgPtr )
        MOV     A,R6
        ORL     A,R7
        JZ      ??ZDApp_SendMsg_0
// 1839   {
// 1840     if ( (len > 0) && (buf != NULL) )
        MOV     A,?V0 + 5
        JZ      ??ZDApp_SendMsg_1
        MOV     A,?V0 + 2
        ORL     A,?V0 + 3
        JZ      ??ZDApp_SendMsg_1
// 1841       osal_memcpy( msgPtr, buf, len );
        ; Setup parameters for call to function osal_memcpy
        MOV     ?V0 + 8,?V0 + 2
        MOV     ?V0 + 9,?V0 + 3
        MOV     ?V0 + 10,#0x0
        MOV     R0,#?V0 + 8
        LCALL   ?PUSH_XSTACK_I_THREE
        CFI CFA_XSP16 add(XSP16, 22)
        MOV     R4,?V0 + 0
        MOV     R5,?V0 + 1
        LCALL   ??osal_memcpy?relay
        MOV     A,#0x3
        LCALL   ?DEALLOC_XSTACK8
        CFI CFA_XSP16 add(XSP16, 19)
// 1842 
// 1843     msgPtr->event = cmd;
??ZDApp_SendMsg_1:
        MOV     DPL,R6
        MOV     DPH,R7
        MOV     A,?V0 + 6
        MOVX    @DPTR,A
// 1844     osal_msg_send( taskID, (uint8 *)msgPtr );
        ; Setup parameters for call to function osal_msg_send
        MOV     A,R6
        MOV     R2,A
        MOV     A,R7
        MOV     R3,A
        MOV     R1,?V0 + 4
        LCALL   ??osal_msg_send?relay
// 1845   }
// 1846 }
??ZDApp_SendMsg_0:
        MOV     R7,#0xb
        LJMP    ?BANKED_LEAVE_XDATA
        CFI EndBlock cfiBlock119
// 1847 
// 1848 /*********************************************************************
// 1849  * Call Back Functions from NWK  - API
// 1850  */
// 1851 
// 1852 /*********************************************************************
// 1853  * @fn          ZDO_NetworkDiscoveryConfirmCB
// 1854  *
// 1855  * @brief       This function returns a choice of PAN to join.
// 1856  *
// 1857  * @param       ResultCount - Number of routers discovered
// 1858  * @param               NetworkList - Pointer to list of network descriptors
// 1859  *
// 1860  * @return      ZStatus_t
// 1861  */
// 1862 #define STACK_PROFILE_MAX 2

        RSEG BANKED_CODE:CODE:NOROOT(0)
// 1863 ZStatus_t ZDO_NetworkDiscoveryConfirmCB( uint8 ResultCount,
ZDO_NetworkDiscoveryConfirmCB:
        CFI Block cfiBlock120 Using cfiCommon0
        CFI Function ZDO_NetworkDiscoveryConfirmCB
        CODE
// 1864                                          networkDesc_t *NetworkList )
// 1865 {
        FUNCALL ZDO_NetworkDiscoveryConfirmCB, nwk_ExtPANIDValid
        LOCFRAME ISTACK, 0, STACK
        LOCFRAME PSTACK, 0, STACK
        LOCFRAME XSTACK, 32, STACK
        LOCFRAME IOVERLAY, 0, STATIC
        LOCFRAME DOVERLAY, 0, STATIC
        ARGFRAME ISTACK, 0, STACK
        ARGFRAME PSTACK, 0, STACK
        ARGFRAME XSTACK, 32, STACK
        ARGFRAME IOVERLAY, 0, STATIC
        ARGFRAME DOVERLAY, 0, STATIC
        FUNCALL ZDO_NetworkDiscoveryConfirmCB, sAddrExtCmp
        LOCFRAME ISTACK, 0, STACK
        LOCFRAME PSTACK, 0, STACK
        LOCFRAME XSTACK, 32, STACK
        LOCFRAME IOVERLAY, 0, STATIC
        LOCFRAME DOVERLAY, 0, STATIC
        ARGFRAME ISTACK, 0, STACK
        ARGFRAME PSTACK, 0, STACK
        ARGFRAME XSTACK, 32, STACK
        ARGFRAME IOVERLAY, 0, STATIC
        ARGFRAME DOVERLAY, 0, STATIC
        FUNCALL ZDO_NetworkDiscoveryConfirmCB, sAddrExtCpy
        LOCFRAME ISTACK, 0, STACK
        LOCFRAME PSTACK, 0, STACK
        LOCFRAME XSTACK, 32, STACK
        LOCFRAME IOVERLAY, 0, STATIC
        LOCFRAME DOVERLAY, 0, STATIC
        ARGFRAME ISTACK, 0, STACK
        ARGFRAME PSTACK, 0, STACK
        ARGFRAME XSTACK, 32, STACK
        ARGFRAME IOVERLAY, 0, STATIC
        ARGFRAME DOVERLAY, 0, STATIC
        FUNCALL ZDO_NetworkDiscoveryConfirmCB, ZDApp_SendMsg
        LOCFRAME ISTACK, 0, STACK
        LOCFRAME PSTACK, 0, STACK
        LOCFRAME XSTACK, 32, STACK
        LOCFRAME IOVERLAY, 0, STATIC
        LOCFRAME DOVERLAY, 0, STATIC
        ARGFRAME ISTACK, 0, STACK
        ARGFRAME PSTACK, 0, STACK
        ARGFRAME XSTACK, 32, STACK
        ARGFRAME IOVERLAY, 0, STATIC
        ARGFRAME DOVERLAY, 0, STATIC
        MOV     A,#-0x12
        LCALL   ?BANKED_ENTER_XDATA
        CFI DPH0 load(1, XDATA, add(CFA_XSP16, literal(-1)))
        CFI DPL0 load(1, XDATA, add(CFA_XSP16, literal(-2)))
        CFI ?BRET_EXT load(1, XDATA, add(CFA_XSP16, literal(-3)))
        CFI ?RET_HIGH load(1, XDATA, add(CFA_XSP16, literal(-4)))
        CFI ?RET_LOW load(1, XDATA, add(CFA_XSP16, literal(-5)))
        CFI R7 load(1, XDATA, add(CFA_XSP16, literal(-6)))
        CFI V9 load(1, XDATA, add(CFA_XSP16, literal(-7)))
        CFI V8 load(1, XDATA, add(CFA_XSP16, literal(-8)))
        CFI V7 load(1, XDATA, add(CFA_XSP16, literal(-9)))
        CFI V6 load(1, XDATA, add(CFA_XSP16, literal(-10)))
        CFI V5 load(1, XDATA, add(CFA_XSP16, literal(-11)))
        CFI V4 load(1, XDATA, add(CFA_XSP16, literal(-12)))
        CFI V3 load(1, XDATA, add(CFA_XSP16, literal(-13)))
        CFI V2 load(1, XDATA, add(CFA_XSP16, literal(-14)))
        CFI V1 load(1, XDATA, add(CFA_XSP16, literal(-15)))
        CFI V0 load(1, XDATA, add(CFA_XSP16, literal(-16)))
        CFI VB load(1, XDATA, add(CFA_XSP16, literal(-17)))
        CFI R6 load(1, XDATA, add(CFA_XSP16, literal(-18)))
        CFI CFA_SP SP+0
        CFI CFA_XSP16 add(XSP16, 18)
        ; Saved register size: 18
        ; Auto size: 14
        MOV     A,#-0xe
        LCALL   ?ALLOC_XSTACK8
        CFI CFA_XSP16 add(XSP16, 32)
        MOV     ?V0 + 4,R1
        MOV     ?V0 + 6,R2
        MOV     ?V0 + 7,R3
// 1866   networkDesc_t *pNwkDesc = NetworkList;
// 1867   ZDO_NetworkDiscoveryCfm_t msg;
// 1868   uint8 i = ResultCount;
// 1869   uint8 stackProfile;
// 1870   uint8 stackProfilePro;
// 1871   uint8 selected;
// 1872 
// 1873 #if defined ( ZDO_MGMT_NWKDISC_RESPONSE )
// 1874   if ( zdappMgmtNwkDiscReqInProgress )
// 1875   {
// 1876     zdappMgmtNwkDiscReqInProgress = false;
// 1877     ZDO_FinishProcessingMgmtNwkDiscReq( ResultCount, NetworkList );
// 1878     return ( ZSuccess );
// 1879   }
// 1880 #endif
// 1881 
// 1882   // process discovery results
// 1883   stackProfilePro = FALSE;
        MOV     ?V0 + 8,#0x0
// 1884   selected = FALSE;
// 1885 
// 1886   for ( stackProfile = 0; stackProfile < STACK_PROFILE_MAX; stackProfile++ )
        MOV     ?V0 + 5,#0x0
// 1887   {
// 1888     pNwkDesc = NetworkList;
??ZDO_NetworkDiscoveryConfirmCB_0:
        MOV     R6,?V0 + 6
        MOV     R7,?V0 + 7
// 1889     for ( i = 0; i < ResultCount; i++, pNwkDesc = pNwkDesc->nextDesc )
        MOV     ?V0 + 9,#0x0
        SJMP    ??ZDO_NetworkDiscoveryConfirmCB_1
// 1890     {
// 1891       if ( zgConfigPANID != 0xFFFF )
// 1892       {
// 1893         // PAN Id is preconfigured. check if it matches
// 1894         if ( pNwkDesc->panId != zgConfigPANID )
// 1895           continue;
// 1896       }
// 1897       
// 1898 
// 1899       if ( nwk_ExtPANIDValid( ZDO_UseExtendedPANID) == true ) 
// 1900       {
// 1901         // If the extended Pan ID is commissioned to a non zero value
// 1902         // Only join the Pan that has match EPID
// 1903         if ( osal_ExtAddrEqual( ZDO_UseExtendedPANID, pNwkDesc->extendedPANID) == false )
// 1904           continue;
// 1905         
// 1906       }
// 1907 
// 1908 
// 1909         // check that network is allowing joining
// 1910         if ( ZSTACK_ROUTER_BUILD )
// 1911         {
// 1912           if ( stackProfilePro == FALSE )
// 1913           {
// 1914             if ( !pNwkDesc->routerCapacity )
// 1915             {
// 1916               continue;
// 1917             }
// 1918           }
// 1919           else
// 1920           {
// 1921             if ( !pNwkDesc->deviceCapacity )
// 1922             {
// 1923               continue;
// 1924             }
// 1925           }
// 1926         }
// 1927         else if ( ZSTACK_END_DEVICE_BUILD )
// 1928         {
// 1929           if ( !pNwkDesc->deviceCapacity )
// 1930           {
// 1931             continue;
// 1932           }
// 1933         }
// 1934 
// 1935         // check version of zigbee protocol
// 1936         if ( pNwkDesc->version != _NIB.nwkProtocolVersion )
// 1937           continue;
// 1938 
// 1939         // check version of stack profile
// 1940         if ( pNwkDesc->stackProfile != zgStackProfile  )
// 1941         {
// 1942           if ( ((zgStackProfile == HOME_CONTROLS) && (pNwkDesc->stackProfile == ZIGBEEPRO_PROFILE)) 
// 1943               || ((zgStackProfile == ZIGBEEPRO_PROFILE) && (pNwkDesc->stackProfile == HOME_CONTROLS))  )
??ZDO_NetworkDiscoveryConfirmCB_2:
        MOVX    A,@DPTR
        XRL     A,#0x2
        JNZ     ??ZDO_NetworkDiscoveryConfirmCB_3
        MOV     A,#0x1
        XRL     A,R0
        JNZ     ??ZDO_NetworkDiscoveryConfirmCB_3
// 1944             stackProfilePro = TRUE;
??ZDO_NetworkDiscoveryConfirmCB_4:
        MOV     ?V0 + 8,#0x1
// 1945           
// 1946           if ( stackProfile == 0 )
??ZDO_NetworkDiscoveryConfirmCB_3:
        MOV     A,?V0 + 5
        JZ      $+5
        LJMP    ??ZDO_NetworkDiscoveryConfirmCB_5 & 0xFFFF
??ZDO_NetworkDiscoveryConfirmCB_6:
        INC     ?V0 + 9
        MOV     A,R6
        ADD     A,#0x16
        LCALL   ??Subroutine32_0 & 0xFFFF
??CrossCallReturnLabel_69:
        MOV     R6,A
        INC     DPTR
        MOVX    A,@DPTR
        MOV     R7,A
??ZDO_NetworkDiscoveryConfirmCB_1:
        MOV     A,R6
        ADD     A,#0x7
        MOV     ?V0 + 0,A
        MOV     A,R7
        ADDC    A,#0x0
        MOV     ?V0 + 1,A
        MOV     A,R6
        ADD     A,#0xd
        MOV     ?V0 + 2,A
        MOV     A,R7
        ADDC    A,#0x0
        MOV     ?V0 + 3,A
        MOV     A,?V0 + 9
        CLR     C
        SUBB    A,?V0 + 4
        JC      $+5
        LJMP    ??ZDO_NetworkDiscoveryConfirmCB_7 & 0xFFFF
        MOV     DPTR,#zgConfigPANID
        MOVX    A,@DPTR
        CPL     A
        JNZ     ??ZDO_NetworkDiscoveryConfirmCB_8
        INC     DPTR
        MOVX    A,@DPTR
        CPL     A
??ZDO_NetworkDiscoveryConfirmCB_8:
        JZ      ??ZDO_NetworkDiscoveryConfirmCB_9
        MOV     DPL,R6
        MOV     DPH,R7
        LCALL   ?Subroutine26 & 0xFFFF
??CrossCallReturnLabel_42:
        MOV     DPTR,#zgConfigPANID
        MOVX    A,@DPTR
        XRL     A,R0
        JNZ     ??ZDO_NetworkDiscoveryConfirmCB_10
        INC     DPTR
        MOVX    A,@DPTR
        XRL     A,R1
??ZDO_NetworkDiscoveryConfirmCB_10:
        JNZ     ??ZDO_NetworkDiscoveryConfirmCB_6
??ZDO_NetworkDiscoveryConfirmCB_9:
        ; Setup parameters for call to function nwk_ExtPANIDValid
        MOV     R2,#ZDO_UseExtendedPANID & 0xff
        MOV     R3,#(ZDO_UseExtendedPANID >> 8) & 0xff
        LCALL   ??nwk_ExtPANIDValid?relay
        MOV     A,R1
        XRL     A,#0x1
        JNZ     ??ZDO_NetworkDiscoveryConfirmCB_11
        ; Setup parameters for call to function sAddrExtCmp
        MOV     R4,?V0 + 2
        MOV     R5,?V0 + 3
        MOV     R2,#ZDO_UseExtendedPANID & 0xff
        MOV     R3,#(ZDO_UseExtendedPANID >> 8) & 0xff
        LCALL   ??sAddrExtCmp?relay
        MOV     A,R1
        JZ      ??ZDO_NetworkDiscoveryConfirmCB_6
??ZDO_NetworkDiscoveryConfirmCB_11:
        MOV     DPTR,#zgDeviceLogicalType
        MOVX    A,@DPTR
        JZ      ??ZDO_NetworkDiscoveryConfirmCB_12
        XRL     A,#0x1
        JNZ     ??ZDO_NetworkDiscoveryConfirmCB_13
??ZDO_NetworkDiscoveryConfirmCB_12:
        MOV     A,?V0 + 8
        JNZ     ??ZDO_NetworkDiscoveryConfirmCB_14
        MOV     DPL,R6
        MOV     DPH,R7
??ZDO_NetworkDiscoveryConfirmCB_15:
        INC     DPTR
        INC     DPTR
        INC     DPTR
        INC     DPTR
        INC     DPTR
        MOVX    A,@DPTR
        JNZ     ??ZDO_NetworkDiscoveryConfirmCB_16
        SJMP    ??ZDO_NetworkDiscoveryConfirmCB_6
??ZDO_NetworkDiscoveryConfirmCB_14:
        MOV     DPL,R6
        MOV     DPH,R7
        INC     DPTR
        SJMP    ??ZDO_NetworkDiscoveryConfirmCB_15
??ZDO_NetworkDiscoveryConfirmCB_13:
        MOVX    A,@DPTR
        XRL     A,#0x2
        JZ      ??ZDO_NetworkDiscoveryConfirmCB_14
??ZDO_NetworkDiscoveryConfirmCB_16:
        MOV     DPL,?V0 + 0
        MOV     DPH,?V0 + 1
        MOVX    A,@DPTR
        MOV     R0,A
        MOV     DPTR,#_NIB + 17
        MOVX    A,@DPTR
        XRL     A,R0
        JZ      $+5
        LJMP    ??ZDO_NetworkDiscoveryConfirmCB_6 & 0xFFFF
        MOV     DPL,R6
        MOV     DPH,R7
        INC     DPTR
        INC     DPTR
        INC     DPTR
        INC     DPTR
        INC     DPTR
        INC     DPTR
        INC     DPTR
        INC     DPTR
        MOVX    A,@DPTR
        MOV     R0,A
        MOV     DPTR,#zgStackProfile
        MOVX    A,@DPTR
        XRL     A,R0
        JZ      ??ZDO_NetworkDiscoveryConfirmCB_5
        MOVX    A,@DPTR
        XRL     A,#0x1
        JZ      $+5
        LJMP    ??ZDO_NetworkDiscoveryConfirmCB_2 & 0xFFFF
        MOV     A,#0x2
        XRL     A,R0
        JZ      $+5
        LJMP    ??ZDO_NetworkDiscoveryConfirmCB_3 & 0xFFFF
        LJMP    ??ZDO_NetworkDiscoveryConfirmCB_4 & 0xFFFF
// 1947           {
// 1948             continue;
// 1949           }
// 1950         }
// 1951 
// 1952       // check if beacon order is the right value..
// 1953       //  if ( pNwkDesc->beaconOrder < ZDO_CONFIG_MAX_BO )
// 1954       //    continue;
// 1955 
// 1956       // choose this pan for joining
// 1957       break;
// 1958     } 
// 1959     if (i < ResultCount)
// 1960     {
// 1961      selected = TRUE;
// 1962       break;
// 1963     }
// 1964    
// 1965     // break if selected or stack profile pro wasn't found
// 1966     if ( (selected == TRUE) || (stackProfilePro == FALSE) )
??ZDO_NetworkDiscoveryConfirmCB_7:
        MOV     A,?V0 + 8
        JZ      ??ZDO_NetworkDiscoveryConfirmCB_17
// 1967     {
// 1968       break;
// 1969     }
// 1970   }
        INC     ?V0 + 5
        MOV     A,?V0 + 5
        CLR     C
        SUBB    A,#0x2
        JNC     $+5
        LJMP    ??ZDO_NetworkDiscoveryConfirmCB_0 & 0xFFFF
// 1971 
// 1972   if ( i == ResultCount )
??ZDO_NetworkDiscoveryConfirmCB_17:
        MOV     A,?V0 + 4
        XRL     A,?V0 + 9
        JNZ     ??ZDO_NetworkDiscoveryConfirmCB_5
// 1973   {
// 1974     msg.hdr.status = ZDO_FAIL;   // couldn't find appropriate PAN to join !
        MOV     A,#0x1
        LCALL   ?XSTACK_DISP0_8
        MOV     A,#0x1
        MOVX    @DPTR,A
        SJMP    ??ZDO_NetworkDiscoveryConfirmCB_18
// 1975   }
// 1976   else
// 1977   {
// 1978     msg.hdr.status = ZDO_SUCCESS;
??ZDO_NetworkDiscoveryConfirmCB_5:
        MOV     A,#0x1
        LCALL   ?XSTACK_DISP0_8
        CLR     A
        MOVX    @DPTR,A
// 1979     msg.panIdLSB = LO_UINT16( pNwkDesc->panId );
        MOV     DPL,R6
        MOV     DPH,R7
        MOVX    A,@DPTR
        PUSH    A
        CFI CFA_SP SP+-1
        MOV     A,#0x2
        LCALL   ?XSTACK_DISP0_8
        POP     A
        CFI CFA_SP SP+0
        MOVX    @DPTR,A
// 1980     msg.panIdMSB = HI_UINT16( pNwkDesc->panId );
        MOV     DPL,R6
        MOV     DPH,R7
        INC     DPTR
        MOVX    A,@DPTR
        PUSH    A
        CFI CFA_SP SP+-1
        MOV     A,#0x3
        LCALL   ?XSTACK_DISP0_8
        POP     A
        CFI CFA_SP SP+0
        MOVX    @DPTR,A
// 1981     msg.logicalChannel = pNwkDesc->logicalChannel;
        MOV     DPL,R6
        MOV     DPH,R7
        INC     DPTR
        INC     DPTR
        MOVX    A,@DPTR
        PUSH    A
        CFI CFA_SP SP+-1
        MOV     A,#0x4
        LCALL   ?XSTACK_DISP0_8
        POP     A
        CFI CFA_SP SP+0
        LCALL   ?Subroutine9 & 0xFFFF
// 1982     msg.version = pNwkDesc->version;
??CrossCallReturnLabel_6:
        PUSH    A
        CFI CFA_SP SP+-1
        MOV     A,#0x5
        LCALL   ?XSTACK_DISP0_8
        POP     A
        CFI CFA_SP SP+0
        MOVX    @DPTR,A
// 1983     osal_cpyExtAddr( msg.extendedPANID, pNwkDesc->extendedPANID );
        ; Setup parameters for call to function sAddrExtCpy
        MOV     R4,?V0 + 2
        MOV     R5,?V0 + 3
        MOV     A,#0x6
        LCALL   ?XSTACK_DISP0_8
        MOV     R2,DPL
        MOV     R3,DPH
        LCALL   ??sAddrExtCpy?relay
// 1984   }
// 1985 
// 1986   ZDApp_SendMsg( ZDAppTaskID, ZDO_NWK_DISC_CNF, sizeof(ZDO_NetworkDiscoveryCfm_t), (uint8 *)&msg );
??ZDO_NetworkDiscoveryConfirmCB_18:
        ; Setup parameters for call to function ZDApp_SendMsg
        MOV     DPL,?XSP + 0
        MOV     DPH,?XSP + 1
        MOV     R4,DPL
        MOV     R5,DPH
        MOV     R3,#0xe
        MOV     R2,#0x1
        LCALL   ?Subroutine16 & 0xFFFF
// 1987 
// 1988   return (ZSuccess);
??CrossCallReturnLabel_24:
        MOV     R1,#0x0
        MOV     A,#0xe
        LCALL   ?DEALLOC_XSTACK8
        CFI CFA_XSP16 add(XSP16, 18)
        MOV     R7,#0xa
        LJMP    ?BANKED_LEAVE_XDATA
        CFI EndBlock cfiBlock120
// 1989 }  // ZDO_NetworkDiscoveryConfirmCB

        RSEG BANKED_CODE:CODE:NOROOT(0)
?Subroutine16:
        CFI Block cfiCond121 Using cfiCommon0
        CFI NoFunction
        CFI Conditional ??CrossCallReturnLabel_23
        CFI R6 load(1, XDATA, add(CFA_XSP16, literal(-9)))
        CFI VB load(1, XDATA, add(CFA_XSP16, literal(-8)))
        CFI V0 load(1, XDATA, add(CFA_XSP16, literal(-7)))
        CFI R7 load(1, XDATA, add(CFA_XSP16, literal(-6)))
        CFI ?RET_LOW load(1, XDATA, add(CFA_XSP16, literal(-5)))
        CFI ?RET_HIGH load(1, XDATA, add(CFA_XSP16, literal(-4)))
        CFI ?BRET_EXT load(1, XDATA, add(CFA_XSP16, literal(-3)))
        CFI DPL0 load(1, XDATA, add(CFA_XSP16, literal(-2)))
        CFI DPH0 load(1, XDATA, add(CFA_XSP16, literal(-1)))
        CFI CFA_SP SP+0
        CFI CFA_XSP16 add(XSP16, 9)
        CFI Block cfiCond122 Using cfiCommon0
        CFI (cfiCond122) NoFunction
        CFI (cfiCond122) Conditional ??CrossCallReturnLabel_23
        CFI (cfiCond122) R6 load(1, XDATA, add(CFA_XSP16, literal(-9)))
        CFI (cfiCond122) VB load(1, XDATA, add(CFA_XSP16, literal(-8)))
        CFI (cfiCond122) V0 load(1, XDATA, add(CFA_XSP16, literal(-7)))
        CFI (cfiCond122) R7 load(1, XDATA, add(CFA_XSP16, literal(-6)))
        CFI (cfiCond122) ?RET_LOW load(1, XDATA, add(CFA_XSP16, literal(-5)))
        CFI (cfiCond122) ?RET_HIGH load(1, XDATA, add(CFA_XSP16, literal(-4)))
        CFI (cfiCond122) ?BRET_EXT load(1, XDATA, add(CFA_XSP16, literal(-3)))
        CFI (cfiCond122) DPL0 load(1, XDATA, add(CFA_XSP16, literal(-2)))
        CFI (cfiCond122) DPH0 load(1, XDATA, add(CFA_XSP16, literal(-1)))
        CFI (cfiCond122) CFA_SP SP+0
        CFI (cfiCond122) CFA_XSP16 add(XSP16, 9)
        CFI Block cfiCond123 Using cfiCommon0
        CFI (cfiCond123) NoFunction
        CFI (cfiCond123) Conditional ??CrossCallReturnLabel_24
        CFI (cfiCond123) R6 load(1, XDATA, add(CFA_XSP16, literal(-18)))
        CFI (cfiCond123) VB load(1, XDATA, add(CFA_XSP16, literal(-17)))
        CFI (cfiCond123) V0 load(1, XDATA, add(CFA_XSP16, literal(-16)))
        CFI (cfiCond123) V1 load(1, XDATA, add(CFA_XSP16, literal(-15)))
        CFI (cfiCond123) V2 load(1, XDATA, add(CFA_XSP16, literal(-14)))
        CFI (cfiCond123) V3 load(1, XDATA, add(CFA_XSP16, literal(-13)))
        CFI (cfiCond123) V4 load(1, XDATA, add(CFA_XSP16, literal(-12)))
        CFI (cfiCond123) V5 load(1, XDATA, add(CFA_XSP16, literal(-11)))
        CFI (cfiCond123) V6 load(1, XDATA, add(CFA_XSP16, literal(-10)))
        CFI (cfiCond123) V7 load(1, XDATA, add(CFA_XSP16, literal(-9)))
        CFI (cfiCond123) V8 load(1, XDATA, add(CFA_XSP16, literal(-8)))
        CFI (cfiCond123) V9 load(1, XDATA, add(CFA_XSP16, literal(-7)))
        CFI (cfiCond123) R7 load(1, XDATA, add(CFA_XSP16, literal(-6)))
        CFI (cfiCond123) ?RET_LOW load(1, XDATA, add(CFA_XSP16, literal(-5)))
        CFI (cfiCond123) ?RET_HIGH load(1, XDATA, add(CFA_XSP16, literal(-4)))
        CFI (cfiCond123) ?BRET_EXT load(1, XDATA, add(CFA_XSP16, literal(-3)))
        CFI (cfiCond123) DPL0 load(1, XDATA, add(CFA_XSP16, literal(-2)))
        CFI (cfiCond123) DPH0 load(1, XDATA, add(CFA_XSP16, literal(-1)))
        CFI (cfiCond123) CFA_SP SP+0
        CFI (cfiCond123) CFA_XSP16 add(XSP16, 32)
        CFI Block cfiCond124 Using cfiCommon0
        CFI (cfiCond124) NoFunction
        CFI (cfiCond124) Conditional ??CrossCallReturnLabel_25
        CFI (cfiCond124) R6 load(1, XDATA, add(CFA_XSP16, literal(-9)))
        CFI (cfiCond124) VB load(1, XDATA, add(CFA_XSP16, literal(-8)))
        CFI (cfiCond124) V0 load(1, XDATA, add(CFA_XSP16, literal(-7)))
        CFI (cfiCond124) R7 load(1, XDATA, add(CFA_XSP16, literal(-6)))
        CFI (cfiCond124) ?RET_LOW load(1, XDATA, add(CFA_XSP16, literal(-5)))
        CFI (cfiCond124) ?RET_HIGH load(1, XDATA, add(CFA_XSP16, literal(-4)))
        CFI (cfiCond124) ?BRET_EXT load(1, XDATA, add(CFA_XSP16, literal(-3)))
        CFI (cfiCond124) DPL0 load(1, XDATA, add(CFA_XSP16, literal(-2)))
        CFI (cfiCond124) DPH0 load(1, XDATA, add(CFA_XSP16, literal(-1)))
        CFI (cfiCond124) CFA_SP SP+0
        CFI (cfiCond124) CFA_XSP16 add(XSP16, 9)
        CFI Block cfiPicker125 Using cfiCommon1
        CFI (cfiPicker125) NoFunction
        CFI (cfiPicker125) Picker
        MOV     DPTR,#ZDAppTaskID
        MOVX    A,@DPTR
        MOV     R1,A
        LCALL   ??ZDApp_SendMsg?relay
        RET
        CFI EndBlock cfiCond121
        CFI EndBlock cfiCond122
        CFI EndBlock cfiCond123
        CFI EndBlock cfiCond124
        CFI EndBlock cfiPicker125
// 1990 
// 1991 /*********************************************************************
// 1992  * @fn          ZDO_NetworkFormationConfirmCB
// 1993  *
// 1994  * @brief       This function reports the results of the request to
// 1995  *              initialize a coordinator in a network.
// 1996  *
// 1997  * @param       Status - Result of NLME_NetworkFormationRequest()
// 1998  *
// 1999  * @return      none
// 2000  */

        RSEG BANKED_CODE:CODE:NOROOT(0)
// 2001 void ZDO_NetworkFormationConfirmCB( ZStatus_t Status )
ZDO_NetworkFormationConfirmCB:
        CFI Block cfiBlock126 Using cfiCommon0
        CFI Function ZDO_NetworkFormationConfirmCB
        CODE
// 2002 {
        FUNCALL ZDO_NetworkFormationConfirmCB, HalLedSet
        LOCFRAME ISTACK, 0, STACK
        LOCFRAME PSTACK, 0, STACK
        LOCFRAME XSTACK, 9, STACK
        LOCFRAME IOVERLAY, 0, STATIC
        LOCFRAME DOVERLAY, 0, STATIC
        ARGFRAME ISTACK, 0, STACK
        ARGFRAME PSTACK, 0, STACK
        ARGFRAME XSTACK, 9, STACK
        ARGFRAME IOVERLAY, 0, STATIC
        ARGFRAME DOVERLAY, 0, STATIC
        FUNCALL ZDO_NetworkFormationConfirmCB, HalLedSet
        LOCFRAME ISTACK, 0, STACK
        LOCFRAME PSTACK, 0, STACK
        LOCFRAME XSTACK, 9, STACK
        LOCFRAME IOVERLAY, 0, STATIC
        LOCFRAME DOVERLAY, 0, STATIC
        ARGFRAME ISTACK, 0, STACK
        ARGFRAME PSTACK, 0, STACK
        ARGFRAME XSTACK, 9, STACK
        ARGFRAME IOVERLAY, 0, STATIC
        ARGFRAME DOVERLAY, 0, STATIC
        FUNCALL ZDO_NetworkFormationConfirmCB, osal_set_event
        LOCFRAME ISTACK, 0, STACK
        LOCFRAME PSTACK, 0, STACK
        LOCFRAME XSTACK, 9, STACK
        LOCFRAME IOVERLAY, 0, STATIC
        LOCFRAME DOVERLAY, 0, STATIC
        ARGFRAME ISTACK, 0, STACK
        ARGFRAME PSTACK, 0, STACK
        ARGFRAME XSTACK, 9, STACK
        ARGFRAME IOVERLAY, 0, STATIC
        ARGFRAME DOVERLAY, 0, STATIC
        MOV     A,#-0x9
        LCALL   ?BANKED_ENTER_XDATA
        CFI DPH0 load(1, XDATA, add(CFA_XSP16, literal(-1)))
        CFI DPL0 load(1, XDATA, add(CFA_XSP16, literal(-2)))
        CFI ?BRET_EXT load(1, XDATA, add(CFA_XSP16, literal(-3)))
        CFI ?RET_HIGH load(1, XDATA, add(CFA_XSP16, literal(-4)))
        CFI ?RET_LOW load(1, XDATA, add(CFA_XSP16, literal(-5)))
        CFI R7 load(1, XDATA, add(CFA_XSP16, literal(-6)))
        CFI V0 load(1, XDATA, add(CFA_XSP16, literal(-7)))
        CFI VB load(1, XDATA, add(CFA_XSP16, literal(-8)))
        CFI R6 load(1, XDATA, add(CFA_XSP16, literal(-9)))
        CFI CFA_SP SP+0
        CFI CFA_XSP16 add(XSP16, 9)
        ; Saved register size: 9
        ; Auto size: 0
        MOV     A,R1
// 2003   nwkStatus = (byte)Status;
        MOV     DPTR,#nwkStatus
        MOVX    @DPTR,A
// 2004 
// 2005   if ( Status == ZSUCCESS )
        JNZ     ??ZDO_NetworkFormationConfirmCB_0
// 2006   {
// 2007     // LED on shows Coordinator started
// 2008     HalLedSet ( HAL_LED_3, HAL_LED_MODE_ON );
        ; Setup parameters for call to function HalLedSet
        LCALL   ?Subroutine24 & 0xFFFF
// 2009 
// 2010     // LED off forgets HOLD_AUTO_START
// 2011     HalLedSet (HAL_LED_4, HAL_LED_MODE_OFF);
// 2012 
// 2013 #if defined ( ZBIT )
// 2014     SIM_SetColor(0xd0ffd0);
// 2015 #endif
// 2016 
// 2017     if ( devState == DEV_HOLD )
??CrossCallReturnLabel_38:
        JNZ     ??CrossCallReturnLabel_50
// 2018     {
// 2019       // Began with HOLD_AUTO_START
// 2020       devState = DEV_COORD_STARTING;
        MOV     A,#0x8
        MOVX    @DPTR,A
        SJMP    ??CrossCallReturnLabel_50
// 2021     }
// 2022   }
// 2023 #if defined(BLINK_LEDS)
// 2024   else
// 2025     //HalLedSet ( HAL_LED_3, HAL_LED_MODE_FLASH );  // Flash LED to show failure
// 2026 #endif
// 2027 
// 2028   osal_set_event( ZDAppTaskID, ZDO_NETWORK_START );
??ZDO_NetworkFormationConfirmCB_0:
        ; Setup parameters for call to function osal_set_event
        MOV     R2,#0x2
        LCALL   ??Subroutine27_0 & 0xFFFF
// 2029 }
??CrossCallReturnLabel_50:
        LJMP    ??Subroutine31_0 & 0xFFFF
        CFI EndBlock cfiBlock126
// 2030 
// 2031 /*********************************************************************
// 2032  * @fn          ZDO_StartRouterConfirmCB
// 2033  *
// 2034  * @brief       This function reports the results of the request to
// 2035  *              start functioning as a router in a network.
// 2036  *
// 2037  * @param       Status - Result of NLME_StartRouterRequest()
// 2038  *
// 2039  * @return      none
// 2040  */

        RSEG BANKED_CODE:CODE:NOROOT(0)
// 2041 void ZDO_StartRouterConfirmCB( ZStatus_t Status )
ZDO_StartRouterConfirmCB:
        CFI Block cfiBlock127 Using cfiCommon0
        CFI Function ZDO_StartRouterConfirmCB
        CODE
// 2042 {
        FUNCALL ZDO_StartRouterConfirmCB, HalLedSet
        LOCFRAME ISTACK, 0, STACK
        LOCFRAME PSTACK, 0, STACK
        LOCFRAME XSTACK, 9, STACK
        LOCFRAME IOVERLAY, 0, STATIC
        LOCFRAME DOVERLAY, 0, STATIC
        ARGFRAME ISTACK, 0, STACK
        ARGFRAME PSTACK, 0, STACK
        ARGFRAME XSTACK, 9, STACK
        ARGFRAME IOVERLAY, 0, STATIC
        ARGFRAME DOVERLAY, 0, STATIC
        FUNCALL ZDO_StartRouterConfirmCB, HalLedSet
        LOCFRAME ISTACK, 0, STACK
        LOCFRAME PSTACK, 0, STACK
        LOCFRAME XSTACK, 9, STACK
        LOCFRAME IOVERLAY, 0, STATIC
        LOCFRAME DOVERLAY, 0, STATIC
        ARGFRAME ISTACK, 0, STACK
        ARGFRAME PSTACK, 0, STACK
        ARGFRAME XSTACK, 9, STACK
        ARGFRAME IOVERLAY, 0, STATIC
        ARGFRAME DOVERLAY, 0, STATIC
        FUNCALL ZDO_StartRouterConfirmCB, HalLedSet
        LOCFRAME ISTACK, 0, STACK
        LOCFRAME PSTACK, 0, STACK
        LOCFRAME XSTACK, 9, STACK
        LOCFRAME IOVERLAY, 0, STATIC
        LOCFRAME DOVERLAY, 0, STATIC
        ARGFRAME ISTACK, 0, STACK
        ARGFRAME PSTACK, 0, STACK
        ARGFRAME XSTACK, 9, STACK
        ARGFRAME IOVERLAY, 0, STATIC
        ARGFRAME DOVERLAY, 0, STATIC
        FUNCALL ZDO_StartRouterConfirmCB, osal_set_event
        LOCFRAME ISTACK, 0, STACK
        LOCFRAME PSTACK, 0, STACK
        LOCFRAME XSTACK, 9, STACK
        LOCFRAME IOVERLAY, 0, STATIC
        LOCFRAME DOVERLAY, 0, STATIC
        ARGFRAME ISTACK, 0, STACK
        ARGFRAME PSTACK, 0, STACK
        ARGFRAME XSTACK, 9, STACK
        ARGFRAME IOVERLAY, 0, STATIC
        ARGFRAME DOVERLAY, 0, STATIC
        MOV     A,#-0x9
        LCALL   ?BANKED_ENTER_XDATA
        CFI DPH0 load(1, XDATA, add(CFA_XSP16, literal(-1)))
        CFI DPL0 load(1, XDATA, add(CFA_XSP16, literal(-2)))
        CFI ?BRET_EXT load(1, XDATA, add(CFA_XSP16, literal(-3)))
        CFI ?RET_HIGH load(1, XDATA, add(CFA_XSP16, literal(-4)))
        CFI ?RET_LOW load(1, XDATA, add(CFA_XSP16, literal(-5)))
        CFI R7 load(1, XDATA, add(CFA_XSP16, literal(-6)))
        CFI V0 load(1, XDATA, add(CFA_XSP16, literal(-7)))
        CFI VB load(1, XDATA, add(CFA_XSP16, literal(-8)))
        CFI R6 load(1, XDATA, add(CFA_XSP16, literal(-9)))
        CFI CFA_SP SP+0
        CFI CFA_XSP16 add(XSP16, 9)
        ; Saved register size: 9
        ; Auto size: 0
        MOV     A,R1
// 2043   nwkStatus = (byte)Status;
        MOV     DPTR,#nwkStatus
        MOVX    @DPTR,A
// 2044 
// 2045   if ( Status == ZSUCCESS )
        JNZ     ??ZDO_StartRouterConfirmCB_0
// 2046   {
// 2047     // LED on shows Router started
// 2048     HalLedSet ( HAL_LED_3, HAL_LED_MODE_ON );
        ; Setup parameters for call to function HalLedSet
        LCALL   ?Subroutine24 & 0xFFFF
// 2049     // LED off forgets HOLD_AUTO_START
// 2050     HalLedSet ( HAL_LED_4, HAL_LED_MODE_OFF);
// 2051     
// 2052     if ( devState == DEV_HOLD )
??CrossCallReturnLabel_39:
        JNZ     ??ZDO_StartRouterConfirmCB_1
// 2053     {
// 2054       // Began with HOLD_AUTO_START
// 2055       devState = DEV_END_DEVICE;
        MOV     A,#0x6
        MOVX    @DPTR,A
        SJMP    ??ZDO_StartRouterConfirmCB_1
// 2056     }
// 2057   }
// 2058 #if defined(BLINK_LEDS)
// 2059   else
// 2060     HalLedSet( HAL_LED_3, HAL_LED_MODE_FLASH );  // Flash LED to show failure
??ZDO_StartRouterConfirmCB_0:
        ; Setup parameters for call to function HalLedSet
        MOV     R2,#0x4
        MOV     R1,#0x4
        LCALL   ??HalLedSet?relay
// 2061 #endif
// 2062 
// 2063   osal_set_event( ZDAppTaskID, ZDO_ROUTER_START );
??ZDO_StartRouterConfirmCB_1:
        ; Setup parameters for call to function osal_set_event
        MOV     R2,#0x20
        LCALL   ??Subroutine27_0 & 0xFFFF
// 2064 }
??CrossCallReturnLabel_51:
        LJMP    ??Subroutine31_0 & 0xFFFF
        CFI EndBlock cfiBlock127

        RSEG BANKED_CODE:CODE:NOROOT(0)
?Subroutine24:
        CFI Block cfiCond128 Using cfiCommon0
        CFI NoFunction
        CFI Conditional ??CrossCallReturnLabel_38
        CFI R6 load(1, XDATA, add(CFA_XSP16, literal(-9)))
        CFI VB load(1, XDATA, add(CFA_XSP16, literal(-8)))
        CFI V0 load(1, XDATA, add(CFA_XSP16, literal(-7)))
        CFI R7 load(1, XDATA, add(CFA_XSP16, literal(-6)))
        CFI ?RET_LOW load(1, XDATA, add(CFA_XSP16, literal(-5)))
        CFI ?RET_HIGH load(1, XDATA, add(CFA_XSP16, literal(-4)))
        CFI ?BRET_EXT load(1, XDATA, add(CFA_XSP16, literal(-3)))
        CFI DPL0 load(1, XDATA, add(CFA_XSP16, literal(-2)))
        CFI DPH0 load(1, XDATA, add(CFA_XSP16, literal(-1)))
        CFI CFA_SP SP+0
        CFI CFA_XSP16 add(XSP16, 9)
        CFI Block cfiCond129 Using cfiCommon0
        CFI (cfiCond129) NoFunction
        CFI (cfiCond129) Conditional ??CrossCallReturnLabel_39
        CFI (cfiCond129) R6 load(1, XDATA, add(CFA_XSP16, literal(-9)))
        CFI (cfiCond129) VB load(1, XDATA, add(CFA_XSP16, literal(-8)))
        CFI (cfiCond129) V0 load(1, XDATA, add(CFA_XSP16, literal(-7)))
        CFI (cfiCond129) R7 load(1, XDATA, add(CFA_XSP16, literal(-6)))
        CFI (cfiCond129) ?RET_LOW load(1, XDATA, add(CFA_XSP16, literal(-5)))
        CFI (cfiCond129) ?RET_HIGH load(1, XDATA, add(CFA_XSP16, literal(-4)))
        CFI (cfiCond129) ?BRET_EXT load(1, XDATA, add(CFA_XSP16, literal(-3)))
        CFI (cfiCond129) DPL0 load(1, XDATA, add(CFA_XSP16, literal(-2)))
        CFI (cfiCond129) DPH0 load(1, XDATA, add(CFA_XSP16, literal(-1)))
        CFI (cfiCond129) CFA_SP SP+0
        CFI (cfiCond129) CFA_XSP16 add(XSP16, 9)
        CFI Block cfiCond130 Using cfiCommon0
        CFI (cfiCond130) NoFunction
        CFI (cfiCond130) Conditional ??CrossCallReturnLabel_40
        CFI (cfiCond130) R6 load(1, XDATA, add(CFA_XSP16, literal(-9)))
        CFI (cfiCond130) VB load(1, XDATA, add(CFA_XSP16, literal(-8)))
        CFI (cfiCond130) V0 load(1, XDATA, add(CFA_XSP16, literal(-7)))
        CFI (cfiCond130) R7 load(1, XDATA, add(CFA_XSP16, literal(-6)))
        CFI (cfiCond130) ?RET_LOW load(1, XDATA, add(CFA_XSP16, literal(-5)))
        CFI (cfiCond130) ?RET_HIGH load(1, XDATA, add(CFA_XSP16, literal(-4)))
        CFI (cfiCond130) ?BRET_EXT load(1, XDATA, add(CFA_XSP16, literal(-3)))
        CFI (cfiCond130) DPL0 load(1, XDATA, add(CFA_XSP16, literal(-2)))
        CFI (cfiCond130) DPH0 load(1, XDATA, add(CFA_XSP16, literal(-1)))
        CFI (cfiCond130) CFA_SP SP+0
        CFI (cfiCond130) CFA_XSP16 add(XSP16, 9)
        CFI Block cfiPicker131 Using cfiCommon1
        CFI (cfiPicker131) NoFunction
        CFI (cfiPicker131) Picker
        MOV     R2,#0x1
        MOV     R1,#0x4
        LCALL   ??HalLedSet?relay
        ; Setup parameters for call to function HalLedSet
        ; Setup parameters for call to function HalLedSet
        ; Setup parameters for call to function HalLedSet
        MOV     R2,#0x0
        MOV     R1,#0x8
        LCALL   ??HalLedSet?relay
        MOV     DPTR,#devState
        MOVX    A,@DPTR
        RET
        CFI EndBlock cfiCond128
        CFI EndBlock cfiCond129
        CFI EndBlock cfiCond130
        CFI EndBlock cfiPicker131
// 2065 
// 2066 /*********************************************************************
// 2067  * @fn          ZDO_JoinConfirmCB
// 2068  *
// 2069  * @brief       This function allows the next hight layer to be notified
// 2070  *              of the results of its request to join itself or another
// 2071  *              device to a network.
// 2072  *
// 2073  * @param       Status - Result of NLME_JoinRequest()
// 2074  *
// 2075  * @return      none
// 2076  */

        RSEG BANKED_CODE:CODE:NOROOT(0)
// 2077 void ZDO_JoinConfirmCB( uint16 PanId, ZStatus_t Status )
ZDO_JoinConfirmCB:
        CFI Block cfiBlock132 Using cfiCommon0
        CFI Function ZDO_JoinConfirmCB
        CODE
// 2078 {
        FUNCALL ZDO_JoinConfirmCB, HalLedSet
        LOCFRAME ISTACK, 0, STACK
        LOCFRAME PSTACK, 0, STACK
        LOCFRAME XSTACK, 9, STACK
        LOCFRAME IOVERLAY, 0, STATIC
        LOCFRAME DOVERLAY, 0, STATIC
        ARGFRAME ISTACK, 0, STACK
        ARGFRAME PSTACK, 0, STACK
        ARGFRAME XSTACK, 9, STACK
        ARGFRAME IOVERLAY, 0, STATIC
        ARGFRAME DOVERLAY, 0, STATIC
        FUNCALL ZDO_JoinConfirmCB, HalLedSet
        LOCFRAME ISTACK, 0, STACK
        LOCFRAME PSTACK, 0, STACK
        LOCFRAME XSTACK, 9, STACK
        LOCFRAME IOVERLAY, 0, STATIC
        LOCFRAME DOVERLAY, 0, STATIC
        ARGFRAME ISTACK, 0, STACK
        ARGFRAME PSTACK, 0, STACK
        ARGFRAME XSTACK, 9, STACK
        ARGFRAME IOVERLAY, 0, STATIC
        ARGFRAME DOVERLAY, 0, STATIC
        FUNCALL ZDO_JoinConfirmCB, HalLedSet
        LOCFRAME ISTACK, 0, STACK
        LOCFRAME PSTACK, 0, STACK
        LOCFRAME XSTACK, 9, STACK
        LOCFRAME IOVERLAY, 0, STATIC
        LOCFRAME DOVERLAY, 0, STATIC
        ARGFRAME ISTACK, 0, STACK
        ARGFRAME PSTACK, 0, STACK
        ARGFRAME XSTACK, 9, STACK
        ARGFRAME IOVERLAY, 0, STATIC
        ARGFRAME DOVERLAY, 0, STATIC
        FUNCALL ZDO_JoinConfirmCB, ZDApp_SendMsg
        LOCFRAME ISTACK, 0, STACK
        LOCFRAME PSTACK, 0, STACK
        LOCFRAME XSTACK, 9, STACK
        LOCFRAME IOVERLAY, 0, STATIC
        LOCFRAME DOVERLAY, 0, STATIC
        ARGFRAME ISTACK, 0, STACK
        ARGFRAME PSTACK, 0, STACK
        ARGFRAME XSTACK, 9, STACK
        ARGFRAME IOVERLAY, 0, STATIC
        ARGFRAME DOVERLAY, 0, STATIC
        MOV     A,#-0x9
        LCALL   ?BANKED_ENTER_XDATA
        CFI DPH0 load(1, XDATA, add(CFA_XSP16, literal(-1)))
        CFI DPL0 load(1, XDATA, add(CFA_XSP16, literal(-2)))
        CFI ?BRET_EXT load(1, XDATA, add(CFA_XSP16, literal(-3)))
        CFI ?RET_HIGH load(1, XDATA, add(CFA_XSP16, literal(-4)))
        CFI ?RET_LOW load(1, XDATA, add(CFA_XSP16, literal(-5)))
        CFI R7 load(1, XDATA, add(CFA_XSP16, literal(-6)))
        CFI V0 load(1, XDATA, add(CFA_XSP16, literal(-7)))
        CFI VB load(1, XDATA, add(CFA_XSP16, literal(-8)))
        CFI R6 load(1, XDATA, add(CFA_XSP16, literal(-9)))
        CFI CFA_SP SP+0
        CFI CFA_XSP16 add(XSP16, 9)
        ; Saved register size: 9
        ; Auto size: 0
        MOV     A,R1
// 2079   (void)PanId;  // remove if this parameter is used.
// 2080   
// 2081   // Status  NLME_JoinReques() 
// 2082   //  zSuccess zFailure
// 2083   nwkStatus = (byte)Status;
        MOV     DPTR,#nwkStatus
        MOVX    @DPTR,A
// 2084 
// 2085   if ( Status == ZSUCCESS ) // 
        JNZ     ??ZDO_JoinConfirmCB_0
// 2086   {
// 2087     // LED on shows device joined
// 2088     HalLedSet ( HAL_LED_3, HAL_LED_MODE_ON );
        ; Setup parameters for call to function HalLedSet
        LCALL   ?Subroutine24 & 0xFFFF
// 2089     // LED off forgets HOLD_AUTO_START
// 2090     HalLedSet ( HAL_LED_4, HAL_LED_MODE_OFF);
// 2091     if ( (devState == DEV_HOLD) )
??CrossCallReturnLabel_40:
        JNZ     ??ZDO_JoinConfirmCB_1
// 2092     {
// 2093       // Began with HOLD_AUTO_START
// 2094       devState = DEV_NWK_JOINING;
        MOV     A,#0x3
        MOVX    @DPTR,A
        SJMP    ??ZDO_JoinConfirmCB_1
// 2095     }
// 2096 
// 2097     if ( !ZG_SECURE_ENABLED )
// 2098     {
// 2099       // Notify to save info into NV
// 2100       //  IAR  NV_RESTORE 
// 2101       ZDApp_NVUpdate();
// 2102     }
// 2103   }
// 2104   else
// 2105   {
// 2106 #if defined(BLINK_LEDS)
// 2107     HalLedSet ( HAL_LED_3, HAL_LED_MODE_FLASH );  // Flash LED to show failure
??ZDO_JoinConfirmCB_0:
        ; Setup parameters for call to function HalLedSet
        MOV     R2,#0x4
        MOV     R1,#0x4
        LCALL   ??HalLedSet?relay
// 2108 #endif
// 2109   }
// 2110 
// 2111   // Notify ZDApp
// 2112   ZDApp_SendMsg( ZDAppTaskID, ZDO_NWK_JOIN_IND, sizeof(osal_event_hdr_t), (byte*)NULL );
??ZDO_JoinConfirmCB_1:
        ; Setup parameters for call to function ZDApp_SendMsg
        MOV     R4,#0x0
        MOV     R5,#0x0
        MOV     R3,#0x2
        MOV     R2,#0x2
        LJMP    ?Subroutine0 & 0xFFFF
        CFI EndBlock cfiBlock132
// 2113 }
// 2114 
// 2115 /*********************************************************************
// 2116  * @fn          ZDO_AddrChangeIndicationCB
// 2117  *
// 2118  * @brief       This function notifies the application that this
// 2119  *              device's address has changed.  Could happen in 
// 2120  *              a network with stochastic addressing (PRO).
// 2121  *
// 2122  * @param       newAddr - the new address
// 2123  *
// 2124  * @return      none
// 2125  */

        RSEG BANKED_CODE:CODE:NOROOT(0)
// 2126 void ZDO_AddrChangeIndicationCB( uint16 newAddr )
ZDO_AddrChangeIndicationCB:
        CFI Block cfiBlock133 Using cfiCommon0
        CFI Function ZDO_AddrChangeIndicationCB
        CODE
// 2127 {
        FUNCALL ZDO_AddrChangeIndicationCB, osal_set_event
        LOCFRAME ISTACK, 2, STACK
        LOCFRAME PSTACK, 0, STACK
        LOCFRAME XSTACK, 0, STACK
        LOCFRAME IOVERLAY, 0, STATIC
        LOCFRAME DOVERLAY, 0, STATIC
        ARGFRAME ISTACK, 2, STACK
        ARGFRAME PSTACK, 0, STACK
        ARGFRAME XSTACK, 0, STACK
        ARGFRAME IOVERLAY, 0, STATIC
        ARGFRAME DOVERLAY, 0, STATIC
        FUNCALL ZDO_AddrChangeIndicationCB, ZDApp_AnnounceNewAddress
        LOCFRAME ISTACK, 2, STACK
        LOCFRAME PSTACK, 0, STACK
        LOCFRAME XSTACK, 0, STACK
        LOCFRAME IOVERLAY, 0, STATIC
        LOCFRAME DOVERLAY, 0, STATIC
        ARGFRAME ISTACK, 2, STACK
        ARGFRAME PSTACK, 0, STACK
        ARGFRAME XSTACK, 0, STACK
        ARGFRAME IOVERLAY, 0, STATIC
        ARGFRAME DOVERLAY, 0, STATIC
        PUSH    DPL
        CFI DPL0 Frame(CFA_SP, 4)
        CFI CFA_SP SP+-4
        PUSH    DPH
        CFI DPH0 Frame(CFA_SP, 5)
        CFI CFA_SP SP+-5
        ; Saved register size: 2
        ; Auto size: 0
// 2128   (void)newAddr;  // remove if this parameter is used
// 2129   
// 2130   // Notify to save info into NV
// 2131   ZDApp_NVUpdate();
// 2132 
// 2133   // Notify the applications   
// 2134   osal_set_event( ZDAppTaskID, ZDO_STATE_CHANGE_EVT );
        ; Setup parameters for call to function osal_set_event
        LCALL   ?Subroutine10 & 0xFFFF
// 2135 
// 2136   // Send out a device announce
// 2137   ZDApp_AnnounceNewAddress();
??CrossCallReturnLabel_48:
        ; Setup parameters for call to function ZDApp_AnnounceNewAddress
        LCALL   ??ZDApp_AnnounceNewAddress?relay
// 2138 }
        LJMP    ?Subroutine2 & 0xFFFF
        CFI EndBlock cfiBlock133
// 2139 
// 2140 /*********************************************************************
// 2141  * @fn          ZDO_JoinIndicationCB
// 2142  *
// 2143  * @brief       This function allows the next higher layer of a
// 2144  *              coordinator to be notified of a remote join request.
// 2145  *
// 2146  * @param       ShortAddress - 16-bit address
// 2147  * @param       ExtendedAddress - IEEE (64-bit) address
// 2148  * @param       CapabilityInformation - Association Capability Information
// 2149  * @param       type - of joining - 
// 2150  *                          NWK_ASSOC_JOIN
// 2151  *                          NWK_ASSOC_REJOIN_UNSECURE
// 2152  *                          NWK_ASSOC_REJOIN_SECURE
// 2153  *
// 2154  * @return      ZStatus_t
// 2155  */

        RSEG BANKED_CODE:CODE:NOROOT(0)
// 2156 ZStatus_t ZDO_JoinIndicationCB( uint16 ShortAddress, uint8 *ExtendedAddress,
ZDO_JoinIndicationCB:
        CODE
// 2157                                 uint8 CapabilityInformation, uint8 type )
// 2158 {
        ; Saved register size: 0
        ; Auto size: 0
// 2159   (void)ShortAddress;
// 2160   (void)ExtendedAddress;
// 2161   (void)CapabilityInformation;
// 2162   
// 2163     // Notify to save info into NV
// 2164     ZDApp_NVUpdate();
// 2165   
// 2166     // send notification to TC of new device..
// 2167     if ( ZG_SECURE_ENABLED )
// 2168     {
// 2169       if ( type == NWK_ASSOC_JOIN || type == NWK_ASSOC_REJOIN_UNSECURE )
// 2170       {
// 2171         osal_start_timerEx( ZDAppTaskID, ZDO_NEW_DEVICE, 600 );
// 2172       }
// 2173     }
// 2174   
// 2175     return ( ZSuccess );
        REQUIRE ?Subroutine3
        ; // Fall through to label ?Subroutine3

        RSEG BANKED_CODE:CODE:NOROOT(0)
?Subroutine3:
        CFI Block cfiBlock134 Using cfiCommon0
        CFI NoFunction
        MOV     R1,#0x0
        LJMP    ?BRET
        CFI EndBlock cfiBlock134
// 2176 }
// 2177 
// 2178 /*********************************************************************
// 2179  * @fn          ZDO_ConcentratorIndicationCB
// 2180  *
// 2181  * @brief       This function allows the next higher layer of a
// 2182  *              device to be notified of existence of the concentrator.
// 2183  *
// 2184  * @param       nwkAddr - 16-bit NWK address of the concentrator
// 2185  *
// 2186  * @return      void 
// 2187  */

        RSEG BANKED_CODE:CODE:NOROOT(0)
// 2188 void ZDO_ConcentratorIndicationCB( uint16 nwkAddr )
ZDO_ConcentratorIndicationCB:
        CFI Block cfiBlock135 Using cfiCommon0
        CFI Function ZDO_ConcentratorIndicationCB
        CODE
// 2189 {
        ; Saved register size: 0
        ; Auto size: 0
// 2190   // Write your code here to do something with the concentrator's
// 2191   // address.
// 2192   (void)nwkAddr;
// 2193 }
        LJMP    ?BRET
        CFI EndBlock cfiBlock135
// 2194 
// 2195 /*********************************************************************
// 2196  * @fn          ZDO_LeaveCnf
// 2197  *
// 2198  * @brief       This function allows the next higher layer to be
// 2199  *              notified of the results of its request for this or
// 2200  *              a child device to leave the network.
// 2201  *
// 2202  * @param       cnf - NLME_LeaveCnf_t
// 2203  *
// 2204  * @return      none
// 2205  */

        RSEG BANKED_CODE:CODE:NOROOT(0)
// 2206 void ZDO_LeaveCnf( NLME_LeaveCnf_t* cnf )
ZDO_LeaveCnf:
        CFI Block cfiBlock136 Using cfiCommon0
        CFI Function ZDO_LeaveCnf
        CODE
// 2207 {
        FUNCALL ZDO_LeaveCnf, NLME_GetExtAddr
        LOCFRAME ISTACK, 0, STACK
        LOCFRAME PSTACK, 0, STACK
        LOCFRAME XSTACK, 10, STACK
        LOCFRAME IOVERLAY, 0, STATIC
        LOCFRAME DOVERLAY, 0, STATIC
        ARGFRAME ISTACK, 0, STACK
        ARGFRAME PSTACK, 0, STACK
        ARGFRAME XSTACK, 10, STACK
        ARGFRAME IOVERLAY, 0, STATIC
        ARGFRAME DOVERLAY, 0, STATIC
        FUNCALL ZDO_LeaveCnf, sAddrExtCmp
        LOCFRAME ISTACK, 0, STACK
        LOCFRAME PSTACK, 0, STACK
        LOCFRAME XSTACK, 10, STACK
        LOCFRAME IOVERLAY, 0, STATIC
        LOCFRAME DOVERLAY, 0, STATIC
        ARGFRAME ISTACK, 0, STACK
        ARGFRAME PSTACK, 0, STACK
        ARGFRAME XSTACK, 10, STACK
        ARGFRAME IOVERLAY, 0, STATIC
        ARGFRAME DOVERLAY, 0, STATIC
        FUNCALL ZDO_LeaveCnf, ZDApp_LeaveReset
        LOCFRAME ISTACK, 0, STACK
        LOCFRAME PSTACK, 0, STACK
        LOCFRAME XSTACK, 10, STACK
        LOCFRAME IOVERLAY, 0, STATIC
        LOCFRAME DOVERLAY, 0, STATIC
        ARGFRAME ISTACK, 0, STACK
        ARGFRAME PSTACK, 0, STACK
        ARGFRAME XSTACK, 10, STACK
        ARGFRAME IOVERLAY, 0, STATIC
        ARGFRAME DOVERLAY, 0, STATIC
        FUNCALL ZDO_LeaveCnf, ZDApp_LeaveUpdate
        LOCFRAME ISTACK, 0, STACK
        LOCFRAME PSTACK, 0, STACK
        LOCFRAME XSTACK, 10, STACK
        LOCFRAME IOVERLAY, 0, STATIC
        LOCFRAME DOVERLAY, 0, STATIC
        ARGFRAME ISTACK, 0, STACK
        ARGFRAME PSTACK, 0, STACK
        ARGFRAME XSTACK, 10, STACK
        ARGFRAME IOVERLAY, 0, STATIC
        ARGFRAME DOVERLAY, 0, STATIC
        MOV     A,#-0xa
        LCALL   ?BANKED_ENTER_XDATA
        CFI DPH0 load(1, XDATA, add(CFA_XSP16, literal(-1)))
        CFI DPL0 load(1, XDATA, add(CFA_XSP16, literal(-2)))
        CFI ?BRET_EXT load(1, XDATA, add(CFA_XSP16, literal(-3)))
        CFI ?RET_HIGH load(1, XDATA, add(CFA_XSP16, literal(-4)))
        CFI ?RET_LOW load(1, XDATA, add(CFA_XSP16, literal(-5)))
        CFI R7 load(1, XDATA, add(CFA_XSP16, literal(-6)))
        CFI V1 load(1, XDATA, add(CFA_XSP16, literal(-7)))
        CFI V0 load(1, XDATA, add(CFA_XSP16, literal(-8)))
        CFI VB load(1, XDATA, add(CFA_XSP16, literal(-9)))
        CFI R6 load(1, XDATA, add(CFA_XSP16, literal(-10)))
        CFI CFA_SP SP+0
        CFI CFA_XSP16 add(XSP16, 10)
        ; Saved register size: 10
        ; Auto size: 0
        MOV     ?V0 + 0,R2
        MOV     ?V0 + 1,R3
// 2208   // Check for this device
// 2209   if ( osal_ExtAddrEqual( cnf->extAddr,
// 2210                           NLME_GetExtAddr() ) == TRUE )
        MOV     A,R2
        ADD     A,#0x2
        MOV     R6,A
        MOV     A,R3
        ADDC    A,#0x0
        MOV     R7,A
        ; Setup parameters for call to function sAddrExtCmp
        ; Setup parameters for call to function NLME_GetExtAddr
        LCALL   ??NLME_GetExtAddr?relay
        MOV     A,R2
        MOV     R4,A
        MOV     A,R3
        MOV     R5,A
        MOV     A,R6
        MOV     R2,A
        MOV     A,R7
        MOV     R3,A
        LCALL   ??sAddrExtCmp?relay
        MOV     A,R1
        XRL     A,#0x1
        JNZ     ??ZDO_LeaveCnf_0
// 2211   {
// 2212     // Prepare to leave with reset
// 2213     ZDApp_LeaveReset( cnf->rejoin );
        ; Setup parameters for call to function ZDApp_LeaveReset
        MOV     A,?V0 + 0
        ADD     A,#0xb
        MOV     DPL,A
        MOV     A,?V0 + 1
        LCALL   ??Subroutine33_0 & 0xFFFF
// 2214   }
??CrossCallReturnLabel_68:
        MOV     R1,A
        LCALL   ??ZDApp_LeaveReset?relay
        SJMP    ??ZDO_LeaveCnf_1
// 2215   else if ( ZSTACK_ROUTER_BUILD )
??ZDO_LeaveCnf_0:
        MOV     DPTR,#zgDeviceLogicalType
        MOVX    A,@DPTR
        JZ      ??ZDO_LeaveCnf_2
        XRL     A,#0x1
        JNZ     ??ZDO_LeaveCnf_1
// 2216   {
// 2217     // Remove device address(optionally descendents) from data
// 2218     ZDApp_LeaveUpdate( cnf->dstAddr,
// 2219                        cnf->extAddr,
// 2220                        cnf->removeChildren );
??ZDO_LeaveCnf_2:
        ; Setup parameters for call to function ZDApp_LeaveUpdate
        MOV     DPL,?V0 + 0
        MOV     DPH,?V0 + 1
        INC     DPTR
        INC     DPTR
        INC     DPTR
        INC     DPTR
        INC     DPTR
        INC     DPTR
        INC     DPTR
        INC     DPTR
        INC     DPTR
        INC     DPTR
        MOVX    A,@DPTR
        MOV     R1,A
        MOV     A,R6
        MOV     R4,A
        MOV     A,R7
        MOV     R5,A
        MOV     DPL,?V0 + 0
        MOV     DPH,?V0 + 1
        LCALL   ?Subroutine13 & 0xFFFF
// 2221   }
??CrossCallReturnLabel_16:
        LCALL   ??ZDApp_LeaveUpdate?relay
// 2222 }
??ZDO_LeaveCnf_1:
        LJMP    ??Subroutine35_0 & 0xFFFF
        CFI EndBlock cfiBlock136

        RSEG BANKED_CODE:CODE:NOROOT(0)
?Subroutine13:
        CFI Block cfiCond137 Using cfiCommon0
        CFI NoFunction
        CFI Conditional ??CrossCallReturnLabel_12
        CFI DPL0 Frame(CFA_SP, 4)
        CFI DPH0 Frame(CFA_SP, 5)
        CFI CFA_SP SP+-5
        CFI Block cfiCond138 Using cfiCommon0
        CFI (cfiCond138) NoFunction
        CFI (cfiCond138) Conditional ??CrossCallReturnLabel_13
        CFI (cfiCond138) R6 load(1, XDATA, add(CFA_XSP16, literal(-10)))
        CFI (cfiCond138) VB load(1, XDATA, add(CFA_XSP16, literal(-9)))
        CFI (cfiCond138) V0 load(1, XDATA, add(CFA_XSP16, literal(-8)))
        CFI (cfiCond138) V1 load(1, XDATA, add(CFA_XSP16, literal(-7)))
        CFI (cfiCond138) R7 load(1, XDATA, add(CFA_XSP16, literal(-6)))
        CFI (cfiCond138) ?RET_LOW load(1, XDATA, add(CFA_XSP16, literal(-5)))
        CFI (cfiCond138) ?RET_HIGH load(1, XDATA, add(CFA_XSP16, literal(-4)))
        CFI (cfiCond138) ?BRET_EXT load(1, XDATA, add(CFA_XSP16, literal(-3)))
        CFI (cfiCond138) DPL0 load(1, XDATA, add(CFA_XSP16, literal(-2)))
        CFI (cfiCond138) DPH0 load(1, XDATA, add(CFA_XSP16, literal(-1)))
        CFI (cfiCond138) CFA_SP SP+0
        CFI (cfiCond138) CFA_XSP16 add(XSP16, 54)
        CFI Block cfiCond139 Using cfiCommon0
        CFI (cfiCond139) NoFunction
        CFI (cfiCond139) Conditional ??CrossCallReturnLabel_14
        CFI (cfiCond139) R6 load(1, XDATA, add(CFA_XSP16, literal(-10)))
        CFI (cfiCond139) VB load(1, XDATA, add(CFA_XSP16, literal(-9)))
        CFI (cfiCond139) V0 load(1, XDATA, add(CFA_XSP16, literal(-8)))
        CFI (cfiCond139) V1 load(1, XDATA, add(CFA_XSP16, literal(-7)))
        CFI (cfiCond139) R7 load(1, XDATA, add(CFA_XSP16, literal(-6)))
        CFI (cfiCond139) ?RET_LOW load(1, XDATA, add(CFA_XSP16, literal(-5)))
        CFI (cfiCond139) ?RET_HIGH load(1, XDATA, add(CFA_XSP16, literal(-4)))
        CFI (cfiCond139) ?BRET_EXT load(1, XDATA, add(CFA_XSP16, literal(-3)))
        CFI (cfiCond139) DPL0 load(1, XDATA, add(CFA_XSP16, literal(-2)))
        CFI (cfiCond139) DPH0 load(1, XDATA, add(CFA_XSP16, literal(-1)))
        CFI (cfiCond139) CFA_SP SP+0
        CFI (cfiCond139) CFA_XSP16 add(XSP16, 54)
        CFI Block cfiCond140 Using cfiCommon0
        CFI (cfiCond140) NoFunction
        CFI (cfiCond140) Conditional ??CrossCallReturnLabel_15
        CFI (cfiCond140) R6 load(1, XDATA, add(CFA_XSP16, literal(-10)))
        CFI (cfiCond140) VB load(1, XDATA, add(CFA_XSP16, literal(-9)))
        CFI (cfiCond140) V0 load(1, XDATA, add(CFA_XSP16, literal(-8)))
        CFI (cfiCond140) V1 load(1, XDATA, add(CFA_XSP16, literal(-7)))
        CFI (cfiCond140) R7 load(1, XDATA, add(CFA_XSP16, literal(-6)))
        CFI (cfiCond140) ?RET_LOW load(1, XDATA, add(CFA_XSP16, literal(-5)))
        CFI (cfiCond140) ?RET_HIGH load(1, XDATA, add(CFA_XSP16, literal(-4)))
        CFI (cfiCond140) ?BRET_EXT load(1, XDATA, add(CFA_XSP16, literal(-3)))
        CFI (cfiCond140) DPL0 load(1, XDATA, add(CFA_XSP16, literal(-2)))
        CFI (cfiCond140) DPH0 load(1, XDATA, add(CFA_XSP16, literal(-1)))
        CFI (cfiCond140) CFA_SP SP+0
        CFI (cfiCond140) CFA_XSP16 add(XSP16, 54)
        CFI Block cfiCond141 Using cfiCommon0
        CFI (cfiCond141) NoFunction
        CFI (cfiCond141) Conditional ??CrossCallReturnLabel_16
        CFI (cfiCond141) R6 load(1, XDATA, add(CFA_XSP16, literal(-10)))
        CFI (cfiCond141) VB load(1, XDATA, add(CFA_XSP16, literal(-9)))
        CFI (cfiCond141) V0 load(1, XDATA, add(CFA_XSP16, literal(-8)))
        CFI (cfiCond141) V1 load(1, XDATA, add(CFA_XSP16, literal(-7)))
        CFI (cfiCond141) R7 load(1, XDATA, add(CFA_XSP16, literal(-6)))
        CFI (cfiCond141) ?RET_LOW load(1, XDATA, add(CFA_XSP16, literal(-5)))
        CFI (cfiCond141) ?RET_HIGH load(1, XDATA, add(CFA_XSP16, literal(-4)))
        CFI (cfiCond141) ?BRET_EXT load(1, XDATA, add(CFA_XSP16, literal(-3)))
        CFI (cfiCond141) DPL0 load(1, XDATA, add(CFA_XSP16, literal(-2)))
        CFI (cfiCond141) DPH0 load(1, XDATA, add(CFA_XSP16, literal(-1)))
        CFI (cfiCond141) CFA_SP SP+0
        CFI (cfiCond141) CFA_XSP16 add(XSP16, 10)
        CFI Block cfiCond142 Using cfiCommon0
        CFI (cfiCond142) NoFunction
        CFI (cfiCond142) Conditional ??CrossCallReturnLabel_17
        CFI (cfiCond142) R6 load(1, XDATA, add(CFA_XSP16, literal(-14)))
        CFI (cfiCond142) VB load(1, XDATA, add(CFA_XSP16, literal(-13)))
        CFI (cfiCond142) V0 load(1, XDATA, add(CFA_XSP16, literal(-12)))
        CFI (cfiCond142) V1 load(1, XDATA, add(CFA_XSP16, literal(-11)))
        CFI (cfiCond142) V2 load(1, XDATA, add(CFA_XSP16, literal(-10)))
        CFI (cfiCond142) V3 load(1, XDATA, add(CFA_XSP16, literal(-9)))
        CFI (cfiCond142) V4 load(1, XDATA, add(CFA_XSP16, literal(-8)))
        CFI (cfiCond142) V5 load(1, XDATA, add(CFA_XSP16, literal(-7)))
        CFI (cfiCond142) R7 load(1, XDATA, add(CFA_XSP16, literal(-6)))
        CFI (cfiCond142) ?RET_LOW load(1, XDATA, add(CFA_XSP16, literal(-5)))
        CFI (cfiCond142) ?RET_HIGH load(1, XDATA, add(CFA_XSP16, literal(-4)))
        CFI (cfiCond142) ?BRET_EXT load(1, XDATA, add(CFA_XSP16, literal(-3)))
        CFI (cfiCond142) DPL0 load(1, XDATA, add(CFA_XSP16, literal(-2)))
        CFI (cfiCond142) DPH0 load(1, XDATA, add(CFA_XSP16, literal(-1)))
        CFI (cfiCond142) CFA_SP SP+0
        CFI (cfiCond142) CFA_XSP16 add(XSP16, 16)
        CFI Block cfiPicker143 Using cfiCommon1
        CFI (cfiPicker143) NoFunction
        CFI (cfiPicker143) Picker
        MOVX    A,@DPTR
        MOV     R2,A
        INC     DPTR
        MOVX    A,@DPTR
        MOV     R3,A
        RET
        CFI EndBlock cfiCond137
        CFI EndBlock cfiCond138
        CFI EndBlock cfiCond139
        CFI EndBlock cfiCond140
        CFI EndBlock cfiCond141
        CFI EndBlock cfiCond142
        CFI EndBlock cfiPicker143
// 2223 
// 2224 /*********************************************************************
// 2225  * @fn          ZDO_LeaveInd
// 2226  *
// 2227  * @brief       This function allows the next higher layer of a
// 2228  *              device to be notified of a remote leave request or
// 2229  *              indication.
// 2230  *
// 2231  * @param       ind - NLME_LeaveInd_t
// 2232  *
// 2233  * @return      none
// 2234  */

        RSEG BANKED_CODE:CODE:NOROOT(0)
// 2235 void ZDO_LeaveInd( NLME_LeaveInd_t* ind )
ZDO_LeaveInd:
        CFI Block cfiBlock144 Using cfiCommon0
        CFI Function ZDO_LeaveInd
        CODE
// 2236 {
        FUNCALL ZDO_LeaveInd, NLME_LeaveRsp
        LOCFRAME ISTACK, 0, STACK
        LOCFRAME PSTACK, 0, STACK
        LOCFRAME XSTACK, 16, STACK
        LOCFRAME IOVERLAY, 0, STATIC
        LOCFRAME DOVERLAY, 0, STATIC
        ARGFRAME ISTACK, 0, STACK
        ARGFRAME PSTACK, 0, STACK
        ARGFRAME XSTACK, 16, STACK
        ARGFRAME IOVERLAY, 0, STATIC
        ARGFRAME DOVERLAY, 0, STATIC
        FUNCALL ZDO_LeaveInd, ZDApp_LeaveReset
        LOCFRAME ISTACK, 0, STACK
        LOCFRAME PSTACK, 0, STACK
        LOCFRAME XSTACK, 16, STACK
        LOCFRAME IOVERLAY, 0, STATIC
        LOCFRAME DOVERLAY, 0, STATIC
        ARGFRAME ISTACK, 0, STACK
        ARGFRAME PSTACK, 0, STACK
        ARGFRAME XSTACK, 16, STACK
        ARGFRAME IOVERLAY, 0, STATIC
        ARGFRAME DOVERLAY, 0, STATIC
        FUNCALL ZDO_LeaveInd, NLME_GetCoordShortAddr
        LOCFRAME ISTACK, 0, STACK
        LOCFRAME PSTACK, 0, STACK
        LOCFRAME XSTACK, 16, STACK
        LOCFRAME IOVERLAY, 0, STATIC
        LOCFRAME DOVERLAY, 0, STATIC
        ARGFRAME ISTACK, 0, STACK
        ARGFRAME PSTACK, 0, STACK
        ARGFRAME XSTACK, 16, STACK
        ARGFRAME IOVERLAY, 0, STATIC
        ARGFRAME DOVERLAY, 0, STATIC
        FUNCALL ZDO_LeaveInd, ZDApp_LeaveUpdate
        LOCFRAME ISTACK, 0, STACK
        LOCFRAME PSTACK, 0, STACK
        LOCFRAME XSTACK, 16, STACK
        LOCFRAME IOVERLAY, 0, STATIC
        LOCFRAME DOVERLAY, 0, STATIC
        ARGFRAME ISTACK, 0, STACK
        ARGFRAME PSTACK, 0, STACK
        ARGFRAME XSTACK, 16, STACK
        ARGFRAME IOVERLAY, 0, STATIC
        ARGFRAME DOVERLAY, 0, STATIC
        MOV     A,#-0xe
        LCALL   ?BANKED_ENTER_XDATA
        CFI DPH0 load(1, XDATA, add(CFA_XSP16, literal(-1)))
        CFI DPL0 load(1, XDATA, add(CFA_XSP16, literal(-2)))
        CFI ?BRET_EXT load(1, XDATA, add(CFA_XSP16, literal(-3)))
        CFI ?RET_HIGH load(1, XDATA, add(CFA_XSP16, literal(-4)))
        CFI ?RET_LOW load(1, XDATA, add(CFA_XSP16, literal(-5)))
        CFI R7 load(1, XDATA, add(CFA_XSP16, literal(-6)))
        CFI V5 load(1, XDATA, add(CFA_XSP16, literal(-7)))
        CFI V4 load(1, XDATA, add(CFA_XSP16, literal(-8)))
        CFI V3 load(1, XDATA, add(CFA_XSP16, literal(-9)))
        CFI V2 load(1, XDATA, add(CFA_XSP16, literal(-10)))
        CFI V1 load(1, XDATA, add(CFA_XSP16, literal(-11)))
        CFI V0 load(1, XDATA, add(CFA_XSP16, literal(-12)))
        CFI VB load(1, XDATA, add(CFA_XSP16, literal(-13)))
        CFI R6 load(1, XDATA, add(CFA_XSP16, literal(-14)))
        CFI CFA_SP SP+0
        CFI CFA_XSP16 add(XSP16, 14)
        ; Saved register size: 14
        ; Auto size: 2
        MOV     A,#-0x2
        LCALL   ?ALLOC_XSTACK8
        CFI CFA_XSP16 add(XSP16, 16)
        MOV     A,R2
        MOV     R6,A
        MOV     A,R3
        MOV     R7,A
// 2237   uint8 leave;
// 2238 
// 2239 
// 2240   // Parent is requesting the leave - NWK layer filters out illegal
// 2241   // requests
// 2242   if ( ind->request == TRUE )
        MOV     A,R6
        ADD     A,#0xb
        LCALL   ?Subroutine21 & 0xFFFF
??CrossCallReturnLabel_35:
        ADD     A,#0xc
        INC     R0
        MOV     A,R7
        ADDC    A,#0x0
        MOV     R1,A
        MOV     ?V0 + 2,R0
        MOV     ?V0 + 3,R1
        MOV     DPL,R6
        MOV     DPH,R7
        INC     DPTR
        INC     DPTR
        INC     DPTR
        INC     DPTR
        INC     DPTR
        INC     DPTR
        INC     DPTR
        INC     DPTR
        INC     DPTR
        INC     DPTR
        MOVX    A,@DPTR
        XRL     A,#0x1
        JNZ     ??ZDO_LeaveInd_0
// 2243   {
// 2244     // Notify network of leave
// 2245     if ( ZSTACK_ROUTER_BUILD )
        MOV     DPTR,#zgDeviceLogicalType
        MOVX    A,@DPTR
        JZ      ??ZDO_LeaveInd_1
        XRL     A,#0x1
        JNZ     ??ZDO_LeaveInd_2
// 2246     {
// 2247       NLME_LeaveRsp_t rsp;
// 2248       rsp.rejoin         = ind->rejoin;
??ZDO_LeaveInd_1:
        MOV     DPL,R0
        MOV     DPH,R1
        MOVX    A,@DPTR
        PUSH    A
        CFI CFA_SP SP+-1
        MOV     A,#0x1
        LCALL   ?XSTACK_DISP0_8
        POP     A
        CFI CFA_SP SP+0
        LCALL   ?Subroutine9 & 0xFFFF
// 2249       rsp.removeChildren = ind->removeChildren;
??CrossCallReturnLabel_7:
        MOV     DPL,?XSP + 0
        MOV     DPH,?XSP + 1
        MOVX    @DPTR,A
// 2250       NLME_LeaveRsp( &rsp );
        ; Setup parameters for call to function NLME_LeaveRsp
        MOV     R2,DPL
        MOV     R3,DPH
        LCALL   ??NLME_LeaveRsp?relay
// 2251     }
// 2252 
// 2253     // Prepare to leave with reset
// 2254     ZDApp_LeaveReset( ind->rejoin );
??ZDO_LeaveInd_2:
        ; Setup parameters for call to function ZDApp_LeaveReset
        MOV     DPL,?V0 + 2
        MOV     DPH,?V0 + 3
        MOVX    A,@DPTR
        MOV     R1,A
        LCALL   ??ZDApp_LeaveReset?relay
        SJMP    ??ZDO_LeaveInd_3
// 2255   }
// 2256   else
// 2257   {
// 2258     leave = FALSE;
// 2259 
// 2260     // Check if this device needs to leave as a child or descendent
// 2261     if ( ind->srcAddr == NLME_GetCoordShortAddr() )
??ZDO_LeaveInd_0:
        ; Setup parameters for call to function NLME_GetCoordShortAddr
        LCALL   ??NLME_GetCoordShortAddr?relay
        MOV     ?V0 + 4,R2
        MOV     ?V0 + 5,R3
        MOV     DPL,?V0 + 0
        MOV     DPH,?V0 + 1
        MOVX    A,@DPTR
        MOV     R1,A
        MOV     DPL,R6
        MOV     DPH,R7
        LCALL   ?Subroutine13 & 0xFFFF
??CrossCallReturnLabel_17:
        MOV     A,?V0 + 4
        XRL     A,R2
        JNZ     ??ZDO_LeaveInd_4
        MOV     A,?V0 + 5
        XRL     A,R3
??ZDO_LeaveInd_4:
        JNZ     ??ZDO_LeaveInd_5
// 2262     {
// 2263       if ( ( ind->removeChildren == TRUE               ) ||
// 2264            ( ZDO_Config_Node_Descriptor.LogicalType ==
// 2265              NODETYPE_DEVICE                           )    )
        MOV     A,#0x1
        XRL     A,R1
        JZ      ??ZDO_LeaveInd_2
        LCALL   ?Subroutine14 & 0xFFFF
// 2266       {
// 2267         leave = TRUE;
// 2268       }
// 2269     }
??CrossCallReturnLabel_22:
        JZ      ??ZDO_LeaveInd_2
// 2270     else if ( ind->removeChildren == TRUE )
// 2271     {
// 2272       // Check NWK address allocation algorithm
// 2273       //leave = RTG_ANCESTOR(nwkAddr,thisAddr);
// 2274     }
// 2275 
// 2276     if ( leave == TRUE )
// 2277     {
// 2278       // Prepare to leave with reset
// 2279       ZDApp_LeaveReset( ind->rejoin );
// 2280     }
// 2281     else
// 2282     {
// 2283       // Remove device address(optionally descendents) from data
// 2284       ZDApp_LeaveUpdate( ind->srcAddr,
// 2285                          ind->extAddr,
// 2286                          ind->removeChildren );
??ZDO_LeaveInd_5:
        ; Setup parameters for call to function ZDApp_LeaveUpdate
        MOV     A,R6
        ADD     A,#0x2
        MOV     R4,A
        MOV     A,R7
        ADDC    A,#0x0
        MOV     R5,A
        LCALL   ??ZDApp_LeaveUpdate?relay
// 2287     }
// 2288   }
// 2289 }
??ZDO_LeaveInd_3:
        MOV     A,#0x2
        LCALL   ?DEALLOC_XSTACK8
        CFI CFA_XSP16 add(XSP16, 14)
        MOV     R7,#0x6
        LJMP    ?BANKED_LEAVE_XDATA
        CFI EndBlock cfiBlock144

        RSEG BANKED_CODE:CODE:NOROOT(0)
?Subroutine21:
        CFI Block cfiCond145 Using cfiCommon0
        CFI NoFunction
        CFI Conditional ??CrossCallReturnLabel_34
        CFI R6 load(1, XDATA, add(CFA_XSP16, literal(-15)))
        CFI VB load(1, XDATA, add(CFA_XSP16, literal(-14)))
        CFI V0 load(1, XDATA, add(CFA_XSP16, literal(-13)))
        CFI V1 load(1, XDATA, add(CFA_XSP16, literal(-12)))
        CFI V2 load(1, XDATA, add(CFA_XSP16, literal(-11)))
        CFI V3 load(1, XDATA, add(CFA_XSP16, literal(-10)))
        CFI V4 load(1, XDATA, add(CFA_XSP16, literal(-9)))
        CFI V5 load(1, XDATA, add(CFA_XSP16, literal(-8)))
        CFI V6 load(1, XDATA, add(CFA_XSP16, literal(-7)))
        CFI R7 load(1, XDATA, add(CFA_XSP16, literal(-6)))
        CFI ?RET_LOW load(1, XDATA, add(CFA_XSP16, literal(-5)))
        CFI ?RET_HIGH load(1, XDATA, add(CFA_XSP16, literal(-4)))
        CFI ?BRET_EXT load(1, XDATA, add(CFA_XSP16, literal(-3)))
        CFI DPL0 load(1, XDATA, add(CFA_XSP16, literal(-2)))
        CFI DPH0 load(1, XDATA, add(CFA_XSP16, literal(-1)))
        CFI CFA_SP SP+0
        CFI CFA_XSP16 add(XSP16, 16)
        CFI Block cfiCond146 Using cfiCommon0
        CFI (cfiCond146) NoFunction
        CFI (cfiCond146) Conditional ??CrossCallReturnLabel_35
        CFI (cfiCond146) R6 load(1, XDATA, add(CFA_XSP16, literal(-14)))
        CFI (cfiCond146) VB load(1, XDATA, add(CFA_XSP16, literal(-13)))
        CFI (cfiCond146) V0 load(1, XDATA, add(CFA_XSP16, literal(-12)))
        CFI (cfiCond146) V1 load(1, XDATA, add(CFA_XSP16, literal(-11)))
        CFI (cfiCond146) V2 load(1, XDATA, add(CFA_XSP16, literal(-10)))
        CFI (cfiCond146) V3 load(1, XDATA, add(CFA_XSP16, literal(-9)))
        CFI (cfiCond146) V4 load(1, XDATA, add(CFA_XSP16, literal(-8)))
        CFI (cfiCond146) V5 load(1, XDATA, add(CFA_XSP16, literal(-7)))
        CFI (cfiCond146) R7 load(1, XDATA, add(CFA_XSP16, literal(-6)))
        CFI (cfiCond146) ?RET_LOW load(1, XDATA, add(CFA_XSP16, literal(-5)))
        CFI (cfiCond146) ?RET_HIGH load(1, XDATA, add(CFA_XSP16, literal(-4)))
        CFI (cfiCond146) ?BRET_EXT load(1, XDATA, add(CFA_XSP16, literal(-3)))
        CFI (cfiCond146) DPL0 load(1, XDATA, add(CFA_XSP16, literal(-2)))
        CFI (cfiCond146) DPH0 load(1, XDATA, add(CFA_XSP16, literal(-1)))
        CFI (cfiCond146) CFA_SP SP+0
        CFI (cfiCond146) CFA_XSP16 add(XSP16, 16)
        CFI Block cfiPicker147 Using cfiCommon1
        CFI (cfiPicker147) NoFunction
        CFI (cfiPicker147) Picker
        MOV     R0,A
        MOV     A,R7
        ADDC    A,#0x0
        MOV     R1,A
        MOV     ?V0 + 0,R0
        MOV     ?V0 + 1,R1
        MOV     A,R6
        RET
        CFI EndBlock cfiCond145
        CFI EndBlock cfiCond146
        CFI EndBlock cfiPicker147

        RSEG BANKED_CODE:CODE:NOROOT(0)
?Subroutine9:
        CFI Block cfiCond148 Using cfiCommon0
        CFI NoFunction
        CFI Conditional ??CrossCallReturnLabel_6
        CFI R6 load(1, XDATA, add(CFA_XSP16, literal(-18)))
        CFI VB load(1, XDATA, add(CFA_XSP16, literal(-17)))
        CFI V0 load(1, XDATA, add(CFA_XSP16, literal(-16)))
        CFI V1 load(1, XDATA, add(CFA_XSP16, literal(-15)))
        CFI V2 load(1, XDATA, add(CFA_XSP16, literal(-14)))
        CFI V3 load(1, XDATA, add(CFA_XSP16, literal(-13)))
        CFI V4 load(1, XDATA, add(CFA_XSP16, literal(-12)))
        CFI V5 load(1, XDATA, add(CFA_XSP16, literal(-11)))
        CFI V6 load(1, XDATA, add(CFA_XSP16, literal(-10)))
        CFI V7 load(1, XDATA, add(CFA_XSP16, literal(-9)))
        CFI V8 load(1, XDATA, add(CFA_XSP16, literal(-8)))
        CFI V9 load(1, XDATA, add(CFA_XSP16, literal(-7)))
        CFI R7 load(1, XDATA, add(CFA_XSP16, literal(-6)))
        CFI ?RET_LOW load(1, XDATA, add(CFA_XSP16, literal(-5)))
        CFI ?RET_HIGH load(1, XDATA, add(CFA_XSP16, literal(-4)))
        CFI ?BRET_EXT load(1, XDATA, add(CFA_XSP16, literal(-3)))
        CFI DPL0 load(1, XDATA, add(CFA_XSP16, literal(-2)))
        CFI DPH0 load(1, XDATA, add(CFA_XSP16, literal(-1)))
        CFI CFA_SP SP+0
        CFI CFA_XSP16 add(XSP16, 32)
        CFI Block cfiCond149 Using cfiCommon0
        CFI (cfiCond149) NoFunction
        CFI (cfiCond149) Conditional ??CrossCallReturnLabel_7
        CFI (cfiCond149) R6 load(1, XDATA, add(CFA_XSP16, literal(-14)))
        CFI (cfiCond149) VB load(1, XDATA, add(CFA_XSP16, literal(-13)))
        CFI (cfiCond149) V0 load(1, XDATA, add(CFA_XSP16, literal(-12)))
        CFI (cfiCond149) V1 load(1, XDATA, add(CFA_XSP16, literal(-11)))
        CFI (cfiCond149) V2 load(1, XDATA, add(CFA_XSP16, literal(-10)))
        CFI (cfiCond149) V3 load(1, XDATA, add(CFA_XSP16, literal(-9)))
        CFI (cfiCond149) V4 load(1, XDATA, add(CFA_XSP16, literal(-8)))
        CFI (cfiCond149) V5 load(1, XDATA, add(CFA_XSP16, literal(-7)))
        CFI (cfiCond149) R7 load(1, XDATA, add(CFA_XSP16, literal(-6)))
        CFI (cfiCond149) ?RET_LOW load(1, XDATA, add(CFA_XSP16, literal(-5)))
        CFI (cfiCond149) ?RET_HIGH load(1, XDATA, add(CFA_XSP16, literal(-4)))
        CFI (cfiCond149) ?BRET_EXT load(1, XDATA, add(CFA_XSP16, literal(-3)))
        CFI (cfiCond149) DPL0 load(1, XDATA, add(CFA_XSP16, literal(-2)))
        CFI (cfiCond149) DPH0 load(1, XDATA, add(CFA_XSP16, literal(-1)))
        CFI (cfiCond149) CFA_SP SP+0
        CFI (cfiCond149) CFA_XSP16 add(XSP16, 16)
        CFI Block cfiPicker150 Using cfiCommon1
        CFI (cfiPicker150) NoFunction
        CFI (cfiPicker150) Picker
        MOVX    @DPTR,A
        MOV     DPL,?V0 + 0
        MOV     DPH,?V0 + 1
        MOVX    A,@DPTR
        RET
        CFI EndBlock cfiCond148
        CFI EndBlock cfiCond149
        CFI EndBlock cfiPicker150
// 2290 
// 2291 /*********************************************************************
// 2292  * @fn          ZDO_SyncIndicationCB
// 2293  *
// 2294  * @brief       This function allows the next higher layer of a
// 2295  *              coordinator to be notified of a loss of synchronization
// 2296  *                          with the parent/child device.
// 2297  *
// 2298  * @param       type: 0 - child; 1 - parent
// 2299  *
// 2300  *
// 2301  * @return      none
// 2302  */

        RSEG BANKED_CODE:CODE:NOROOT(0)
// 2303 void ZDO_SyncIndicationCB( uint8 type, uint16 shortAddr )
ZDO_SyncIndicationCB:
        CFI Block cfiBlock151 Using cfiCommon0
        CFI Function ZDO_SyncIndicationCB
        CODE
// 2304 {
        FUNCALL ZDO_SyncIndicationCB, nwkNeighborInitTable
        LOCFRAME ISTACK, 0, STACK
        LOCFRAME PSTACK, 0, STACK
        LOCFRAME XSTACK, 9, STACK
        LOCFRAME IOVERLAY, 0, STATIC
        LOCFRAME DOVERLAY, 0, STATIC
        ARGFRAME ISTACK, 0, STACK
        ARGFRAME PSTACK, 0, STACK
        ARGFRAME XSTACK, 9, STACK
        ARGFRAME IOVERLAY, 0, STATIC
        ARGFRAME DOVERLAY, 0, STATIC
        FUNCALL ZDO_SyncIndicationCB, ZDApp_SendMsg
        LOCFRAME ISTACK, 0, STACK
        LOCFRAME PSTACK, 0, STACK
        LOCFRAME XSTACK, 9, STACK
        LOCFRAME IOVERLAY, 0, STATIC
        LOCFRAME DOVERLAY, 0, STATIC
        ARGFRAME ISTACK, 0, STACK
        ARGFRAME PSTACK, 0, STACK
        ARGFRAME XSTACK, 9, STACK
        ARGFRAME IOVERLAY, 0, STATIC
        ARGFRAME DOVERLAY, 0, STATIC
        MOV     A,#-0x9
        LCALL   ?BANKED_ENTER_XDATA
        CFI DPH0 load(1, XDATA, add(CFA_XSP16, literal(-1)))
        CFI DPL0 load(1, XDATA, add(CFA_XSP16, literal(-2)))
        CFI ?BRET_EXT load(1, XDATA, add(CFA_XSP16, literal(-3)))
        CFI ?RET_HIGH load(1, XDATA, add(CFA_XSP16, literal(-4)))
        CFI ?RET_LOW load(1, XDATA, add(CFA_XSP16, literal(-5)))
        CFI R7 load(1, XDATA, add(CFA_XSP16, literal(-6)))
        CFI V0 load(1, XDATA, add(CFA_XSP16, literal(-7)))
        CFI VB load(1, XDATA, add(CFA_XSP16, literal(-8)))
        CFI R6 load(1, XDATA, add(CFA_XSP16, literal(-9)))
        CFI CFA_SP SP+0
        CFI CFA_XSP16 add(XSP16, 9)
        ; Saved register size: 9
        ; Auto size: 0
        MOV     A,R1
        MOV     R6,A
// 2305   (void)shortAddr;  // Remove this line if this parameter is used.
// 2306   
// 2307   if ( ZSTACK_END_DEVICE_BUILD
// 2308     || (ZSTACK_ROUTER_BUILD && ((_NIB.CapabilityInfo & ZMAC_ASSOC_CAPINFO_FFD_TYPE) == 0)))
        MOV     DPTR,#zgDeviceLogicalType
        MOVX    A,@DPTR
        XRL     A,#0x2
        JZ      ??ZDO_SyncIndicationCB_0
        MOVX    A,@DPTR
        JZ      ??ZDO_SyncIndicationCB_1
        XRL     A,#0x1
        JNZ     ??CrossCallReturnLabel_25
??ZDO_SyncIndicationCB_1:
        MOV     DPTR,#_NIB + 14
        MOVX    A,@DPTR
        MOV     C,0xE0 /* A   */.1
        JC      ??CrossCallReturnLabel_25
// 2309   {
// 2310     if ( type == 1 )
??ZDO_SyncIndicationCB_0:
        MOV     A,#0x1
        XRL     A,R6
        JNZ     ??CrossCallReturnLabel_25
// 2311     {
// 2312       // We lost contact with our parent.  Clear the neighbor Table.
// 2313       nwkNeighborInitTable();
        ; Setup parameters for call to function nwkNeighborInitTable
        LCALL   ??nwkNeighborInitTable?relay
// 2314       
// 2315       // Start the rejoin process.
// 2316       ZDApp_SendMsg( ZDAppTaskID, ZDO_NWK_JOIN_REQ, sizeof(osal_event_hdr_t), NULL );
        ; Setup parameters for call to function ZDApp_SendMsg
        MOV     R4,#0x0
        MOV     R5,#0x0
        MOV     R3,#0x2
        MOV     R2,#0x3
        LCALL   ?Subroutine16 & 0xFFFF
// 2317     }
// 2318   }
// 2319 }
??CrossCallReturnLabel_25:
        LJMP    ??Subroutine31_0 & 0xFFFF
        CFI EndBlock cfiBlock151
// 2320 
// 2321 /*********************************************************************
// 2322  * @fn          ZDO_ManytoOneFailureIndicationCB
// 2323  *
// 2324  * @brief       This function allows the next higher layer of a
// 2325  *              concentrator to be notified of a many-to-one route 
// 2326  *              failure. 
// 2327  *
// 2328  * @param       none
// 2329  *
// 2330  *
// 2331  * @return      none
// 2332  */

        RSEG BANKED_CODE:CODE:NOROOT(0)
// 2333 void ZDO_ManytoOneFailureIndicationCB()
ZDO_ManytoOneFailureIndicationCB:
        CFI Block cfiBlock152 Using cfiCommon0
        CFI Function ZDO_ManytoOneFailureIndicationCB
        CODE
// 2334 {
        FUNCALL ZDO_ManytoOneFailureIndicationCB, RTG_MTORouteReq
        LOCFRAME ISTACK, 2, STACK
        LOCFRAME PSTACK, 0, STACK
        LOCFRAME XSTACK, 0, STACK
        LOCFRAME IOVERLAY, 0, STATIC
        LOCFRAME DOVERLAY, 0, STATIC
        ARGFRAME ISTACK, 2, STACK
        ARGFRAME PSTACK, 0, STACK
        ARGFRAME XSTACK, 0, STACK
        ARGFRAME IOVERLAY, 0, STATIC
        ARGFRAME DOVERLAY, 0, STATIC
        PUSH    DPL
        CFI DPL0 Frame(CFA_SP, 4)
        CFI CFA_SP SP+-4
        PUSH    DPH
        CFI DPH0 Frame(CFA_SP, 5)
        CFI CFA_SP SP+-5
        ; Saved register size: 2
        ; Auto size: 0
// 2335   // By default, the concentrator automatically redo many-to-one route 
// 2336   // discovery to update all many-to-one routes in the network
// 2337   // If you want anything processing other than the default,
// 2338   // please replace the following code.
// 2339   
// 2340   RTG_MTORouteReq();
        ; Setup parameters for call to function RTG_MTORouteReq
        LCALL   ??RTG_MTORouteReq?relay
// 2341 }
        LJMP    ?Subroutine2 & 0xFFFF
        CFI EndBlock cfiBlock152
// 2342 
// 2343 
// 2344 /*********************************************************************
// 2345  * @fn          ZDO_PollConfirmCB
// 2346  *
// 2347  * @brief       This function allows the next higher layer to be
// 2348  *              notified of a Poll Confirm.
// 2349  *
// 2350  * @param       none
// 2351  *
// 2352  * @return      none
// 2353  */

        RSEG BANKED_CODE:CODE:NOROOT(0)
// 2354 void ZDO_PollConfirmCB( uint8 status )
ZDO_PollConfirmCB:
        CFI Block cfiBlock153 Using cfiCommon0
        CFI Function ZDO_PollConfirmCB
        CODE
// 2355 {
        ; Saved register size: 0
        ; Auto size: 0
// 2356   (void)status;  // Remove this line if this parameter is used.
// 2357   return;
        LJMP    ?BRET
        CFI EndBlock cfiBlock153
// 2358 }
// 2359 
// 2360 /******************************************************************************
// 2361  * @fn          ZDApp_NwkWriteNVRequest (stubs AddrMgrWriteNVRequest)
// 2362  *
// 2363  * @brief       Stub routine implemented by NHLE. NHLE should call
// 2364  *              <AddrMgrWriteNV> when appropriate.
// 2365  *
// 2366  * @param       none
// 2367  *
// 2368  * @return      none
// 2369  */

        RSEG BANKED_CODE:CODE:NOROOT(0)
// 2370 void ZDApp_NwkWriteNVRequest( void )
AddrMgrWriteNVRequest:
        CFI Block cfiBlock154 Using cfiCommon0
        CFI Function AddrMgrWriteNVRequest
        CODE
// 2371 {
        ; Saved register size: 0
        ; Auto size: 0
// 2372 #if defined ( NV_RESTORE )  
// 2373   if ( !osal_get_timeoutEx( ZDAppTaskID, ZDO_NWK_UPDATE_NV ) )
// 2374   {
// 2375     // Trigger to save info into NV
// 2376     ZDApp_NVUpdate();
// 2377   }
// 2378 #endif
// 2379 }
        LJMP    ?BRET
        CFI EndBlock cfiBlock154
// 2380 
// 2381 /*********************************************************************
// 2382  * Call Back Functions from Security  - API
// 2383  */
// 2384 
// 2385  /*********************************************************************
// 2386  * @fn          ZDO_UpdateDeviceIndication
// 2387  *
// 2388  * @brief       This function notifies the "Trust Center" of a
// 2389  *              network when a device joins or leaves the network.
// 2390  *
// 2391  * @param       extAddr - pointer to 64 bit address of new device
// 2392  * @param       status  - 0 if a new device joined securely
// 2393  *                      - 1 if a new device joined un-securely
// 2394  *                      - 2 if a device left the network
// 2395  *
// 2396  * @return      true if newly joined device should be allowed to
// 2397  *                                              remain on network
// 2398  */

        RSEG BANKED_CODE:CODE:NOROOT(0)
// 2399 ZStatus_t ZDO_UpdateDeviceIndication( uint8 *extAddr, uint8 status )
ZDO_UpdateDeviceIndication:
        CFI Block cfiBlock155 Using cfiCommon0
        CFI Function ZDO_UpdateDeviceIndication
        CODE
// 2400 {
        ; Saved register size: 0
        ; Auto size: 0
// 2401   // can implement a network access policy based on the
// 2402   // IEEE address of newly joining devices...
// 2403   (void)extAddr;
// 2404   (void)status;
// 2405   
// 2406   return ZSuccess;
        LJMP    ?Subroutine3 & 0xFFFF
        CFI EndBlock cfiBlock155
// 2407 }
// 2408 
// 2409 /*********************************************************************
// 2410  * @fn          ZDApp_InMsgCB
// 2411  *
// 2412  * @brief       This function is called to pass up any message that is
// 2413  *              not yet supported.  This allows for the developer to
// 2414  *              support features themselves..
// 2415  *
// 2416  * @return      none
// 2417  */

        RSEG BANKED_CODE:CODE:NOROOT(0)
// 2418 void ZDApp_InMsgCB( zdoIncomingMsg_t *inMsg )
ZDApp_InMsgCB:
        CFI Block cfiBlock156 Using cfiCommon0
        CFI Function ZDApp_InMsgCB
        CODE
// 2419 {
        FUNCALL ZDApp_InMsgCB, ZDP_GenericRsp
        LOCFRAME ISTACK, 0, STACK
        LOCFRAME PSTACK, 0, STACK
        LOCFRAME XSTACK, 14, STACK
        LOCFRAME IOVERLAY, 0, STATIC
        LOCFRAME DOVERLAY, 0, STATIC
        ARGFRAME ISTACK, 0, STACK
        ARGFRAME PSTACK, 0, STACK
        ARGFRAME XSTACK, 14, STACK
        ARGFRAME IOVERLAY, 0, STATIC
        ARGFRAME DOVERLAY, 0, STATIC
        MOV     A,#-0xa
        LCALL   ?BANKED_ENTER_XDATA
        CFI DPH0 load(1, XDATA, add(CFA_XSP16, literal(-1)))
        CFI DPL0 load(1, XDATA, add(CFA_XSP16, literal(-2)))
        CFI ?BRET_EXT load(1, XDATA, add(CFA_XSP16, literal(-3)))
        CFI ?RET_HIGH load(1, XDATA, add(CFA_XSP16, literal(-4)))
        CFI ?RET_LOW load(1, XDATA, add(CFA_XSP16, literal(-5)))
        CFI R7 load(1, XDATA, add(CFA_XSP16, literal(-6)))
        CFI V1 load(1, XDATA, add(CFA_XSP16, literal(-7)))
        CFI V0 load(1, XDATA, add(CFA_XSP16, literal(-8)))
        CFI VB load(1, XDATA, add(CFA_XSP16, literal(-9)))
        CFI R6 load(1, XDATA, add(CFA_XSP16, literal(-10)))
        CFI CFA_SP SP+0
        CFI CFA_XSP16 add(XSP16, 10)
        ; Saved register size: 10
        ; Auto size: 0
        MOV     A,R2
        MOV     R6,A
        MOV     A,R3
        MOV     R7,A
// 2420   if ( inMsg->clusterID & ZDO_RESPONSE_BIT )
        MOV     A,R6
        ADD     A,#0xc
        LCALL   ?Subroutine22 & 0xFFFF
??CrossCallReturnLabel_37:
        MOV     R1,A
        ANL     A,#0x80
        JNZ     ??ZDApp_InMsgCB_0
// 2421   {
// 2422     // Handle the response message
// 2423   }
// 2424   else
// 2425   {
// 2426     // Handle the request message by sending a generic "not supported".
// 2427     // Device Announce doesn't have a response.
// 2428     if ( !(inMsg->wasBroadcast) && inMsg->clusterID != Device_annce )
        MOV     A,R6
        ADD     A,#0xb
        LCALL   ??Subroutine32_0 & 0xFFFF
??CrossCallReturnLabel_70:
        JNZ     ??ZDApp_InMsgCB_0
        MOV     A,#0x13
        XRL     A,R0
        JNZ     ??ZDApp_InMsgCB_1
        MOV     A,R1
??ZDApp_InMsgCB_1:
        JZ      ??ZDApp_InMsgCB_0
// 2429     {
// 2430       ZDP_GenericRsp( inMsg->TransSeq, &(inMsg->srcAddr), ZDP_NOT_SUPPORTED, 0,
// 2431                       (uint16)(inMsg->clusterID | ZDO_RESPONSE_BIT), inMsg->SecurityUse );
        ; Setup parameters for call to function ZDP_GenericRsp
        MOV     A,R0
        MOV     ?V0 + 0,A
        MOV     A,R1
        ORL     A,#0x80
        MOV     ?V0 + 1,A
        MOV     R0,#?V0 + 0
        LCALL   ?PUSH_XSTACK_I_TWO
        CFI CFA_XSP16 add(XSP16, 12)
        CLR     A
        MOV     ?V0 + 0,A
        MOV     ?V0 + 1,A
        MOV     R0,#?V0 + 0
        LCALL   ?PUSH_XSTACK_I_TWO
        CFI CFA_XSP16 add(XSP16, 14)
        MOV     A,R6
        ADD     A,#0xe
        LCALL   ??Subroutine32_0 & 0xFFFF
// 2432     }
// 2433   }
??CrossCallReturnLabel_71:
        MOV     R5,A
        MOV     R4,#-0x7c
        MOV     A,R6
        ADD     A,#0x2
        INC     R2
        INC     R2
        MOV     A,R7
        ADDC    A,#0x0
        MOV     R3,A
        LCALL   ?Subroutine23 & 0xFFFF
??CrossCallReturnLabel_73:
        MOV     R1,A
        LCALL   ??ZDP_GenericRsp?relay
        MOV     A,#0x4
        LCALL   ?DEALLOC_XSTACK8
        CFI CFA_XSP16 add(XSP16, 10)
// 2434 }
??ZDApp_InMsgCB_0:
        LJMP    ??Subroutine35_0 & 0xFFFF
        CFI EndBlock cfiBlock156

        RSEG BANKED_CODE:CODE:NOROOT(0)
?Subroutine23:
        CFI Block cfiCond157 Using cfiCommon0
        CFI NoFunction
        CFI Conditional ??CrossCallReturnLabel_72
        CFI R6 load(1, XDATA, add(CFA_XSP16, literal(-10)))
        CFI VB load(1, XDATA, add(CFA_XSP16, literal(-9)))
        CFI V0 load(1, XDATA, add(CFA_XSP16, literal(-8)))
        CFI V1 load(1, XDATA, add(CFA_XSP16, literal(-7)))
        CFI R7 load(1, XDATA, add(CFA_XSP16, literal(-6)))
        CFI ?RET_LOW load(1, XDATA, add(CFA_XSP16, literal(-5)))
        CFI ?RET_HIGH load(1, XDATA, add(CFA_XSP16, literal(-4)))
        CFI ?BRET_EXT load(1, XDATA, add(CFA_XSP16, literal(-3)))
        CFI DPL0 load(1, XDATA, add(CFA_XSP16, literal(-2)))
        CFI DPH0 load(1, XDATA, add(CFA_XSP16, literal(-1)))
        CFI CFA_SP SP+0
        CFI CFA_XSP16 add(XSP16, 54)
        CFI Block cfiCond158 Using cfiCommon0
        CFI (cfiCond158) NoFunction
        CFI (cfiCond158) Conditional ??CrossCallReturnLabel_73
        CFI (cfiCond158) R6 load(1, XDATA, add(CFA_XSP16, literal(-10)))
        CFI (cfiCond158) VB load(1, XDATA, add(CFA_XSP16, literal(-9)))
        CFI (cfiCond158) V0 load(1, XDATA, add(CFA_XSP16, literal(-8)))
        CFI (cfiCond158) V1 load(1, XDATA, add(CFA_XSP16, literal(-7)))
        CFI (cfiCond158) R7 load(1, XDATA, add(CFA_XSP16, literal(-6)))
        CFI (cfiCond158) ?RET_LOW load(1, XDATA, add(CFA_XSP16, literal(-5)))
        CFI (cfiCond158) ?RET_HIGH load(1, XDATA, add(CFA_XSP16, literal(-4)))
        CFI (cfiCond158) ?BRET_EXT load(1, XDATA, add(CFA_XSP16, literal(-3)))
        CFI (cfiCond158) DPL0 load(1, XDATA, add(CFA_XSP16, literal(-2)))
        CFI (cfiCond158) DPH0 load(1, XDATA, add(CFA_XSP16, literal(-1)))
        CFI (cfiCond158) CFA_SP SP+0
        CFI (cfiCond158) CFA_XSP16 add(XSP16, 14)
        CFI Block cfiPicker159 Using cfiCommon1
        CFI (cfiPicker159) NoFunction
        CFI (cfiPicker159) Picker
        MOV     A,R6
        ADD     A,#0xf
        CFI EndBlock cfiCond157
        CFI EndBlock cfiCond158
        CFI EndBlock cfiPicker159
        REQUIRE ??Subroutine32_0
        ; // Fall through to label ??Subroutine32_0

        RSEG BANKED_CODE:CODE:NOROOT(0)
??Subroutine32_0:
        CFI Block cfiCond160 Using cfiCommon0
        CFI NoFunction
        CFI Conditional ??CrossCallReturnLabel_69
        CFI R6 load(1, XDATA, add(CFA_XSP16, literal(-18)))
        CFI VB load(1, XDATA, add(CFA_XSP16, literal(-17)))
        CFI V0 load(1, XDATA, add(CFA_XSP16, literal(-16)))
        CFI V1 load(1, XDATA, add(CFA_XSP16, literal(-15)))
        CFI V2 load(1, XDATA, add(CFA_XSP16, literal(-14)))
        CFI V3 load(1, XDATA, add(CFA_XSP16, literal(-13)))
        CFI V4 load(1, XDATA, add(CFA_XSP16, literal(-12)))
        CFI V5 load(1, XDATA, add(CFA_XSP16, literal(-11)))
        CFI V6 load(1, XDATA, add(CFA_XSP16, literal(-10)))
        CFI V7 load(1, XDATA, add(CFA_XSP16, literal(-9)))
        CFI V8 load(1, XDATA, add(CFA_XSP16, literal(-8)))
        CFI V9 load(1, XDATA, add(CFA_XSP16, literal(-7)))
        CFI R7 load(1, XDATA, add(CFA_XSP16, literal(-6)))
        CFI ?RET_LOW load(1, XDATA, add(CFA_XSP16, literal(-5)))
        CFI ?RET_HIGH load(1, XDATA, add(CFA_XSP16, literal(-4)))
        CFI ?BRET_EXT load(1, XDATA, add(CFA_XSP16, literal(-3)))
        CFI DPL0 load(1, XDATA, add(CFA_XSP16, literal(-2)))
        CFI DPH0 load(1, XDATA, add(CFA_XSP16, literal(-1)))
        CFI CFA_SP SP+0
        CFI CFA_XSP16 add(XSP16, 32)
        CFI Block cfiCond161 Using cfiCommon0
        CFI (cfiCond161) NoFunction
        CFI (cfiCond161) Conditional ??CrossCallReturnLabel_70
        CFI (cfiCond161) R6 load(1, XDATA, add(CFA_XSP16, literal(-10)))
        CFI (cfiCond161) VB load(1, XDATA, add(CFA_XSP16, literal(-9)))
        CFI (cfiCond161) V0 load(1, XDATA, add(CFA_XSP16, literal(-8)))
        CFI (cfiCond161) V1 load(1, XDATA, add(CFA_XSP16, literal(-7)))
        CFI (cfiCond161) R7 load(1, XDATA, add(CFA_XSP16, literal(-6)))
        CFI (cfiCond161) ?RET_LOW load(1, XDATA, add(CFA_XSP16, literal(-5)))
        CFI (cfiCond161) ?RET_HIGH load(1, XDATA, add(CFA_XSP16, literal(-4)))
        CFI (cfiCond161) ?BRET_EXT load(1, XDATA, add(CFA_XSP16, literal(-3)))
        CFI (cfiCond161) DPL0 load(1, XDATA, add(CFA_XSP16, literal(-2)))
        CFI (cfiCond161) DPH0 load(1, XDATA, add(CFA_XSP16, literal(-1)))
        CFI (cfiCond161) CFA_SP SP+0
        CFI (cfiCond161) CFA_XSP16 add(XSP16, 10)
        CFI Block cfiCond162 Using cfiCommon0
        CFI (cfiCond162) NoFunction
        CFI (cfiCond162) Conditional ??CrossCallReturnLabel_71
        CFI (cfiCond162) R6 load(1, XDATA, add(CFA_XSP16, literal(-10)))
        CFI (cfiCond162) VB load(1, XDATA, add(CFA_XSP16, literal(-9)))
        CFI (cfiCond162) V0 load(1, XDATA, add(CFA_XSP16, literal(-8)))
        CFI (cfiCond162) V1 load(1, XDATA, add(CFA_XSP16, literal(-7)))
        CFI (cfiCond162) R7 load(1, XDATA, add(CFA_XSP16, literal(-6)))
        CFI (cfiCond162) ?RET_LOW load(1, XDATA, add(CFA_XSP16, literal(-5)))
        CFI (cfiCond162) ?RET_HIGH load(1, XDATA, add(CFA_XSP16, literal(-4)))
        CFI (cfiCond162) ?BRET_EXT load(1, XDATA, add(CFA_XSP16, literal(-3)))
        CFI (cfiCond162) DPL0 load(1, XDATA, add(CFA_XSP16, literal(-2)))
        CFI (cfiCond162) DPH0 load(1, XDATA, add(CFA_XSP16, literal(-1)))
        CFI (cfiCond162) CFA_SP SP+0
        CFI (cfiCond162) CFA_XSP16 add(XSP16, 14)
        CFI Block cfiCond163 Using cfiCommon0
        CFI (cfiCond163) NoFunction
        CFI (cfiCond163) Conditional ??CrossCallReturnLabel_72
        CFI (cfiCond163) R6 load(1, XDATA, add(CFA_XSP16, literal(-10)))
        CFI (cfiCond163) VB load(1, XDATA, add(CFA_XSP16, literal(-9)))
        CFI (cfiCond163) V0 load(1, XDATA, add(CFA_XSP16, literal(-8)))
        CFI (cfiCond163) V1 load(1, XDATA, add(CFA_XSP16, literal(-7)))
        CFI (cfiCond163) R7 load(1, XDATA, add(CFA_XSP16, literal(-6)))
        CFI (cfiCond163) ?RET_LOW load(1, XDATA, add(CFA_XSP16, literal(-5)))
        CFI (cfiCond163) ?RET_HIGH load(1, XDATA, add(CFA_XSP16, literal(-4)))
        CFI (cfiCond163) ?BRET_EXT load(1, XDATA, add(CFA_XSP16, literal(-3)))
        CFI (cfiCond163) DPL0 load(1, XDATA, add(CFA_XSP16, literal(-2)))
        CFI (cfiCond163) DPH0 load(1, XDATA, add(CFA_XSP16, literal(-1)))
        CFI (cfiCond163) CFA_SP SP+0
        CFI (cfiCond163) CFA_XSP16 add(XSP16, 54)
        CFI Block cfiCond164 Using cfiCommon0
        CFI (cfiCond164) NoFunction
        CFI (cfiCond164) Conditional ??CrossCallReturnLabel_73
        CFI (cfiCond164) R6 load(1, XDATA, add(CFA_XSP16, literal(-10)))
        CFI (cfiCond164) VB load(1, XDATA, add(CFA_XSP16, literal(-9)))
        CFI (cfiCond164) V0 load(1, XDATA, add(CFA_XSP16, literal(-8)))
        CFI (cfiCond164) V1 load(1, XDATA, add(CFA_XSP16, literal(-7)))
        CFI (cfiCond164) R7 load(1, XDATA, add(CFA_XSP16, literal(-6)))
        CFI (cfiCond164) ?RET_LOW load(1, XDATA, add(CFA_XSP16, literal(-5)))
        CFI (cfiCond164) ?RET_HIGH load(1, XDATA, add(CFA_XSP16, literal(-4)))
        CFI (cfiCond164) ?BRET_EXT load(1, XDATA, add(CFA_XSP16, literal(-3)))
        CFI (cfiCond164) DPL0 load(1, XDATA, add(CFA_XSP16, literal(-2)))
        CFI (cfiCond164) DPH0 load(1, XDATA, add(CFA_XSP16, literal(-1)))
        CFI (cfiCond164) CFA_SP SP+0
        CFI (cfiCond164) CFA_XSP16 add(XSP16, 14)
        CFI Block cfiPicker165 Using cfiCommon1
        CFI (cfiPicker165) NoFunction
        CFI (cfiPicker165) Picker
        MOV     DPL,A
        MOV     A,R7
        CFI EndBlock cfiCond160
        CFI EndBlock cfiCond161
        CFI EndBlock cfiCond162
        CFI EndBlock cfiCond163
        CFI EndBlock cfiCond164
        CFI EndBlock cfiPicker165
        REQUIRE ??Subroutine33_0
        ; // Fall through to label ??Subroutine33_0

        RSEG BANKED_CODE:CODE:NOROOT(0)
??Subroutine33_0:
        CFI Block cfiCond166 Using cfiCommon0
        CFI NoFunction
        CFI Conditional ??CrossCallReturnLabel_68
        CFI R6 load(1, XDATA, add(CFA_XSP16, literal(-10)))
        CFI VB load(1, XDATA, add(CFA_XSP16, literal(-9)))
        CFI V0 load(1, XDATA, add(CFA_XSP16, literal(-8)))
        CFI V1 load(1, XDATA, add(CFA_XSP16, literal(-7)))
        CFI R7 load(1, XDATA, add(CFA_XSP16, literal(-6)))
        CFI ?RET_LOW load(1, XDATA, add(CFA_XSP16, literal(-5)))
        CFI ?RET_HIGH load(1, XDATA, add(CFA_XSP16, literal(-4)))
        CFI ?BRET_EXT load(1, XDATA, add(CFA_XSP16, literal(-3)))
        CFI DPL0 load(1, XDATA, add(CFA_XSP16, literal(-2)))
        CFI DPH0 load(1, XDATA, add(CFA_XSP16, literal(-1)))
        CFI CFA_SP SP+0
        CFI CFA_XSP16 add(XSP16, 10)
        CFI Block cfiCond167 Using cfiCommon0
        CFI (cfiCond167) NoFunction
        CFI (cfiCond167) Conditional ??CrossCallReturnLabel_69
        CFI (cfiCond167) R6 load(1, XDATA, add(CFA_XSP16, literal(-18)))
        CFI (cfiCond167) VB load(1, XDATA, add(CFA_XSP16, literal(-17)))
        CFI (cfiCond167) V0 load(1, XDATA, add(CFA_XSP16, literal(-16)))
        CFI (cfiCond167) V1 load(1, XDATA, add(CFA_XSP16, literal(-15)))
        CFI (cfiCond167) V2 load(1, XDATA, add(CFA_XSP16, literal(-14)))
        CFI (cfiCond167) V3 load(1, XDATA, add(CFA_XSP16, literal(-13)))
        CFI (cfiCond167) V4 load(1, XDATA, add(CFA_XSP16, literal(-12)))
        CFI (cfiCond167) V5 load(1, XDATA, add(CFA_XSP16, literal(-11)))
        CFI (cfiCond167) V6 load(1, XDATA, add(CFA_XSP16, literal(-10)))
        CFI (cfiCond167) V7 load(1, XDATA, add(CFA_XSP16, literal(-9)))
        CFI (cfiCond167) V8 load(1, XDATA, add(CFA_XSP16, literal(-8)))
        CFI (cfiCond167) V9 load(1, XDATA, add(CFA_XSP16, literal(-7)))
        CFI (cfiCond167) R7 load(1, XDATA, add(CFA_XSP16, literal(-6)))
        CFI (cfiCond167) ?RET_LOW load(1, XDATA, add(CFA_XSP16, literal(-5)))
        CFI (cfiCond167) ?RET_HIGH load(1, XDATA, add(CFA_XSP16, literal(-4)))
        CFI (cfiCond167) ?BRET_EXT load(1, XDATA, add(CFA_XSP16, literal(-3)))
        CFI (cfiCond167) DPL0 load(1, XDATA, add(CFA_XSP16, literal(-2)))
        CFI (cfiCond167) DPH0 load(1, XDATA, add(CFA_XSP16, literal(-1)))
        CFI (cfiCond167) CFA_SP SP+0
        CFI (cfiCond167) CFA_XSP16 add(XSP16, 32)
        CFI Block cfiCond168 Using cfiCommon0
        CFI (cfiCond168) NoFunction
        CFI (cfiCond168) Conditional ??CrossCallReturnLabel_70
        CFI (cfiCond168) R6 load(1, XDATA, add(CFA_XSP16, literal(-10)))
        CFI (cfiCond168) VB load(1, XDATA, add(CFA_XSP16, literal(-9)))
        CFI (cfiCond168) V0 load(1, XDATA, add(CFA_XSP16, literal(-8)))
        CFI (cfiCond168) V1 load(1, XDATA, add(CFA_XSP16, literal(-7)))
        CFI (cfiCond168) R7 load(1, XDATA, add(CFA_XSP16, literal(-6)))
        CFI (cfiCond168) ?RET_LOW load(1, XDATA, add(CFA_XSP16, literal(-5)))
        CFI (cfiCond168) ?RET_HIGH load(1, XDATA, add(CFA_XSP16, literal(-4)))
        CFI (cfiCond168) ?BRET_EXT load(1, XDATA, add(CFA_XSP16, literal(-3)))
        CFI (cfiCond168) DPL0 load(1, XDATA, add(CFA_XSP16, literal(-2)))
        CFI (cfiCond168) DPH0 load(1, XDATA, add(CFA_XSP16, literal(-1)))
        CFI (cfiCond168) CFA_SP SP+0
        CFI (cfiCond168) CFA_XSP16 add(XSP16, 10)
        CFI Block cfiCond169 Using cfiCommon0
        CFI (cfiCond169) NoFunction
        CFI (cfiCond169) Conditional ??CrossCallReturnLabel_71
        CFI (cfiCond169) R6 load(1, XDATA, add(CFA_XSP16, literal(-10)))
        CFI (cfiCond169) VB load(1, XDATA, add(CFA_XSP16, literal(-9)))
        CFI (cfiCond169) V0 load(1, XDATA, add(CFA_XSP16, literal(-8)))
        CFI (cfiCond169) V1 load(1, XDATA, add(CFA_XSP16, literal(-7)))
        CFI (cfiCond169) R7 load(1, XDATA, add(CFA_XSP16, literal(-6)))
        CFI (cfiCond169) ?RET_LOW load(1, XDATA, add(CFA_XSP16, literal(-5)))
        CFI (cfiCond169) ?RET_HIGH load(1, XDATA, add(CFA_XSP16, literal(-4)))
        CFI (cfiCond169) ?BRET_EXT load(1, XDATA, add(CFA_XSP16, literal(-3)))
        CFI (cfiCond169) DPL0 load(1, XDATA, add(CFA_XSP16, literal(-2)))
        CFI (cfiCond169) DPH0 load(1, XDATA, add(CFA_XSP16, literal(-1)))
        CFI (cfiCond169) CFA_SP SP+0
        CFI (cfiCond169) CFA_XSP16 add(XSP16, 14)
        CFI Block cfiCond170 Using cfiCommon0
        CFI (cfiCond170) NoFunction
        CFI (cfiCond170) Conditional ??CrossCallReturnLabel_72
        CFI (cfiCond170) R6 load(1, XDATA, add(CFA_XSP16, literal(-10)))
        CFI (cfiCond170) VB load(1, XDATA, add(CFA_XSP16, literal(-9)))
        CFI (cfiCond170) V0 load(1, XDATA, add(CFA_XSP16, literal(-8)))
        CFI (cfiCond170) V1 load(1, XDATA, add(CFA_XSP16, literal(-7)))
        CFI (cfiCond170) R7 load(1, XDATA, add(CFA_XSP16, literal(-6)))
        CFI (cfiCond170) ?RET_LOW load(1, XDATA, add(CFA_XSP16, literal(-5)))
        CFI (cfiCond170) ?RET_HIGH load(1, XDATA, add(CFA_XSP16, literal(-4)))
        CFI (cfiCond170) ?BRET_EXT load(1, XDATA, add(CFA_XSP16, literal(-3)))
        CFI (cfiCond170) DPL0 load(1, XDATA, add(CFA_XSP16, literal(-2)))
        CFI (cfiCond170) DPH0 load(1, XDATA, add(CFA_XSP16, literal(-1)))
        CFI (cfiCond170) CFA_SP SP+0
        CFI (cfiCond170) CFA_XSP16 add(XSP16, 54)
        CFI Block cfiCond171 Using cfiCommon0
        CFI (cfiCond171) NoFunction
        CFI (cfiCond171) Conditional ??CrossCallReturnLabel_73
        CFI (cfiCond171) R6 load(1, XDATA, add(CFA_XSP16, literal(-10)))
        CFI (cfiCond171) VB load(1, XDATA, add(CFA_XSP16, literal(-9)))
        CFI (cfiCond171) V0 load(1, XDATA, add(CFA_XSP16, literal(-8)))
        CFI (cfiCond171) V1 load(1, XDATA, add(CFA_XSP16, literal(-7)))
        CFI (cfiCond171) R7 load(1, XDATA, add(CFA_XSP16, literal(-6)))
        CFI (cfiCond171) ?RET_LOW load(1, XDATA, add(CFA_XSP16, literal(-5)))
        CFI (cfiCond171) ?RET_HIGH load(1, XDATA, add(CFA_XSP16, literal(-4)))
        CFI (cfiCond171) ?BRET_EXT load(1, XDATA, add(CFA_XSP16, literal(-3)))
        CFI (cfiCond171) DPL0 load(1, XDATA, add(CFA_XSP16, literal(-2)))
        CFI (cfiCond171) DPH0 load(1, XDATA, add(CFA_XSP16, literal(-1)))
        CFI (cfiCond171) CFA_SP SP+0
        CFI (cfiCond171) CFA_XSP16 add(XSP16, 14)
        CFI Block cfiPicker172 Using cfiCommon1
        CFI (cfiPicker172) NoFunction
        CFI (cfiPicker172) Picker
        ADDC    A,#0x0
        MOV     DPH,A
        MOVX    A,@DPTR
        RET
        CFI EndBlock cfiCond166
        CFI EndBlock cfiCond167
        CFI EndBlock cfiCond168
        CFI EndBlock cfiCond169
        CFI EndBlock cfiCond170
        CFI EndBlock cfiCond171
        CFI EndBlock cfiPicker172

        RSEG BANKED_CODE:CODE:NOROOT(0)
?Subroutine22:
        CFI Block cfiCond173 Using cfiCommon0
        CFI NoFunction
        CFI Conditional ??CrossCallReturnLabel_36
        CFI R6 load(1, XDATA, add(CFA_XSP16, literal(-10)))
        CFI VB load(1, XDATA, add(CFA_XSP16, literal(-9)))
        CFI V0 load(1, XDATA, add(CFA_XSP16, literal(-8)))
        CFI V1 load(1, XDATA, add(CFA_XSP16, literal(-7)))
        CFI R7 load(1, XDATA, add(CFA_XSP16, literal(-6)))
        CFI ?RET_LOW load(1, XDATA, add(CFA_XSP16, literal(-5)))
        CFI ?RET_HIGH load(1, XDATA, add(CFA_XSP16, literal(-4)))
        CFI ?BRET_EXT load(1, XDATA, add(CFA_XSP16, literal(-3)))
        CFI DPL0 load(1, XDATA, add(CFA_XSP16, literal(-2)))
        CFI DPH0 load(1, XDATA, add(CFA_XSP16, literal(-1)))
        CFI CFA_SP SP+0
        CFI CFA_XSP16 add(XSP16, 54)
        CFI Block cfiCond174 Using cfiCommon0
        CFI (cfiCond174) NoFunction
        CFI (cfiCond174) Conditional ??CrossCallReturnLabel_37
        CFI (cfiCond174) R6 load(1, XDATA, add(CFA_XSP16, literal(-10)))
        CFI (cfiCond174) VB load(1, XDATA, add(CFA_XSP16, literal(-9)))
        CFI (cfiCond174) V0 load(1, XDATA, add(CFA_XSP16, literal(-8)))
        CFI (cfiCond174) V1 load(1, XDATA, add(CFA_XSP16, literal(-7)))
        CFI (cfiCond174) R7 load(1, XDATA, add(CFA_XSP16, literal(-6)))
        CFI (cfiCond174) ?RET_LOW load(1, XDATA, add(CFA_XSP16, literal(-5)))
        CFI (cfiCond174) ?RET_HIGH load(1, XDATA, add(CFA_XSP16, literal(-4)))
        CFI (cfiCond174) ?BRET_EXT load(1, XDATA, add(CFA_XSP16, literal(-3)))
        CFI (cfiCond174) DPL0 load(1, XDATA, add(CFA_XSP16, literal(-2)))
        CFI (cfiCond174) DPH0 load(1, XDATA, add(CFA_XSP16, literal(-1)))
        CFI (cfiCond174) CFA_SP SP+0
        CFI (cfiCond174) CFA_XSP16 add(XSP16, 10)
        CFI Block cfiPicker175 Using cfiCommon1
        CFI (cfiPicker175) NoFunction
        CFI (cfiPicker175) Picker
        MOV     DPL,A
        MOV     A,R7
        ADDC    A,#0x0
        MOV     DPH,A
        MOVX    A,@DPTR
        MOV     R0,A
        INC     DPTR
        MOVX    A,@DPTR
        RET
        CFI EndBlock cfiCond173
        CFI EndBlock cfiCond174
        CFI EndBlock cfiPicker175
// 2435 
// 2436 
// 2437 /*********************************************************************
// 2438  * @fn      ZDApp_ChangeMatchDescRespPermission()
// 2439  *
// 2440  * @brief   Changes the Match Descriptor Response permission.
// 2441  *
// 2442  * @param   endpoint - endpoint to allow responses
// 2443  * @param   action - true to allow responses, false to not
// 2444  *
// 2445  * @return  none
// 2446  */

        RSEG BANKED_CODE:CODE:NOROOT(0)
// 2447 void ZDApp_ChangeMatchDescRespPermission( uint8 endpoint, uint8 action )
ZDApp_ChangeMatchDescRespPermission:
        CFI Block cfiBlock176 Using cfiCommon0
        CFI Function ZDApp_ChangeMatchDescRespPermission
        CODE
// 2448 {
        FUNCALL ZDApp_ChangeMatchDescRespPermission, afSetMatch
        LOCFRAME ISTACK, 0, STACK
        LOCFRAME PSTACK, 0, STACK
        LOCFRAME XSTACK, 9, STACK
        LOCFRAME IOVERLAY, 0, STATIC
        LOCFRAME DOVERLAY, 0, STATIC
        ARGFRAME ISTACK, 0, STACK
        ARGFRAME PSTACK, 0, STACK
        ARGFRAME XSTACK, 9, STACK
        ARGFRAME IOVERLAY, 0, STATIC
        ARGFRAME DOVERLAY, 0, STATIC
        MOV     A,#-0x9
        LCALL   ?BANKED_ENTER_XDATA
        CFI DPH0 load(1, XDATA, add(CFA_XSP16, literal(-1)))
        CFI DPL0 load(1, XDATA, add(CFA_XSP16, literal(-2)))
        CFI ?BRET_EXT load(1, XDATA, add(CFA_XSP16, literal(-3)))
        CFI ?RET_HIGH load(1, XDATA, add(CFA_XSP16, literal(-4)))
        CFI ?RET_LOW load(1, XDATA, add(CFA_XSP16, literal(-5)))
        CFI R7 load(1, XDATA, add(CFA_XSP16, literal(-6)))
        CFI V0 load(1, XDATA, add(CFA_XSP16, literal(-7)))
        CFI VB load(1, XDATA, add(CFA_XSP16, literal(-8)))
        CFI R6 load(1, XDATA, add(CFA_XSP16, literal(-9)))
        CFI CFA_SP SP+0
        CFI CFA_XSP16 add(XSP16, 9)
        ; Saved register size: 9
        ; Auto size: 0
// 2449   // Store the action
// 2450   afSetMatch( endpoint, action );
        ; Setup parameters for call to function afSetMatch
        LCALL   ??afSetMatch?relay
// 2451 }
        LJMP    ??Subroutine31_0 & 0xFFFF
        CFI EndBlock cfiBlock176
// 2452 
// 2453 /*********************************************************************
// 2454  * @fn      ZDApp_NetworkInit()
// 2455  *
// 2456  * @brief   Used to start the network joining process
// 2457  *
// 2458  * @param   delay - mSec delay to wait before starting
// 2459  *
// 2460  * @return  none
// 2461  */

        RSEG BANKED_CODE:CODE:NOROOT(0)
// 2462 void ZDApp_NetworkInit( uint16 delay )
ZDApp_NetworkInit:
        CFI Block cfiBlock177 Using cfiCommon0
        CFI Function ZDApp_NetworkInit
        CODE
// 2463 {
        FUNCALL ZDApp_NetworkInit, osal_start_timerEx
        LOCFRAME ISTACK, 2, STACK
        LOCFRAME PSTACK, 0, STACK
        LOCFRAME XSTACK, 0, STACK
        LOCFRAME IOVERLAY, 0, STATIC
        LOCFRAME DOVERLAY, 0, STATIC
        ARGFRAME ISTACK, 2, STACK
        ARGFRAME PSTACK, 0, STACK
        ARGFRAME XSTACK, 0, STACK
        ARGFRAME IOVERLAY, 0, STATIC
        ARGFRAME DOVERLAY, 0, STATIC
        FUNCALL ZDApp_NetworkInit, osal_set_event
        LOCFRAME ISTACK, 2, STACK
        LOCFRAME PSTACK, 0, STACK
        LOCFRAME XSTACK, 0, STACK
        LOCFRAME IOVERLAY, 0, STATIC
        LOCFRAME DOVERLAY, 0, STATIC
        ARGFRAME ISTACK, 2, STACK
        ARGFRAME PSTACK, 0, STACK
        ARGFRAME XSTACK, 0, STACK
        ARGFRAME IOVERLAY, 0, STATIC
        ARGFRAME DOVERLAY, 0, STATIC
        PUSH    DPL
        CFI DPL0 Frame(CFA_SP, 4)
        CFI CFA_SP SP+-4
        PUSH    DPH
        CFI DPH0 Frame(CFA_SP, 5)
        CFI CFA_SP SP+-5
        ; Saved register size: 2
        ; Auto size: 0
// 2464   if ( delay )
        MOV     A,R2
        ORL     A,R3
        JZ      ??ZDApp_NetworkInit_0
// 2465   {
// 2466     // Wait awhile before starting the device
// 2467     osal_start_timerEx( ZDAppTaskID, ZDO_NETWORK_INIT, delay );
        ; Setup parameters for call to function osal_start_timerEx
        MOV     A,R2
        MOV     R4,A
        MOV     A,R3
        MOV     R5,A
        MOV     R2,#0x1
        LCALL   ?Subroutine15 & 0xFFFF
// 2468   }
??CrossCallReturnLabel_66:
        SJMP    ??CrossCallReturnLabel_52
// 2469   else
// 2470   {
// 2471     osal_set_event( ZDAppTaskID, ZDO_NETWORK_INIT );
??ZDApp_NetworkInit_0:
        ; Setup parameters for call to function osal_set_event
        MOV     R2,#0x1
        LCALL   ??Subroutine27_0 & 0xFFFF
// 2472   }
// 2473 }
??CrossCallReturnLabel_52:
        LJMP    ?Subroutine2 & 0xFFFF
        CFI EndBlock cfiBlock177
// 2474 
// 2475 /*********************************************************************
// 2476  * @fn      ZDApp_NwkStateUpdateCB()
// 2477  *
// 2478  * @brief   This function notifies that this device's network 
// 2479  *          state info has been changed.
// 2480  *
// 2481  * @param   none
// 2482  *
// 2483  * @return  none
// 2484  */

        RSEG BANKED_CODE:CODE:NOROOT(0)
// 2485 void ZDApp_NwkStateUpdateCB( void )
ZDApp_NwkStateUpdateCB:
        CFI Block cfiBlock178 Using cfiCommon0
        CFI Function ZDApp_NwkStateUpdateCB
        CODE
// 2486 {
        FUNCALL ZDApp_NwkStateUpdateCB, osal_get_timeoutEx
        LOCFRAME ISTACK, 2, STACK
        LOCFRAME PSTACK, 0, STACK
        LOCFRAME XSTACK, 0, STACK
        LOCFRAME IOVERLAY, 0, STATIC
        LOCFRAME DOVERLAY, 0, STATIC
        ARGFRAME ISTACK, 2, STACK
        ARGFRAME PSTACK, 0, STACK
        ARGFRAME XSTACK, 0, STACK
        ARGFRAME IOVERLAY, 0, STATIC
        ARGFRAME DOVERLAY, 0, STATIC
        PUSH    DPL
        CFI DPL0 Frame(CFA_SP, 4)
        CFI CFA_SP SP+-4
        PUSH    DPH
        CFI DPH0 Frame(CFA_SP, 5)
        CFI CFA_SP SP+-5
        ; Saved register size: 2
        ; Auto size: 0
// 2487   // Notify to save info into NV
// 2488   if ( !osal_get_timeoutEx( ZDAppTaskID, ZDO_NWK_UPDATE_NV ) )
        ; Setup parameters for call to function osal_get_timeoutEx
        MOV     R2,#0x0
        MOV     R3,#0x2
        MOV     DPTR,#ZDAppTaskID
        MOVX    A,@DPTR
        MOV     R1,A
        LCALL   ??osal_get_timeoutEx?relay
// 2489   {
// 2490     // Trigger to save info into NV
// 2491     ZDApp_NVUpdate();
// 2492   }
// 2493 }
        LJMP    ?Subroutine2 & 0xFFFF
        CFI EndBlock cfiBlock178
// 2494 
// 2495 /*********************************************************************
// 2496  * @fn      ZDApp_NodeProfileSync()
// 2497  *
// 2498  * @brief   Sync node with stack profile.
// 2499  *
// 2500  * @param   cfm - ZDO_NetworkDiscoveryCfm_t
// 2501  *
// 2502  * @return  none
// 2503  */

        RSEG BANKED_CODE:CODE:NOROOT(0)
// 2504 void ZDApp_NodeProfileSync( ZDO_NetworkDiscoveryCfm_t* cfm )
ZDApp_NodeProfileSync:
        CFI Block cfiBlock179 Using cfiCommon0
        CFI Function ZDApp_NodeProfileSync
        CODE
// 2505 {
        FUNCALL ZDApp_NodeProfileSync, nwk_getNetworkDesc
        LOCFRAME ISTACK, 0, STACK
        LOCFRAME PSTACK, 0, STACK
        LOCFRAME XSTACK, 10, STACK
        LOCFRAME IOVERLAY, 0, STATIC
        LOCFRAME DOVERLAY, 0, STATIC
        ARGFRAME ISTACK, 0, STACK
        ARGFRAME PSTACK, 0, STACK
        ARGFRAME XSTACK, 10, STACK
        ARGFRAME IOVERLAY, 0, STATIC
        ARGFRAME DOVERLAY, 0, STATIC
        FUNCALL ZDApp_NodeProfileSync, NLME_SetBroadcastFilter
        LOCFRAME ISTACK, 0, STACK
        LOCFRAME PSTACK, 0, STACK
        LOCFRAME XSTACK, 10, STACK
        LOCFRAME IOVERLAY, 0, STATIC
        LOCFRAME DOVERLAY, 0, STATIC
        ARGFRAME ISTACK, 0, STACK
        ARGFRAME PSTACK, 0, STACK
        ARGFRAME XSTACK, 10, STACK
        ARGFRAME IOVERLAY, 0, STATIC
        ARGFRAME DOVERLAY, 0, STATIC
        MOV     A,#-0xa
        LCALL   ?BANKED_ENTER_XDATA
        CFI DPH0 load(1, XDATA, add(CFA_XSP16, literal(-1)))
        CFI DPL0 load(1, XDATA, add(CFA_XSP16, literal(-2)))
        CFI ?BRET_EXT load(1, XDATA, add(CFA_XSP16, literal(-3)))
        CFI ?RET_HIGH load(1, XDATA, add(CFA_XSP16, literal(-4)))
        CFI ?RET_LOW load(1, XDATA, add(CFA_XSP16, literal(-5)))
        CFI R7 load(1, XDATA, add(CFA_XSP16, literal(-6)))
        CFI V1 load(1, XDATA, add(CFA_XSP16, literal(-7)))
        CFI V0 load(1, XDATA, add(CFA_XSP16, literal(-8)))
        CFI VB load(1, XDATA, add(CFA_XSP16, literal(-9)))
        CFI R6 load(1, XDATA, add(CFA_XSP16, literal(-10)))
        CFI CFA_SP SP+0
        CFI CFA_XSP16 add(XSP16, 10)
        ; Saved register size: 10
        ; Auto size: 0
// 2506   networkDesc_t* desc;
// 2507   uint16         panID;
// 2508 
// 2509   if ( ZDO_Config_Node_Descriptor.CapabilityFlags & CAPINFO_DEVICETYPE_FFD  )
        MOV     DPTR,#ZDO_Config_Node_Descriptor + 2
        MOVX    A,@DPTR
        MOV     C,0xE0 /* A   */.1
        JNC     ??ZDApp_NodeProfileSync_0
// 2510   {
// 2511     panID = BUILD_UINT16( cfm->panIdLSB, cfm->panIdMSB );
// 2512 
// 2513     desc = nwk_getNetworkDesc( cfm->extendedPANID, panID, cfm->logicalChannel );
        ; Setup parameters for call to function nwk_getNetworkDesc
        MOV     DPL,R2
        MOV     DPH,R3
        INC     DPTR
        INC     DPTR
        INC     DPTR
        INC     DPTR
        MOVX    A,@DPTR
        MOV     R1,A
        MOV     DPL,R2
        MOV     DPH,R3
        INC     DPTR
        INC     DPTR
        MOVX    A,@DPTR
        MOV     R6,A
        MOV     DPL,R2
        MOV     DPH,R3
        INC     DPTR
        INC     DPTR
        INC     DPTR
        MOVX    A,@DPTR
        MOV     R5,A
        MOV     A,R6
        MOV     R4,A
        MOV     A,R2
        ADD     A,#0x6
        MOV     R2,A
        MOV     A,R3
        ADDC    A,#0x0
        MOV     R3,A
        LCALL   ??nwk_getNetworkDesc?relay
        MOV     DPL,R2
        MOV     DPH,R3
// 2514 
// 2515     if (desc != NULL)
        MOV     A,DPL
        ORL     A,DPH
        JZ      ??ZDApp_NodeProfileSync_0
// 2516     {
// 2517       if ( desc->stackProfile != zgStackProfile )
        INC     DPTR
        INC     DPTR
        INC     DPTR
        INC     DPTR
        INC     DPTR
        INC     DPTR
        INC     DPTR
        INC     DPTR
        MOVX    A,@DPTR
        MOV     R0,A
        MOV     DPTR,#zgStackProfile
        MOVX    A,@DPTR
        XRL     A,R0
        JZ      ??ZDApp_NodeProfileSync_0
// 2518       {
// 2519         ZDO_Config_Node_Descriptor.LogicalType = NODETYPE_DEVICE;
        MOV     DPTR,#ZDO_Config_Node_Descriptor
        MOVX    A,@DPTR
        ANL     A,#0xf8
        ORL     A,#0x2
        MOVX    @DPTR,A
// 2520         ZDO_Config_Node_Descriptor.CapabilityFlags = CAPINFO_DEVICETYPE_RFD | CAPINFO_POWER_AC | CAPINFO_RCVR_ON_IDLE;
        MOV     DPTR,#ZDO_Config_Node_Descriptor + 2
        MOV     A,#0xc
        MOVX    @DPTR,A
// 2521         NLME_SetBroadcastFilter( ZDO_Config_Node_Descriptor.CapabilityFlags );
        ; Setup parameters for call to function NLME_SetBroadcastFilter
        MOV     R1,A
        LCALL   ??NLME_SetBroadcastFilter?relay
// 2522       }
// 2523     }
// 2524   }
// 2525 }
??ZDApp_NodeProfileSync_0:
        SJMP    ??Subroutine35_0
        CFI EndBlock cfiBlock179
// 2526 
// 2527 /*********************************************************************
// 2528  * @fn      ZDApp_StartJoiningCycle()
// 2529  *
// 2530  * @brief   Starts the joining cycle of a device.  This will only 
// 2531  *          continue an already started (or stopped) joining cycle.
// 2532  *
// 2533  * @param   none
// 2534  *
// 2535  * @return  TRUE if joining stopped, FALSE if joining or rejoining
// 2536  */

        RSEG BANKED_CODE:CODE:NOROOT(0)
// 2537 uint8 ZDApp_StartJoiningCycle( void )
ZDApp_StartJoiningCycle:
        CFI Block cfiBlock180 Using cfiCommon0
        CFI Function ZDApp_StartJoiningCycle
        CODE
// 2538 {
        FUNCALL ZDApp_StartJoiningCycle, ZDApp_NetworkInit
        LOCFRAME ISTACK, 2, STACK
        LOCFRAME PSTACK, 0, STACK
        LOCFRAME XSTACK, 0, STACK
        LOCFRAME IOVERLAY, 0, STATIC
        LOCFRAME DOVERLAY, 0, STATIC
        ARGFRAME ISTACK, 2, STACK
        ARGFRAME PSTACK, 0, STACK
        ARGFRAME XSTACK, 0, STACK
        ARGFRAME IOVERLAY, 0, STATIC
        ARGFRAME DOVERLAY, 0, STATIC
        PUSH    DPL
        CFI DPL0 Frame(CFA_SP, 4)
        CFI CFA_SP SP+-4
        PUSH    DPH
        CFI DPH0 Frame(CFA_SP, 5)
        CFI CFA_SP SP+-5
        ; Saved register size: 2
        ; Auto size: 0
// 2539   if ( devState == DEV_INIT || devState == DEV_NWK_DISC )
        MOV     DPTR,#devState
        MOVX    A,@DPTR
        XRL     A,#0x1
        JZ      ??ZDApp_StartJoiningCycle_0
        MOVX    A,@DPTR
        XRL     A,#0x2
        JNZ     ??ZDApp_StartJoiningCycle_1
// 2540   {
// 2541     continueJoining = TRUE;
??ZDApp_StartJoiningCycle_0:
        MOV     DPTR,#continueJoining
        MOV     A,#0x1
        MOVX    @DPTR,A
// 2542     ZDApp_NetworkInit( 0 );
        ; Setup parameters for call to function ZDApp_NetworkInit
        MOV     R2,#0x0
        MOV     R3,#0x0
        LCALL   ??ZDApp_NetworkInit?relay
// 2543 
// 2544     return ( TRUE );
        MOV     R1,#0x1
        SJMP    ??ZDApp_StartJoiningCycle_2
// 2545   }
// 2546   else
// 2547     return ( FALSE );
??ZDApp_StartJoiningCycle_1:
        MOV     R1,#0x0
??ZDApp_StartJoiningCycle_2:
        LJMP    ?Subroutine2 & 0xFFFF
        CFI EndBlock cfiBlock180
// 2548 }
// 2549 
// 2550 /*********************************************************************
// 2551  * @fn      ZDApp_StopJoiningCycle()
// 2552  *
// 2553  * @brief   Stops the joining or rejoining process of a device.
// 2554  *
// 2555  * @param   none
// 2556  *
// 2557  * @return  TRUE if joining stopped, FALSE if joining or rejoining
// 2558  */

        RSEG BANKED_CODE:CODE:NOROOT(0)
// 2559 uint8 ZDApp_StopJoiningCycle( void )
ZDApp_StopJoiningCycle:
        CFI Block cfiBlock181 Using cfiCommon0
        CFI Function ZDApp_StopJoiningCycle
        CODE
// 2560 {
        PUSH    DPL
        CFI DPL0 Frame(CFA_SP, 4)
        CFI CFA_SP SP+-4
        PUSH    DPH
        CFI DPH0 Frame(CFA_SP, 5)
        CFI CFA_SP SP+-5
        ; Saved register size: 2
        ; Auto size: 0
// 2561   if ( devState == DEV_INIT || devState == DEV_NWK_DISC )
        MOV     DPTR,#devState
        MOVX    A,@DPTR
        XRL     A,#0x1
        JZ      ??ZDApp_StopJoiningCycle_0
        MOVX    A,@DPTR
        XRL     A,#0x2
        JNZ     ??ZDApp_StopJoiningCycle_1
// 2562   {
// 2563     continueJoining = FALSE;
??ZDApp_StopJoiningCycle_0:
        MOV     DPTR,#continueJoining
        CLR     A
        MOVX    @DPTR,A
// 2564     return ( TRUE );
        MOV     R1,#0x1
        SJMP    ??ZDApp_StopJoiningCycle_2
// 2565   }
// 2566   else
// 2567     return ( FALSE );
??ZDApp_StopJoiningCycle_1:
        MOV     R1,#0x0
??ZDApp_StopJoiningCycle_2:
        LJMP    ?Subroutine2 & 0xFFFF
        CFI EndBlock cfiBlock181
// 2568 }
// 2569 
// 2570 /*********************************************************************
// 2571  * @fn      ZDApp_AnnounceNewAddress()
// 2572  *
// 2573  * @brief   Send Device Announce and hold all transmissions for 
// 2574  *          new address timeout.
// 2575  *
// 2576  * @param   none
// 2577  *
// 2578  * @return  none
// 2579  */

        RSEG BANKED_CODE:CODE:NOROOT(0)
// 2580 void ZDApp_AnnounceNewAddress( void )
ZDApp_AnnounceNewAddress:
        CFI Block cfiBlock182 Using cfiCommon0
        CFI Function ZDApp_AnnounceNewAddress
        CODE
// 2581 {
        FUNCALL ZDApp_AnnounceNewAddress, NLME_GetExtAddr
        LOCFRAME ISTACK, 0, STACK
        LOCFRAME PSTACK, 0, STACK
        LOCFRAME XSTACK, 10, STACK
        LOCFRAME IOVERLAY, 0, STATIC
        LOCFRAME DOVERLAY, 0, STATIC
        ARGFRAME ISTACK, 0, STACK
        ARGFRAME PSTACK, 0, STACK
        ARGFRAME XSTACK, 10, STACK
        ARGFRAME IOVERLAY, 0, STATIC
        ARGFRAME DOVERLAY, 0, STATIC
        FUNCALL ZDApp_AnnounceNewAddress, NLME_GetShortAddr
        LOCFRAME ISTACK, 0, STACK
        LOCFRAME PSTACK, 0, STACK
        LOCFRAME XSTACK, 10, STACK
        LOCFRAME IOVERLAY, 0, STATIC
        LOCFRAME DOVERLAY, 0, STATIC
        ARGFRAME ISTACK, 0, STACK
        ARGFRAME PSTACK, 0, STACK
        ARGFRAME XSTACK, 10, STACK
        ARGFRAME IOVERLAY, 0, STATIC
        ARGFRAME DOVERLAY, 0, STATIC
        FUNCALL ZDApp_AnnounceNewAddress, ZDP_DeviceAnnce
        LOCFRAME ISTACK, 0, STACK
        LOCFRAME PSTACK, 0, STACK
        LOCFRAME XSTACK, 11, STACK
        LOCFRAME IOVERLAY, 0, STATIC
        LOCFRAME DOVERLAY, 0, STATIC
        ARGFRAME ISTACK, 0, STACK
        ARGFRAME PSTACK, 0, STACK
        ARGFRAME XSTACK, 11, STACK
        ARGFRAME IOVERLAY, 0, STATIC
        ARGFRAME DOVERLAY, 0, STATIC
        MOV     A,#-0xa
        LCALL   ?BANKED_ENTER_XDATA
        CFI DPH0 load(1, XDATA, add(CFA_XSP16, literal(-1)))
        CFI DPL0 load(1, XDATA, add(CFA_XSP16, literal(-2)))
        CFI ?BRET_EXT load(1, XDATA, add(CFA_XSP16, literal(-3)))
        CFI ?RET_HIGH load(1, XDATA, add(CFA_XSP16, literal(-4)))
        CFI ?RET_LOW load(1, XDATA, add(CFA_XSP16, literal(-5)))
        CFI R7 load(1, XDATA, add(CFA_XSP16, literal(-6)))
        CFI V1 load(1, XDATA, add(CFA_XSP16, literal(-7)))
        CFI V0 load(1, XDATA, add(CFA_XSP16, literal(-8)))
        CFI VB load(1, XDATA, add(CFA_XSP16, literal(-9)))
        CFI R6 load(1, XDATA, add(CFA_XSP16, literal(-10)))
        CFI CFA_SP SP+0
        CFI CFA_XSP16 add(XSP16, 10)
        ; Saved register size: 10
        ; Auto size: 0
// 2582 #if defined ( ZIGBEE_NWK_UNIQUE_ADDR_CHECK )
// 2583   // Turn off data request hold
// 2584   APSME_HoldDataRequests( 0 );
// 2585 #endif
// 2586   
// 2587   ZDP_DeviceAnnce( NLME_GetShortAddr(), NLME_GetExtAddr(),
// 2588                      ZDO_Config_Node_Descriptor.CapabilityFlags, 0 );
        ; Setup parameters for call to function NLME_GetExtAddr
        LCALL   ??NLME_GetExtAddr?relay
        MOV     ?V0 + 0,R2
        MOV     ?V0 + 1,R3
        MOV     R6,?V0 + 0
        ; Setup parameters for call to function NLME_GetShortAddr
        LCALL   ??NLME_GetShortAddr?relay
        ; Setup parameters for call to function ZDP_DeviceAnnce
        MOV     ?V0 + 0,#0x0
        MOV     R0,#?V0 + 0
        LCALL   ?PUSH_XSTACK_I_ONE
        CFI CFA_XSP16 add(XSP16, 11)
        MOV     DPTR,#ZDO_Config_Node_Descriptor + 2
        MOVX    A,@DPTR
        MOV     R1,A
        MOV     A,R6
        MOV     R4,A
        MOV     R5,?V0 + 1
        LCALL   ??ZDP_DeviceAnnce?relay
        MOV     A,#0x1
        SJMP    ??Subroutine34_0
        CFI EndBlock cfiBlock182
// 2589   
// 2590 #if defined ( ZIGBEE_NWK_UNIQUE_ADDR_CHECK )
// 2591   // Setup the timeout
// 2592   APSME_HoldDataRequests( ZDAPP_HOLD_DATA_REQUESTS_TIMEOUT );
// 2593 #endif  
// 2594 }

        RSEG BANKED_CODE:CODE:NOROOT(0)
?Subroutine1:
        CFI Block cfiBlock183 Using cfiCommon0
        CFI NoFunction
        CFI CFA_SP SP+0
        CFI CFA_XSP16 add(XSP16, 12)
        CFI VB load(1, XDATA, add(CFA_XSP16, literal(-9)))
        CFI DPL0 load(1, XDATA, add(CFA_XSP16, literal(-2)))
        CFI DPH0 load(1, XDATA, add(CFA_XSP16, literal(-1)))
        CFI R6 load(1, XDATA, add(CFA_XSP16, literal(-10)))
        CFI R7 load(1, XDATA, add(CFA_XSP16, literal(-6)))
        CFI V0 load(1, XDATA, add(CFA_XSP16, literal(-8)))
        CFI V1 load(1, XDATA, add(CFA_XSP16, literal(-7)))
        CFI ?BRET_EXT load(1, XDATA, add(CFA_XSP16, literal(-3)))
        CFI ?RET_HIGH load(1, XDATA, add(CFA_XSP16, literal(-4)))
        CFI ?RET_LOW load(1, XDATA, add(CFA_XSP16, literal(-5)))
        MOV     A,#0x2
        CFI EndBlock cfiBlock183
        REQUIRE ??Subroutine34_0
        ; // Fall through to label ??Subroutine34_0

        RSEG BANKED_CODE:CODE:NOROOT(0)
??Subroutine34_0:
        CFI Block cfiBlock184 Using cfiCommon0
        CFI NoFunction
        CFI CFA_SP SP+0
        CFI CFA_XSP16 add(XSP16, 27)
        CFI VB load(1, XDATA, add(CFA_XSP16, literal(-9)))
        CFI DPL0 load(1, XDATA, add(CFA_XSP16, literal(-2)))
        CFI DPH0 load(1, XDATA, add(CFA_XSP16, literal(-1)))
        CFI R6 load(1, XDATA, add(CFA_XSP16, literal(-10)))
        CFI R7 load(1, XDATA, add(CFA_XSP16, literal(-6)))
        CFI V0 load(1, XDATA, add(CFA_XSP16, literal(-8)))
        CFI V1 load(1, XDATA, add(CFA_XSP16, literal(-7)))
        CFI ?BRET_EXT load(1, XDATA, add(CFA_XSP16, literal(-3)))
        CFI ?RET_HIGH load(1, XDATA, add(CFA_XSP16, literal(-4)))
        CFI ?RET_LOW load(1, XDATA, add(CFA_XSP16, literal(-5)))
        CFI Invalid
        LCALL   ?DEALLOC_XSTACK8
        CFI EndBlock cfiBlock184
        REQUIRE ??Subroutine35_0
        ; // Fall through to label ??Subroutine35_0

        RSEG BANKED_CODE:CODE:NOROOT(0)
??Subroutine35_0:
        CFI Block cfiBlock185 Using cfiCommon0
        CFI NoFunction
        CFI CFA_SP SP+0
        CFI CFA_XSP16 add(XSP16, 10)
        CFI VB load(1, XDATA, add(CFA_XSP16, literal(-9)))
        CFI DPL0 load(1, XDATA, add(CFA_XSP16, literal(-2)))
        CFI DPH0 load(1, XDATA, add(CFA_XSP16, literal(-1)))
        CFI R6 load(1, XDATA, add(CFA_XSP16, literal(-10)))
        CFI R7 load(1, XDATA, add(CFA_XSP16, literal(-6)))
        CFI V0 load(1, XDATA, add(CFA_XSP16, literal(-8)))
        CFI V1 load(1, XDATA, add(CFA_XSP16, literal(-7)))
        CFI ?BRET_EXT load(1, XDATA, add(CFA_XSP16, literal(-3)))
        CFI ?RET_HIGH load(1, XDATA, add(CFA_XSP16, literal(-4)))
        CFI ?RET_LOW load(1, XDATA, add(CFA_XSP16, literal(-5)))
        MOV     R7,#0x2
        LJMP    ?BANKED_LEAVE_XDATA
        CFI EndBlock cfiBlock185
// 2595 
// 2596 /*********************************************************************
// 2597  * @fn          ZDApp_NVUpdate
// 2598  *
// 2599  * @brief       Set the NV Update Timer.
// 2600  *
// 2601  * @param       none
// 2602  *
// 2603  * @return      none
// 2604  */

        RSEG BANKED_CODE:CODE:NOROOT(0)
// 2605 void ZDApp_NVUpdate( void )
ZDApp_NVUpdate:
        CFI Block cfiBlock186 Using cfiCommon0
        CFI Function ZDApp_NVUpdate
        CODE
// 2606 {
        ; Saved register size: 0
        ; Auto size: 0
// 2607 #if defined ( NV_RESTORE )
// 2608   osal_start_timerEx( ZDAppTaskID, ZDO_NWK_UPDATE_NV, ZDAPP_UPDATE_NWK_NV_TIME );
// 2609 #endif
// 2610 }
        LJMP    ?BRET
        CFI EndBlock cfiBlock186
// 2611 
// 2612 /*********************************************************************
// 2613  * @fn      ZDApp_CoordStartPANIDConflictCB()
// 2614  *
// 2615  * @brief   Returns a PAN ID for the network layer to use during
// 2616  *          a coordinator start and there is another network with 
// 2617  *          the intended PANID.
// 2618  *
// 2619  * @param   panid - the intended PAN ID
// 2620  *
// 2621  * @return  PANID to try
// 2622  */

        RSEG BANKED_CODE:CODE:NOROOT(0)
// 2623 uint16 ZDApp_CoordStartPANIDConflictCB( uint16 panid )
ZDApp_CoordStartPANIDConflictCB:
        CFI Block cfiBlock187 Using cfiCommon0
        CFI Function ZDApp_CoordStartPANIDConflictCB
        CODE
// 2624 {
        ; Saved register size: 0
        ; Auto size: 0
// 2625   return ( panid + 1 );
        MOV     A,R2
        ADD     A,#0x1
        INC     R2
        MOV     A,R3
        ADDC    A,#0x0
        MOV     R3,A
        LJMP    ?BRET
        CFI EndBlock cfiBlock187
// 2626 }
// 2627 
// 2628 /*********************************************************************
// 2629  * @fn          ZDO_SrcRtgIndCB
// 2630  *
// 2631  * @brief       This function notifies the ZDO available src route record received.
// 2632  *
// 2633  * @param       srcAddr - source address of the source route
// 2634  * @param       relayCnt - number of devices in the relay list
// 2635  * @param       relayList - relay list of the source route
// 2636  *
// 2637  * @return      none
// 2638  */

        RSEG BANKED_CODE:CODE:NOROOT(0)
// 2639 void ZDO_SrcRtgIndCB (uint16 srcAddr, uint8 relayCnt, uint16* pRelayList )
ZDO_SrcRtgIndCB:
        CFI Block cfiBlock188 Using cfiCommon0
        CFI Function ZDO_SrcRtgIndCB
        CODE
// 2640 {
        MOV     A,#-0x9
        LCALL   ?BANKED_ENTER_XDATA
        CFI DPH0 load(1, XDATA, add(CFA_XSP16, literal(-1)))
        CFI DPL0 load(1, XDATA, add(CFA_XSP16, literal(-2)))
        CFI ?BRET_EXT load(1, XDATA, add(CFA_XSP16, literal(-3)))
        CFI ?RET_HIGH load(1, XDATA, add(CFA_XSP16, literal(-4)))
        CFI ?RET_LOW load(1, XDATA, add(CFA_XSP16, literal(-5)))
        CFI R7 load(1, XDATA, add(CFA_XSP16, literal(-6)))
        CFI V0 load(1, XDATA, add(CFA_XSP16, literal(-7)))
        CFI VB load(1, XDATA, add(CFA_XSP16, literal(-8)))
        CFI R6 load(1, XDATA, add(CFA_XSP16, literal(-9)))
        CFI CFA_SP SP+0
        CFI CFA_XSP16 add(XSP16, 9)
        ; Saved register size: 9
        ; Auto size: 5
        MOV     A,#-0x5
        LCALL   ?ALLOC_XSTACK8
        CFI CFA_XSP16 add(XSP16, 14)
// 2641   zdoSrcRtg_t srcRtg;
// 2642   
// 2643   srcRtg.srcAddr = srcAddr;
        LCALL   ?Subroutine8 & 0xFFFF
// 2644   srcRtg.relayCnt = relayCnt;
??CrossCallReturnLabel_79:
        MOV     A,#0x2
        LCALL   ?XSTACK_DISP0_8
        MOV     A,R1
        MOVX    @DPTR,A
// 2645   srcRtg.pRelayList = pRelayList;
        MOV     A,#0x3
        LCALL   ?XSTACK_DISP0_8
        MOV     A,R4
        MOVX    @DPTR,A
        INC     DPTR
        MOV     A,R5
        MOVX    @DPTR,A
// 2646   
// 2647   if( zdoCBFunc[ZDO_SRC_RTG_IND_CBID] != NULL )
        MOV     DPTR,#zdoCBFunc
        LCALL   ?Subroutine12 & 0xFFFF
??CrossCallReturnLabel_11:
        JZ      ??ZDO_SrcRtgIndCB_0
// 2648   {
// 2649     zdoCBFunc[ZDO_SRC_RTG_IND_CBID]( (void*)&srcRtg );
        ; Setup parameters for indirect call
        MOV     DPL,?XSP + 0
        MOV     DPH,?XSP + 1
        MOV     R2,DPL
        MOV     R3,DPH
        MOV     DPTR,#zdoCBFunc + 1
        MOVX    A,@DPTR
        MOV     DPH,A
        MOV     DPL,R0
        LCALL   ?CALL_IND
// 2650   }
// 2651 }
??ZDO_SrcRtgIndCB_0:
        MOV     A,#0x5
        LCALL   ?DEALLOC_XSTACK8
        CFI CFA_XSP16 add(XSP16, 9)
        LJMP    ??Subroutine31_0 & 0xFFFF
        CFI EndBlock cfiBlock188
// 2652 
// 2653 
// 2654 /*********************************************************************
// 2655  * @fn          ZDO_RegisterForZdoCB
// 2656  *
// 2657  * @brief       Call this function to register the higher layer (for 
// 2658  *              example, the Application layer or MT layer) with ZDO 
// 2659  *              callbacks to get notified of some ZDO indication like
// 2660  *              existence of a concentrator or receipt of a source 
// 2661  *              route record.
// 2662  *
// 2663  * @param       indID - ZDO Indication ID
// 2664  * @param       pFn   - Callback function pointer
// 2665  *
// 2666  * @return      ZSuccess - successful, ZInvalidParameter if not
// 2667  */

        RSEG BANKED_CODE:CODE:NOROOT(0)
// 2668 ZStatus_t ZDO_RegisterForZdoCB( uint8 indID, pfnZdoCb pFn )
ZDO_RegisterForZdoCB:
        CFI Block cfiBlock189 Using cfiCommon0
        CFI Function ZDO_RegisterForZdoCB
        CODE
// 2669 {
        PUSH    DPL
        CFI DPL0 Frame(CFA_SP, 4)
        CFI CFA_SP SP+-4
        PUSH    DPH
        CFI DPH0 Frame(CFA_SP, 5)
        CFI CFA_SP SP+-5
        ; Saved register size: 2
        ; Auto size: 0
        MOV     A,R1
// 2670   // Check the range of the indication ID
// 2671   if ( indID < MAX_ZDO_CB_FUNC )
        JNZ     ??ZDO_RegisterForZdoCB_0
// 2672   {
// 2673     zdoCBFunc[indID] = pFn;
        MOV     DPTR,#zdoCBFunc
        LCALL   ??Subroutine36_0 & 0xFFFF
// 2674     return ZSuccess;
??CrossCallReturnLabel_77:
        MOV     R1,#0x0
        SJMP    ??ZDO_RegisterForZdoCB_1
// 2675   }
// 2676   
// 2677   return ZInvalidParameter;
??ZDO_RegisterForZdoCB_0:
        MOV     R1,#0x2
??ZDO_RegisterForZdoCB_1:
        LJMP    ?Subroutine2 & 0xFFFF
        CFI EndBlock cfiBlock189
// 2678 }

        RSEG BANKED_CODE:CODE:NOROOT(0)
?Subroutine8:
        CFI Block cfiCond190 Using cfiCommon0
        CFI NoFunction
        CFI Conditional ??CrossCallReturnLabel_78
        CFI R6 load(1, XDATA, add(CFA_XSP16, literal(-10)))
        CFI VB load(1, XDATA, add(CFA_XSP16, literal(-9)))
        CFI V0 load(1, XDATA, add(CFA_XSP16, literal(-8)))
        CFI V1 load(1, XDATA, add(CFA_XSP16, literal(-7)))
        CFI R7 load(1, XDATA, add(CFA_XSP16, literal(-6)))
        CFI ?RET_LOW load(1, XDATA, add(CFA_XSP16, literal(-5)))
        CFI ?RET_HIGH load(1, XDATA, add(CFA_XSP16, literal(-4)))
        CFI ?BRET_EXT load(1, XDATA, add(CFA_XSP16, literal(-3)))
        CFI DPL0 load(1, XDATA, add(CFA_XSP16, literal(-2)))
        CFI DPH0 load(1, XDATA, add(CFA_XSP16, literal(-1)))
        CFI CFA_SP SP+0
        CFI CFA_XSP16 add(XSP16, 12)
        CFI Block cfiCond191 Using cfiCommon0
        CFI (cfiCond191) NoFunction
        CFI (cfiCond191) Conditional ??CrossCallReturnLabel_79
        CFI (cfiCond191) R6 load(1, XDATA, add(CFA_XSP16, literal(-9)))
        CFI (cfiCond191) VB load(1, XDATA, add(CFA_XSP16, literal(-8)))
        CFI (cfiCond191) V0 load(1, XDATA, add(CFA_XSP16, literal(-7)))
        CFI (cfiCond191) R7 load(1, XDATA, add(CFA_XSP16, literal(-6)))
        CFI (cfiCond191) ?RET_LOW load(1, XDATA, add(CFA_XSP16, literal(-5)))
        CFI (cfiCond191) ?RET_HIGH load(1, XDATA, add(CFA_XSP16, literal(-4)))
        CFI (cfiCond191) ?BRET_EXT load(1, XDATA, add(CFA_XSP16, literal(-3)))
        CFI (cfiCond191) DPL0 load(1, XDATA, add(CFA_XSP16, literal(-2)))
        CFI (cfiCond191) DPH0 load(1, XDATA, add(CFA_XSP16, literal(-1)))
        CFI (cfiCond191) CFA_SP SP+0
        CFI (cfiCond191) CFA_XSP16 add(XSP16, 14)
        CFI Block cfiPicker192 Using cfiCommon1
        CFI (cfiPicker192) NoFunction
        CFI (cfiPicker192) Picker
        MOV     DPL,?XSP + 0
        MOV     DPH,?XSP + 1
        CFI EndBlock cfiCond190
        CFI EndBlock cfiCond191
        CFI EndBlock cfiPicker192
        REQUIRE ??Subroutine36_0
        ; // Fall through to label ??Subroutine36_0

        RSEG BANKED_CODE:CODE:NOROOT(0)
??Subroutine36_0:
        CFI Block cfiCond193 Using cfiCommon0
        CFI NoFunction
        CFI Conditional ??CrossCallReturnLabel_74
        CFI R6 load(1, XDATA, add(CFA_XSP16, literal(-9)))
        CFI VB load(1, XDATA, add(CFA_XSP16, literal(-8)))
        CFI V0 load(1, XDATA, add(CFA_XSP16, literal(-7)))
        CFI R7 load(1, XDATA, add(CFA_XSP16, literal(-6)))
        CFI ?RET_LOW load(1, XDATA, add(CFA_XSP16, literal(-5)))
        CFI ?RET_HIGH load(1, XDATA, add(CFA_XSP16, literal(-4)))
        CFI ?BRET_EXT load(1, XDATA, add(CFA_XSP16, literal(-3)))
        CFI DPL0 load(1, XDATA, add(CFA_XSP16, literal(-2)))
        CFI DPH0 load(1, XDATA, add(CFA_XSP16, literal(-1)))
        CFI CFA_SP SP+0
        CFI CFA_XSP16 add(XSP16, 9)
        CFI Block cfiCond194 Using cfiCommon0
        CFI (cfiCond194) NoFunction
        CFI (cfiCond194) Conditional ??CrossCallReturnLabel_75
        CFI (cfiCond194) R6 load(1, XDATA, add(CFA_XSP16, literal(-9)))
        CFI (cfiCond194) VB load(1, XDATA, add(CFA_XSP16, literal(-8)))
        CFI (cfiCond194) V0 load(1, XDATA, add(CFA_XSP16, literal(-7)))
        CFI (cfiCond194) R7 load(1, XDATA, add(CFA_XSP16, literal(-6)))
        CFI (cfiCond194) ?RET_LOW load(1, XDATA, add(CFA_XSP16, literal(-5)))
        CFI (cfiCond194) ?RET_HIGH load(1, XDATA, add(CFA_XSP16, literal(-4)))
        CFI (cfiCond194) ?BRET_EXT load(1, XDATA, add(CFA_XSP16, literal(-3)))
        CFI (cfiCond194) DPL0 load(1, XDATA, add(CFA_XSP16, literal(-2)))
        CFI (cfiCond194) DPH0 load(1, XDATA, add(CFA_XSP16, literal(-1)))
        CFI (cfiCond194) CFA_SP SP+0
        CFI (cfiCond194) CFA_XSP16 add(XSP16, 9)
        CFI Block cfiCond195 Using cfiCommon0
        CFI (cfiCond195) NoFunction
        CFI (cfiCond195) Conditional ??CrossCallReturnLabel_76
        CFI (cfiCond195) R6 load(1, XDATA, add(CFA_XSP16, literal(-15)))
        CFI (cfiCond195) VB load(1, XDATA, add(CFA_XSP16, literal(-14)))
        CFI (cfiCond195) V0 load(1, XDATA, add(CFA_XSP16, literal(-13)))
        CFI (cfiCond195) V1 load(1, XDATA, add(CFA_XSP16, literal(-12)))
        CFI (cfiCond195) V2 load(1, XDATA, add(CFA_XSP16, literal(-11)))
        CFI (cfiCond195) V3 load(1, XDATA, add(CFA_XSP16, literal(-10)))
        CFI (cfiCond195) V4 load(1, XDATA, add(CFA_XSP16, literal(-9)))
        CFI (cfiCond195) V5 load(1, XDATA, add(CFA_XSP16, literal(-8)))
        CFI (cfiCond195) V6 load(1, XDATA, add(CFA_XSP16, literal(-7)))
        CFI (cfiCond195) R7 load(1, XDATA, add(CFA_XSP16, literal(-6)))
        CFI (cfiCond195) ?RET_LOW load(1, XDATA, add(CFA_XSP16, literal(-5)))
        CFI (cfiCond195) ?RET_HIGH load(1, XDATA, add(CFA_XSP16, literal(-4)))
        CFI (cfiCond195) ?BRET_EXT load(1, XDATA, add(CFA_XSP16, literal(-3)))
        CFI (cfiCond195) DPL0 load(1, XDATA, add(CFA_XSP16, literal(-2)))
        CFI (cfiCond195) DPH0 load(1, XDATA, add(CFA_XSP16, literal(-1)))
        CFI (cfiCond195) CFA_SP SP+0
        CFI (cfiCond195) CFA_XSP16 add(XSP16, 16)
        CFI Block cfiCond196 Using cfiCommon0
        CFI (cfiCond196) NoFunction
        CFI (cfiCond196) Conditional ??CrossCallReturnLabel_77
        CFI (cfiCond196) DPL0 Frame(CFA_SP, 4)
        CFI (cfiCond196) DPH0 Frame(CFA_SP, 5)
        CFI (cfiCond196) CFA_SP SP+-5
        CFI Block cfiCond197 Using cfiCommon0
        CFI (cfiCond197) NoFunction
        CFI (cfiCond197) Conditional ??CrossCallReturnLabel_78
        CFI (cfiCond197) R6 load(1, XDATA, add(CFA_XSP16, literal(-10)))
        CFI (cfiCond197) VB load(1, XDATA, add(CFA_XSP16, literal(-9)))
        CFI (cfiCond197) V0 load(1, XDATA, add(CFA_XSP16, literal(-8)))
        CFI (cfiCond197) V1 load(1, XDATA, add(CFA_XSP16, literal(-7)))
        CFI (cfiCond197) R7 load(1, XDATA, add(CFA_XSP16, literal(-6)))
        CFI (cfiCond197) ?RET_LOW load(1, XDATA, add(CFA_XSP16, literal(-5)))
        CFI (cfiCond197) ?RET_HIGH load(1, XDATA, add(CFA_XSP16, literal(-4)))
        CFI (cfiCond197) ?BRET_EXT load(1, XDATA, add(CFA_XSP16, literal(-3)))
        CFI (cfiCond197) DPL0 load(1, XDATA, add(CFA_XSP16, literal(-2)))
        CFI (cfiCond197) DPH0 load(1, XDATA, add(CFA_XSP16, literal(-1)))
        CFI (cfiCond197) CFA_SP SP+0
        CFI (cfiCond197) CFA_XSP16 add(XSP16, 12)
        CFI Block cfiCond198 Using cfiCommon0
        CFI (cfiCond198) NoFunction
        CFI (cfiCond198) Conditional ??CrossCallReturnLabel_79
        CFI (cfiCond198) R6 load(1, XDATA, add(CFA_XSP16, literal(-9)))
        CFI (cfiCond198) VB load(1, XDATA, add(CFA_XSP16, literal(-8)))
        CFI (cfiCond198) V0 load(1, XDATA, add(CFA_XSP16, literal(-7)))
        CFI (cfiCond198) R7 load(1, XDATA, add(CFA_XSP16, literal(-6)))
        CFI (cfiCond198) ?RET_LOW load(1, XDATA, add(CFA_XSP16, literal(-5)))
        CFI (cfiCond198) ?RET_HIGH load(1, XDATA, add(CFA_XSP16, literal(-4)))
        CFI (cfiCond198) ?BRET_EXT load(1, XDATA, add(CFA_XSP16, literal(-3)))
        CFI (cfiCond198) DPL0 load(1, XDATA, add(CFA_XSP16, literal(-2)))
        CFI (cfiCond198) DPH0 load(1, XDATA, add(CFA_XSP16, literal(-1)))
        CFI (cfiCond198) CFA_SP SP+0
        CFI (cfiCond198) CFA_XSP16 add(XSP16, 14)
        CFI Block cfiPicker199 Using cfiCommon1
        CFI (cfiPicker199) NoFunction
        CFI (cfiPicker199) Picker
        MOV     A,R2
        MOVX    @DPTR,A
        INC     DPTR
        MOV     A,R3
        MOVX    @DPTR,A
        RET
        CFI EndBlock cfiCond193
        CFI EndBlock cfiCond194
        CFI EndBlock cfiCond195
        CFI EndBlock cfiCond196
        CFI EndBlock cfiCond197
        CFI EndBlock cfiCond198
        CFI EndBlock cfiPicker199

        RSEG XDATA_ID:CODE:NOROOT(0)
`?<Initializer for zdoDiscCounter>`:
        DATA8
        DB 1

        RSEG XDATA_ID:CODE:NOROOT(0)
`?<Initializer for continueJoining>`:
        DATA8
        DB 1

        RSEG XDATA_ID:CODE:NOROOT(0)
`?<Initializer for ZDApp_epDesc>`:
        DATA8
        DB 0
        DATA16
        DW ZDAppTaskID
        DW 0H
        DATA8
        DB 0

        RSEG XDATA_ID:CODE:NOROOT(0)
`?<Initializer for ZDApp_SavedPollRate>`:
        DATA16
        DW 1000

        RSEG XDATA_ROM_C:CONST:REORDER:NOROOT(0)
        DATA32
__Constant_1:
        DD 1

        RSEG XDATA_ROM_C:CONST:REORDER:NOROOT(0)
        DATA32
__Constant_3e8:
        DD 1000

        RSEG BANK_RELAYS:CODE:REORDER:NOROOT(0)
??ZDApp_Init?relay:
        LCALL   ?BDISPATCH
        DATA
        DC24    ZDApp_Init

        RSEG BANK_RELAYS:CODE:REORDER:NOROOT(0)
??ZDApp_SecInit?relay:
        LCALL   ?BDISPATCH
        DATA
        DC24    ZDApp_SecInit

        RSEG BANK_RELAYS:CODE:REORDER:NOROOT(0)
??ZDApp_event_loop?relay:
        LCALL   ?BDISPATCH
        DATA
        DC24    ZDApp_event_loop

        RSEG BANK_RELAYS:CODE:REORDER:NOROOT(0)
??ZDApp_ProcessSecEvent?relay:
        LCALL   ?BDISPATCH
        DATA
        DC24    ZDApp_ProcessSecEvent

        RSEG BANK_RELAYS:CODE:REORDER:NOROOT(0)
??ZDOInitDevice?relay:
        LCALL   ?BDISPATCH
        DATA
        DC24    ZDOInitDevice

        RSEG BANK_RELAYS:CODE:REORDER:NOROOT(0)
??ZDApp_ReadNetworkRestoreState?relay:
        LCALL   ?BDISPATCH
        DATA
        DC24    ZDApp_ReadNetworkRestoreState

        RSEG BANK_RELAYS:CODE:REORDER:NOROOT(0)
??ZDAppDetermineDeviceType?relay:
        LCALL   ?BDISPATCH
        DATA
        DC24    ZDAppDetermineDeviceType

        RSEG BANK_RELAYS:CODE:REORDER:NOROOT(0)
??ZDApp_NetworkStartEvt?relay:
        LCALL   ?BDISPATCH
        DATA
        DC24    ZDApp_NetworkStartEvt

        RSEG BANK_RELAYS:CODE:REORDER:NOROOT(0)
??ZDApp_DeviceAuthEvt?relay:
        LCALL   ?BDISPATCH
        DATA
        DC24    ZDApp_DeviceAuthEvt

        RSEG BANK_RELAYS:CODE:REORDER:NOROOT(0)
??ZDApp_SaveNetworkStateEvt?relay:
        LCALL   ?BDISPATCH
        DATA
        DC24    ZDApp_SaveNetworkStateEvt

        RSEG BANK_RELAYS:CODE:REORDER:NOROOT(0)
??ZDApp_RestoreNetworkState?relay:
        LCALL   ?BDISPATCH
        DATA
        DC24    ZDApp_RestoreNetworkState

        RSEG BANK_RELAYS:CODE:REORDER:NOROOT(0)
??ZDApp_InitUserDesc?relay:
        LCALL   ?BDISPATCH
        DATA
        DC24    ZDApp_InitUserDesc

        RSEG BANK_RELAYS:CODE:REORDER:NOROOT(0)
??ZDAppCheckForHoldKey?relay:
        LCALL   ?BDISPATCH
        DATA
        DC24    ZDAppCheckForHoldKey

        RSEG BANK_RELAYS:CODE:REORDER:NOROOT(0)
??ZDApp_ProcessOSALMsg?relay:
        LCALL   ?BDISPATCH
        DATA
        DC24    ZDApp_ProcessOSALMsg

        RSEG BANK_RELAYS:CODE:REORDER:NOROOT(0)
??ZDApp_ProcessMsgCBs?relay:
        LCALL   ?BDISPATCH
        DATA
        DC24    ZDApp_ProcessMsgCBs

        RSEG BANK_RELAYS:CODE:REORDER:NOROOT(0)
??ZDApp_RegisterCBs?relay:
        LCALL   ?BDISPATCH
        DATA
        DC24    ZDApp_RegisterCBs

        RSEG BANK_RELAYS:CODE:REORDER:NOROOT(0)
??ZDApp_ProcessSecMsg?relay:
        LCALL   ?BDISPATCH
        DATA
        DC24    ZDApp_ProcessSecMsg

        RSEG BANK_RELAYS:CODE:REORDER:NOROOT(0)
??ZDApp_ProcessNetworkJoin?relay:
        LCALL   ?BDISPATCH
        DATA
        DC24    ZDApp_ProcessNetworkJoin

        RSEG BANK_RELAYS:CODE:REORDER:NOROOT(0)
??ZDApp_SaveNwkKey?relay:
        LCALL   ?BDISPATCH
        DATA
        DC24    ZDApp_SaveNwkKey

        RSEG BANK_RELAYS:CODE:REORDER:NOROOT(0)
??ZDApp_ResetNwkKey?relay:
        LCALL   ?BDISPATCH
        DATA
        DC24    ZDApp_ResetNwkKey

        RSEG BANK_RELAYS:CODE:REORDER:NOROOT(0)
??ZDApp_RestoreNwkKey?relay:
        LCALL   ?BDISPATCH
        DATA
        DC24    ZDApp_RestoreNwkKey

        RSEG BANK_RELAYS:CODE:REORDER:NOROOT(0)
??ZDApp_ResetTimerStart?relay:
        LCALL   ?BDISPATCH
        DATA
        DC24    ZDApp_ResetTimerStart

        RSEG BANK_RELAYS:CODE:REORDER:NOROOT(0)
??ZDApp_ResetTimerCancel?relay:
        LCALL   ?BDISPATCH
        DATA
        DC24    ZDApp_ResetTimerCancel

        RSEG BANK_RELAYS:CODE:REORDER:NOROOT(0)
??ZDApp_LeaveCtrlInit?relay:
        LCALL   ?BDISPATCH
        DATA
        DC24    ZDApp_LeaveCtrlInit

        RSEG BANK_RELAYS:CODE:REORDER:NOROOT(0)
??ZDApp_LeaveCtrlSet?relay:
        LCALL   ?BDISPATCH
        DATA
        DC24    ZDApp_LeaveCtrlSet

        RSEG BANK_RELAYS:CODE:REORDER:NOROOT(0)
??ZDApp_LeaveCtrlBypass?relay:
        LCALL   ?BDISPATCH
        DATA
        DC24    ZDApp_LeaveCtrlBypass

        RSEG BANK_RELAYS:CODE:REORDER:NOROOT(0)
??ZDApp_LeaveCtrlStartup?relay:
        LCALL   ?BDISPATCH
        DATA
        DC24    ZDApp_LeaveCtrlStartup

        RSEG BANK_RELAYS:CODE:REORDER:NOROOT(0)
??ZDApp_LeaveReset?relay:
        LCALL   ?BDISPATCH
        DATA
        DC24    ZDApp_LeaveReset

        RSEG BANK_RELAYS:CODE:REORDER:NOROOT(0)
??ZDApp_LeaveUpdate?relay:
        LCALL   ?BDISPATCH
        DATA
        DC24    ZDApp_LeaveUpdate

        RSEG BANK_RELAYS:CODE:REORDER:NOROOT(0)
??ZDApp_SendEventMsg?relay:
        LCALL   ?BDISPATCH
        DATA
        DC24    ZDApp_SendEventMsg

        RSEG BANK_RELAYS:CODE:REORDER:NOROOT(0)
??ZDApp_SendMsg?relay:
        LCALL   ?BDISPATCH
        DATA
        DC24    ZDApp_SendMsg

        RSEG BANK_RELAYS:CODE:REORDER:NOROOT(0)
??ZDO_NetworkDiscoveryConfirmCB?relay:
        LCALL   ?BDISPATCH
        DATA
        DC24    ZDO_NetworkDiscoveryConfirmCB

        RSEG BANK_RELAYS:CODE:REORDER:NOROOT(0)
??ZDO_NetworkFormationConfirmCB?relay:
        LCALL   ?BDISPATCH
        DATA
        DC24    ZDO_NetworkFormationConfirmCB

        RSEG BANK_RELAYS:CODE:REORDER:NOROOT(0)
??ZDO_StartRouterConfirmCB?relay:
        LCALL   ?BDISPATCH
        DATA
        DC24    ZDO_StartRouterConfirmCB

        RSEG BANK_RELAYS:CODE:REORDER:NOROOT(0)
??ZDO_JoinConfirmCB?relay:
        LCALL   ?BDISPATCH
        DATA
        DC24    ZDO_JoinConfirmCB

        RSEG BANK_RELAYS:CODE:REORDER:NOROOT(0)
??ZDO_AddrChangeIndicationCB?relay:
        LCALL   ?BDISPATCH
        DATA
        DC24    ZDO_AddrChangeIndicationCB

        RSEG BANK_RELAYS:CODE:REORDER:NOROOT(0)
??ZDO_JoinIndicationCB?relay:
        LCALL   ?BDISPATCH
        DATA
        DC24    ZDO_JoinIndicationCB

        RSEG BANK_RELAYS:CODE:REORDER:NOROOT(0)
??ZDO_ConcentratorIndicationCB?relay:
        LCALL   ?BDISPATCH
        DATA
        DC24    ZDO_ConcentratorIndicationCB

        RSEG BANK_RELAYS:CODE:REORDER:NOROOT(0)
??ZDO_LeaveCnf?relay:
        LCALL   ?BDISPATCH
        DATA
        DC24    ZDO_LeaveCnf

        RSEG BANK_RELAYS:CODE:REORDER:NOROOT(0)
??ZDO_LeaveInd?relay:
        LCALL   ?BDISPATCH
        DATA
        DC24    ZDO_LeaveInd

        RSEG BANK_RELAYS:CODE:REORDER:NOROOT(0)
??ZDO_SyncIndicationCB?relay:
        LCALL   ?BDISPATCH
        DATA
        DC24    ZDO_SyncIndicationCB

        RSEG BANK_RELAYS:CODE:REORDER:NOROOT(0)
??ZDO_ManytoOneFailureIndicationCB?relay:
        LCALL   ?BDISPATCH
        DATA
        DC24    ZDO_ManytoOneFailureIndicationCB

        RSEG BANK_RELAYS:CODE:REORDER:NOROOT(0)
??ZDO_PollConfirmCB?relay:
        LCALL   ?BDISPATCH
        DATA
        DC24    ZDO_PollConfirmCB

        RSEG BANK_RELAYS:CODE:REORDER:NOROOT(0)
??AddrMgrWriteNVRequest?relay:
        LCALL   ?BDISPATCH
        DATA
        DC24    AddrMgrWriteNVRequest

        RSEG BANK_RELAYS:CODE:REORDER:NOROOT(0)
??ZDO_UpdateDeviceIndication?relay:
        LCALL   ?BDISPATCH
        DATA
        DC24    ZDO_UpdateDeviceIndication

        RSEG BANK_RELAYS:CODE:REORDER:NOROOT(0)
??ZDApp_InMsgCB?relay:
        LCALL   ?BDISPATCH
        DATA
        DC24    ZDApp_InMsgCB

        RSEG BANK_RELAYS:CODE:REORDER:NOROOT(0)
??ZDApp_ChangeMatchDescRespPermission?relay:
        LCALL   ?BDISPATCH
        DATA
        DC24    ZDApp_ChangeMatchDescRespPermission

        RSEG BANK_RELAYS:CODE:REORDER:NOROOT(0)
??ZDApp_NetworkInit?relay:
        LCALL   ?BDISPATCH
        DATA
        DC24    ZDApp_NetworkInit

        RSEG BANK_RELAYS:CODE:REORDER:NOROOT(0)
??ZDApp_NwkStateUpdateCB?relay:
        LCALL   ?BDISPATCH
        DATA
        DC24    ZDApp_NwkStateUpdateCB

        RSEG BANK_RELAYS:CODE:REORDER:NOROOT(0)
??ZDApp_NodeProfileSync?relay:
        LCALL   ?BDISPATCH
        DATA
        DC24    ZDApp_NodeProfileSync

        RSEG BANK_RELAYS:CODE:REORDER:NOROOT(0)
??ZDApp_StartJoiningCycle?relay:
        LCALL   ?BDISPATCH
        DATA
        DC24    ZDApp_StartJoiningCycle

        RSEG BANK_RELAYS:CODE:REORDER:NOROOT(0)
??ZDApp_StopJoiningCycle?relay:
        LCALL   ?BDISPATCH
        DATA
        DC24    ZDApp_StopJoiningCycle

        RSEG BANK_RELAYS:CODE:REORDER:NOROOT(0)
??ZDApp_AnnounceNewAddress?relay:
        LCALL   ?BDISPATCH
        DATA
        DC24    ZDApp_AnnounceNewAddress

        RSEG BANK_RELAYS:CODE:REORDER:NOROOT(0)
??ZDApp_NVUpdate?relay:
        LCALL   ?BDISPATCH
        DATA
        DC24    ZDApp_NVUpdate

        RSEG BANK_RELAYS:CODE:REORDER:NOROOT(0)
??ZDApp_CoordStartPANIDConflictCB?relay:
        LCALL   ?BDISPATCH
        DATA
        DC24    ZDApp_CoordStartPANIDConflictCB

        RSEG BANK_RELAYS:CODE:REORDER:NOROOT(0)
??ZDO_SrcRtgIndCB?relay:
        LCALL   ?BDISPATCH
        DATA
        DC24    ZDO_SrcRtgIndCB

        RSEG BANK_RELAYS:CODE:REORDER:NOROOT(0)
??ZDO_RegisterForZdoCB?relay:
        LCALL   ?BDISPATCH
        DATA
        DC24    ZDO_RegisterForZdoCB

        END
// 2679 
// 2680 /*********************************************************************
// 2681 *********************************************************************/
// 
// 4 527 bytes in segment BANKED_CODE
//   342 bytes in segment BANK_RELAYS
//     2 bytes in segment SFR_AN
//    10 bytes in segment XDATA_I
//    10 bytes in segment XDATA_ID
//     8 bytes in segment XDATA_ROM_C
//    44 bytes in segment XDATA_Z
// 
// 4 879 bytes of CODE  memory
//     0 bytes of CONST memory (+ 8 bytes shared)
//     0 bytes of DATA  memory (+ 2 bytes shared)
//    54 bytes of XDATA memory
//
//Errors: none
//Warnings: none
