///////////////////////////////////////////////////////////////////////////////
//                                                                            /
// IAR C/C++ Compiler V8.10.3.10338/W32 for 8051        25/Jan/2016  17:24:25 /
// Copyright 2004-2011 IAR Systems AB.                                        /
//                                                                            /
//    Core               =  plain                                             /
//    Code model         =  banked                                            /
//    Data model         =  large                                             /
//    Calling convention =  xdata reentrant                                   /
//    Constant location  =  data_rom                                          /
//    Dptr setup         =  1,16                                              /
//    Source file        =  E:\Work Codes\ZigBee\Network\Projects\zstack\Samp /
//                          les\TestApp\Source\ExtHAL\DS18B20.c               /
//    Command line       =  -f "E:\Work Codes\ZigBee\Network\Projects\zstack\ /
//                          Samples\TestApp\CC2530DB\..\..\..\Tools\CC2530DB\ /
//                          f8wEndev.cfg" (-DCPU32MHZ -DROOT=__near_func      /
//                          -DBLINK_LEDS) -f "E:\Work                         /
//                          Codes\ZigBee\Network\Projects\zstack\Samples\Test /
//                          App\CC2530DB\..\..\..\Tools\CC2530DB\f8wConfig.cf /
//                          g" (-DSECURE=0 -DZG_SECURE_DYNAMIC=0 -DREFLECTOR  /
//                          -DDEFAULT_CHANLIST=0x00000800                     /
//                          -DZDAPP_CONFIG_PAN_ID=0xFFFB                      /
//                          -DNWK_START_DELAY=100 -DEXTENDED_JOINING_RANDOM_M /
//                          ASK=0x007F -DBEACON_REQUEST_DELAY=100             /
//                          -DBEACON_REQ_DELAY_MASK=0x00FF                    /
//                          -DROUTE_EXPIRY_TIME=30 -DAPSC_ACK_WAIT_DURATION_P /
//                          OLLED=3000 -DNWK_INDIRECT_MSG_TIMEOUT=7           /
//                          -DMAX_RREQ_ENTRIES=8 -DAPSC_MAX_FRAME_RETRIES=3   /
//                          -DNWK_MAX_DATA_RETRIES=2                          /
//                          -DMAX_POLL_FAILURE_RETRIES=2 -DMAX_BCAST=9        /
//                          -DAPS_MAX_GROUPS=16 -DMAX_RTG_ENTRIES=40          /
//                          -DNWK_MAX_BINDING_ENTRIES=4                       /
//                          -DMAX_BINDING_CLUSTER_IDS=4                       /
//                          "-DDEFAULT_KEY={0x01, 0x03, 0x05, 0x07, 0x09,     /
//                          0x0B, 0x0D, 0x0F, 0x00, 0x02, 0x04, 0x06, 0x08,   /
//                          0x0A, 0x0C, 0x0D}" -DMAC_MAX_FRAME_SIZE=116       /
//                          "-DCONST=const __code" -DGENERIC=__generic        /
//                          -DRFD_RCVC_ALWAYS_ON=FALSE -DPOLL_RATE=1000       /
//                          -DQUEUED_POLL_RATE=100 -DRESPONSE_POLL_RATE=100)  /
//                          -DREJOIN_POLL_RATE=440 "E:\Work                   /
//                          Codes\ZigBee\Network\Projects\zstack\Samples\Test /
//                          App\Source\ExtHAL\DS18B20.c" -D NWK_AUTO_POLL -D  /
//                          ZTOOL_P1 -D xMT_TASK -D xMT_SYS_FUNC -D           /
//                          xMT_ZDO_FUNC -D LCD_SUPPORTED=DEBUG -D            /
//                          xPOWER_SAVING -D DHT11 -D DS18B20 -lC "E:\Work    /
//                          Codes\ZigBee\Network\Projects\zstack\Samples\Test /
//                          App\CC2530DB\EndDeviceEB\List\" -lA "E:\Work      /
//                          Codes\ZigBee\Network\Projects\zstack\Samples\Test /
//                          App\CC2530DB\EndDeviceEB\List\" --diag_suppress   /
//                          Pe001,Pa010 -o "E:\Work                           /
//                          Codes\ZigBee\Network\Projects\zstack\Samples\Test /
//                          App\CC2530DB\EndDeviceEB\Obj\" -e --debug         /
//                          --core=plain --dptr=16,1 --data_model=large       /
//                          --code_model=banked --calling_convention=xdata_re /
//                          entrant --place_constants=data_rom                /
//                          --nr_virtual_regs 16 -I "E:\Work                  /
//                          Codes\ZigBee\Network\Projects\zstack\Samples\Test /
//                          App\CC2530DB\" -I "E:\Work                        /
//                          Codes\ZigBee\Network\Projects\zstack\Samples\Test /
//                          App\CC2530DB\..\SOURCE\" -I "E:\Work              /
//                          Codes\ZigBee\Network\Projects\zstack\Samples\Test /
//                          App\CC2530DB\..\SOURCE\ExtHAL\" -I "E:\Work       /
//                          Codes\ZigBee\Network\Projects\zstack\Samples\Test /
//                          App\CC2530DB\..\..\..\ZMAIN\TI2530DB\" -I         /
//                          "E:\Work Codes\ZigBee\Network\Projects\zstack\Sam /
//                          ples\TestApp\CC2530DB\..\..\..\..\..\COMPONENTS\M /
//                          T\" -I "E:\Work Codes\ZigBee\Network\Projects\zst /
//                          ack\Samples\TestApp\CC2530DB\..\..\..\..\..\COMPO /
//                          NENTS\HAL\INCLUDE\" -I "E:\Work                   /
//                          Codes\ZigBee\Network\Projects\zstack\Samples\Test /
//                          App\CC2530DB\..\..\..\..\..\COMPONENTS\HAL\TARGET /
//                          \CC2530EB\" -I "E:\Work                           /
//                          Codes\ZigBee\Network\Projects\zstack\Samples\Test /
//                          App\CC2530DB\..\..\..\..\..\COMPONENTS\OSAL\MCU\C /
//                          CSOC\" -I "E:\Work Codes\ZigBee\Network\Projects\ /
//                          zstack\Samples\TestApp\CC2530DB\..\..\..\..\..\CO /
//                          MPONENTS\OSAL\INCLUDE\" -I "E:\Work               /
//                          Codes\ZigBee\Network\Projects\zstack\Samples\Test /
//                          App\CC2530DB\..\..\..\..\..\COMPONENTS\STACK\AF\" /
//                           -I "E:\Work Codes\ZigBee\Network\Projects\zstack /
//                          \Samples\TestApp\CC2530DB\..\..\..\..\..\COMPONEN /
//                          TS\STACK\NWK\" -I "E:\Work                        /
//                          Codes\ZigBee\Network\Projects\zstack\Samples\Test /
//                          App\CC2530DB\..\..\..\..\..\COMPONENTS\STACK\SEC\ /
//                          " -I "E:\Work Codes\ZigBee\Network\Projects\zstac /
//                          k\Samples\TestApp\CC2530DB\..\..\..\..\..\COMPONE /
//                          NTS\STACK\SAPI\" -I "E:\Work                      /
//                          Codes\ZigBee\Network\Projects\zstack\Samples\Test /
//                          App\CC2530DB\..\..\..\..\..\COMPONENTS\STACK\SYS\ /
//                          " -I "E:\Work Codes\ZigBee\Network\Projects\zstac /
//                          k\Samples\TestApp\CC2530DB\..\..\..\..\..\COMPONE /
//                          NTS\STACK\ZDO\" -I "E:\Work                       /
//                          Codes\ZigBee\Network\Projects\zstack\Samples\Test /
//                          App\CC2530DB\..\..\..\..\..\COMPONENTS\ZMAC\F8W\" /
//                           -I "E:\Work Codes\ZigBee\Network\Projects\zstack /
//                          \Samples\TestApp\CC2530DB\..\..\..\..\..\COMPONEN /
//                          TS\ZMAC\" -I "E:\Work Codes\ZigBee\Network\Projec /
//                          ts\zstack\Samples\TestApp\CC2530DB\..\..\..\..\.. /
//                          \COMPONENTS\SERVICES\SADDR\" -I "E:\Work          /
//                          Codes\ZigBee\Network\Projects\zstack\Samples\Test /
//                          App\CC2530DB\..\..\..\..\..\COMPONENTS\SERVICES\S /
//                          DATA\" -I "E:\Work Codes\ZigBee\Network\Projects\ /
//                          zstack\Samples\TestApp\CC2530DB\..\..\..\..\..\CO /
//                          MPONENTS\MAC\INCLUDE\" -I "E:\Work                /
//                          Codes\ZigBee\Network\Projects\zstack\Samples\Test /
//                          App\CC2530DB\..\..\..\..\..\COMPONENTS\MAC\HIGH_L /
//                          EVEL\" -I "E:\Work Codes\ZigBee\Network\Projects\ /
//                          zstack\Samples\TestApp\CC2530DB\..\..\..\..\..\CO /
//                          MPONENTS\MAC\LOW_LEVEL\srf04\" -I "E:\Work        /
//                          Codes\ZigBee\Network\Projects\zstack\Samples\Test /
//                          App\CC2530DB\..\..\..\..\..\COMPONENTS\MAC\LOW_LE /
//                          VEL\srf04\SINGLE_CHIP\" -Ohz --require_prototypes /
//    List file          =  E:\Work Codes\ZigBee\Network\Projects\zstack\Samp /
//                          les\TestApp\CC2530DB\EndDeviceEB\List\DS18B20.s51 /
//                                                                            /
//                                                                            /
///////////////////////////////////////////////////////////////////////////////

        NAME DS18B20

        RTMODEL "__SystemLibrary", "CLib"
        RTMODEL "__calling_convention", "xdata_reentrant"
        RTMODEL "__code_model", "banked"
        RTMODEL "__core", "plain"
        RTMODEL "__data_model", "large"
        RTMODEL "__dptr_size", "16"
        RTMODEL "__extended_stack", "disabled"
        RTMODEL "__location_for_constants", "data"
        RTMODEL "__number_of_dptrs", "1"
        RTMODEL "__rt_version", "1"

        RSEG DOVERLAY:DATA:NOROOT(0)
        RSEG IOVERLAY:IDATA:NOROOT(0)
        RSEG ISTACK:IDATA:NOROOT(0)
        RSEG PSTACK:XDATA:NOROOT(0)
        RSEG XSTACK:XDATA:NOROOT(0)

        EXTERN ?BANKED_ENTER_XDATA
        EXTERN ?BANKED_LEAVE_XDATA
        EXTERN ?BDISPATCH
        EXTERN ?BRET
        EXTERN ?FLT_MUL
        EXTERN ?L_MOV_X
        EXTERN ?L_TO_FLT
        EXTERN ?SS_SHR
        EXTERN ?V0
        EXTERN __INIT_XDATA_I

        PUBLIC ??dsInit?relay
        FUNCTION ??dsInit?relay,0203H
        PUBLIC ??dsReadT?relay
        FUNCTION ??dsReadT?relay,0203H
        PUBLIC ??ds_delay_ms?relay
        FUNCTION ??ds_delay_ms?relay,0203H
        PUBLIC ??ds_delay_us?relay
        FUNCTION ??ds_delay_us?relay,0203H
        PUBLIC ??oneWireCheck?relay
        FUNCTION ??oneWireCheck?relay,0203H
        PUBLIC ??oneWireRead?relay
        FUNCTION ??oneWireRead?relay,0203H
        PUBLIC ??oneWireReset?relay
        FUNCTION ??oneWireReset?relay,0203H
        PUBLIC ??oneWireWrite?relay
        FUNCTION ??oneWireWrite?relay,0203H
        PUBWEAK P0DIR
        PUBWEAK P0INP
        PUBWEAK P0SEL
        PUBWEAK P2INP
        PUBWEAK _A_P0
        PUBWEAK __Constant_3d800000
        PUBLIC dsInit
        FUNCTION dsInit,021203H
        ARGFRAME XSTACK, 16, STACK
        ARGFRAME IOVERLAY, 0, STATIC
        ARGFRAME DOVERLAY, 0, STATIC
        LOCFRAME ISTACK, 2, STACK
        PUBLIC dsReadT
        FUNCTION dsReadT,021203H
        ARGFRAME XSTACK, 0, STACK
        LOCFRAME XSTACK, 16, STACK
        PUBLIC ds_delay_ms
        FUNCTION ds_delay_ms,021203H
        ARGFRAME XSTACK, 0, STACK
        LOCFRAME XSTACK, 9, STACK
        PUBLIC ds_delay_us
        FUNCTION ds_delay_us,080203H
        ARGFRAME XSTACK, 11, STACK
        ARGFRAME IOVERLAY, 0, STATIC
        ARGFRAME DOVERLAY, 0, STATIC
        PUBLIC oneWireCheck
        FUNCTION oneWireCheck,021203H
        ARGFRAME XSTACK, 16, STACK
        ARGFRAME IOVERLAY, 0, STATIC
        ARGFRAME DOVERLAY, 0, STATIC
        LOCFRAME XSTACK, 9, STACK
        PUBLIC oneWireRead
        FUNCTION oneWireRead,021203H
        ARGFRAME XSTACK, 16, STACK
        ARGFRAME IOVERLAY, 0, STATIC
        ARGFRAME DOVERLAY, 0, STATIC
        LOCFRAME XSTACK, 9, STACK
        PUBLIC oneWireReset
        FUNCTION oneWireReset,021203H
        ARGFRAME XSTACK, 16, STACK
        ARGFRAME IOVERLAY, 0, STATIC
        ARGFRAME DOVERLAY, 0, STATIC
        LOCFRAME ISTACK, 2, STACK
        PUBLIC oneWireWrite
        FUNCTION oneWireWrite,021203H
        ARGFRAME XSTACK, 16, STACK
        ARGFRAME IOVERLAY, 0, STATIC
        ARGFRAME DOVERLAY, 0, STATIC
        LOCFRAME XSTACK, 11, STACK
        
        CFI Names cfiNames0
        CFI StackFrame CFA_SP SP IDATA
        CFI StackFrame CFA_PSP16 PSP16 XDATA
        CFI StackFrame CFA_XSP16 XSP16 XDATA
        CFI StaticOverlayFrame CFA_IOVERLAY IOVERLAY
        CFI StaticOverlayFrame CFA_DOVERLAY DOVERLAY
        CFI Resource `PSW.CY`:1, `B.BR0`:1, `B.BR1`:1, `B.BR2`:1, `B.BR3`:1
        CFI Resource `B.BR4`:1, `B.BR5`:1, `B.BR6`:1, `B.BR7`:1, `VB.BR8`:1
        CFI Resource `VB.BR9`:1, `VB.BR10`:1, `VB.BR11`:1, `VB.BR12`:1
        CFI Resource `VB.BR13`:1, `VB.BR14`:1, `VB.BR15`:1, VB:8, B:8, A:8
        CFI Resource PSW:8, DPL0:8, DPH0:8, R0:8, R1:8, R2:8, R3:8, R4:8, R5:8
        CFI Resource R6:8, R7:8, V0:8, V1:8, V2:8, V3:8, V4:8, V5:8, V6:8, V7:8
        CFI Resource V8:8, V9:8, V10:8, V11:8, V12:8, V13:8, V14:8, V15:8, SP:8
        CFI Resource PSPH:8, PSPL:8, PSP16:16, XSPH:8, XSPL:8, XSP16:16
        CFI VirtualResource ?RET:24
        CFI Resource ?BRET_EXT:8
        CFI VirtualResource ?RET_HIGH:8, ?RET_LOW:8
        CFI ResourceParts PSP16 PSPH, PSPL
        CFI ResourceParts XSP16 XSPH, XSPL
        CFI ResourceParts ?RET ?BRET_EXT, ?RET_HIGH, ?RET_LOW
        CFI EndNames cfiNames0
        
        CFI Common cfiCommon0 Using cfiNames0
        CFI CodeAlign 1
        CFI DataAlign -1
        CFI ReturnAddress ?RET CODE
        CFI CFA_DOVERLAY Used
        CFI CFA_IOVERLAY Used
        CFI CFA_SP SP+-3
        CFI CFA_PSP16 PSP16+0
        CFI CFA_XSP16 XSP16+0
        CFI `PSW.CY` SameValue
        CFI `B.BR0` SameValue
        CFI `B.BR1` SameValue
        CFI `B.BR2` SameValue
        CFI `B.BR3` SameValue
        CFI `B.BR4` SameValue
        CFI `B.BR5` SameValue
        CFI `B.BR6` SameValue
        CFI `B.BR7` SameValue
        CFI `VB.BR8` SameValue
        CFI `VB.BR9` SameValue
        CFI `VB.BR10` SameValue
        CFI `VB.BR11` SameValue
        CFI `VB.BR12` SameValue
        CFI `VB.BR13` SameValue
        CFI `VB.BR14` SameValue
        CFI `VB.BR15` SameValue
        CFI VB SameValue
        CFI B Undefined
        CFI A Undefined
        CFI PSW SameValue
        CFI DPL0 SameValue
        CFI DPH0 SameValue
        CFI R0 Undefined
        CFI R1 Undefined
        CFI R2 Undefined
        CFI R3 Undefined
        CFI R4 Undefined
        CFI R5 Undefined
        CFI R6 SameValue
        CFI R7 SameValue
        CFI V0 SameValue
        CFI V1 SameValue
        CFI V2 SameValue
        CFI V3 SameValue
        CFI V4 SameValue
        CFI V5 SameValue
        CFI V6 SameValue
        CFI V7 SameValue
        CFI V8 SameValue
        CFI V9 SameValue
        CFI V10 SameValue
        CFI V11 SameValue
        CFI V12 SameValue
        CFI V13 SameValue
        CFI V14 SameValue
        CFI V15 SameValue
        CFI PSPH Undefined
        CFI PSPL Undefined
        CFI XSPH Undefined
        CFI XSPL Undefined
        CFI ?RET Concat
        CFI ?BRET_EXT Frame(CFA_SP, 3)
        CFI ?RET_HIGH Frame(CFA_SP, 2)
        CFI ?RET_LOW Frame(CFA_SP, 1)
        CFI EndCommon cfiCommon0
        
        
        CFI Common cfiCommon1 Using cfiNames0
        CFI CodeAlign 1
        CFI DataAlign -1
        CFI ReturnAddress ?RET CODE
        CFI CFA_DOVERLAY Used
        CFI CFA_IOVERLAY Used
        CFI CFA_SP SP+-2
        CFI CFA_PSP16 PSP16+0
        CFI CFA_XSP16 XSP16+0
        CFI `PSW.CY` SameValue
        CFI `B.BR0` SameValue
        CFI `B.BR1` SameValue
        CFI `B.BR2` SameValue
        CFI `B.BR3` SameValue
        CFI `B.BR4` SameValue
        CFI `B.BR5` SameValue
        CFI `B.BR6` SameValue
        CFI `B.BR7` SameValue
        CFI `VB.BR8` SameValue
        CFI `VB.BR9` SameValue
        CFI `VB.BR10` SameValue
        CFI `VB.BR11` SameValue
        CFI `VB.BR12` SameValue
        CFI `VB.BR13` SameValue
        CFI `VB.BR14` SameValue
        CFI `VB.BR15` SameValue
        CFI VB SameValue
        CFI B SameValue
        CFI A SameValue
        CFI PSW SameValue
        CFI DPL0 SameValue
        CFI DPH0 SameValue
        CFI R0 SameValue
        CFI R1 SameValue
        CFI R2 SameValue
        CFI R3 SameValue
        CFI R4 SameValue
        CFI R5 SameValue
        CFI R6 SameValue
        CFI R7 SameValue
        CFI V0 SameValue
        CFI V1 SameValue
        CFI V2 SameValue
        CFI V3 SameValue
        CFI V4 SameValue
        CFI V5 SameValue
        CFI V6 SameValue
        CFI V7 SameValue
        CFI V8 SameValue
        CFI V9 SameValue
        CFI V10 SameValue
        CFI V11 SameValue
        CFI V12 SameValue
        CFI V13 SameValue
        CFI V14 SameValue
        CFI V15 SameValue
        CFI PSPH Undefined
        CFI PSPL Undefined
        CFI XSPH Undefined
        CFI XSPL Undefined
        CFI ?RET Concat
        CFI ?BRET_EXT SameValue
        CFI ?RET_HIGH Frame(CFA_SP, 2)
        CFI ?RET_LOW Frame(CFA_SP, 1)
        CFI EndCommon cfiCommon1
        
dsInit              SYMBOL "dsInit"
??dsInit?relay      SYMBOL "?relay", dsInit
dsReadT             SYMBOL "dsReadT"
??dsReadT?relay     SYMBOL "?relay", dsReadT
ds_delay_ms         SYMBOL "ds_delay_ms"
??ds_delay_ms?relay SYMBOL "?relay", ds_delay_ms
ds_delay_us         SYMBOL "ds_delay_us"
??ds_delay_us?relay SYMBOL "?relay", ds_delay_us
oneWireCheck        SYMBOL "oneWireCheck"
??oneWireCheck?relay SYMBOL "?relay", oneWireCheck
oneWireRead         SYMBOL "oneWireRead"
??oneWireRead?relay SYMBOL "?relay", oneWireRead
oneWireReset        SYMBOL "oneWireReset"
??oneWireReset?relay SYMBOL "?relay", oneWireReset
oneWireWrite        SYMBOL "oneWireWrite"
??oneWireWrite?relay SYMBOL "?relay", oneWireWrite

// E:\Work Codes\ZigBee\Network\Projects\zstack\Samples\TestApp\Source\ExtHAL\DS18B20.c
//    1 #include "ds18b20.h"

        ASEGN SFR_AN:DATA:NOROOT,080H
// union <unnamed> volatile __sfr _A_P0
_A_P0:
        DATA8
        DS 1

        ASEGN SFR_AN:DATA:NOROOT,08fH
// unsigned char volatile __sfr P0INP
P0INP:
        DATA8
        DS 1

        ASEGN SFR_AN:DATA:NOROOT,0f3H
// unsigned char volatile __sfr P0SEL
P0SEL:
        DATA8
        DS 1

        ASEGN SFR_AN:DATA:NOROOT,0f7H
// unsigned char volatile __sfr P2INP
P2INP:
        DATA8
        DS 1

        ASEGN SFR_AN:DATA:NOROOT,0fdH
// unsigned char volatile __sfr P0DIR
P0DIR:
        DATA8
        DS 1
//    2 
//    3 

        RSEG BANKED_CODE:CODE:NOROOT(0)
//    4 unsigned char dsInit()
dsInit:
        CFI Block cfiBlock0 Using cfiCommon0
        CFI Function dsInit
        CODE
//    5 {
        FUNCALL dsInit, oneWireReset
        LOCFRAME ISTACK, 2, STACK
        LOCFRAME PSTACK, 0, STACK
        LOCFRAME XSTACK, 0, STACK
        LOCFRAME IOVERLAY, 0, STATIC
        LOCFRAME DOVERLAY, 0, STATIC
        ARGFRAME ISTACK, 2, STACK
        ARGFRAME PSTACK, 0, STACK
        ARGFRAME XSTACK, 0, STACK
        ARGFRAME IOVERLAY, 0, STATIC
        ARGFRAME DOVERLAY, 0, STATIC
        FUNCALL dsInit, oneWireCheck
        LOCFRAME ISTACK, 2, STACK
        LOCFRAME PSTACK, 0, STACK
        LOCFRAME XSTACK, 0, STACK
        LOCFRAME IOVERLAY, 0, STATIC
        LOCFRAME DOVERLAY, 0, STATIC
        ARGFRAME ISTACK, 2, STACK
        ARGFRAME PSTACK, 0, STACK
        ARGFRAME XSTACK, 0, STACK
        ARGFRAME IOVERLAY, 0, STATIC
        ARGFRAME DOVERLAY, 0, STATIC
        PUSH    DPL
        CFI DPL0 Frame(CFA_SP, 4)
        CFI CFA_SP SP+-4
        PUSH    DPH
        CFI DPH0 Frame(CFA_SP, 5)
        CFI CFA_SP SP+-5
        ; Saved register size: 2
        ; Auto size: 0
//    6 	gpio();						// P0_6 used as GPIO function
        ANL     0xf3,#0x7f
//    7 	outputMode();			// output mode
        ORL     0xfd,#0x80
//    8 	pullUp();					// pull-up
        ANL     0xf7,#0xdf
        ANL     0x8f,#0x7f
//    9 	
//   10 	oneWireReset();
        ; Setup parameters for call to function oneWireReset
        LCALL   ??oneWireReset?relay
//   11 	return oneWireCheck();
        ; Setup parameters for call to function oneWireCheck
        LCALL   ??oneWireCheck?relay
        CFI EndBlock cfiBlock0
        REQUIRE ?Subroutine0
        REQUIRE P0SEL
        REQUIRE P0DIR
        REQUIRE P2INP
        REQUIRE P0INP
        ; // Fall through to label ?Subroutine0
//   12 }

        RSEG BANKED_CODE:CODE:NOROOT(0)
?Subroutine0:
        CFI Block cfiBlock1 Using cfiCommon0
        CFI NoFunction
        CFI CFA_SP SP+-5
        CFI DPL0 Frame(CFA_SP, 4)
        CFI DPH0 Frame(CFA_SP, 5)
        POP     DPH
        CFI CFA_SP SP+-4
        CFI DPH0 SameValue
        POP     DPL
        CFI CFA_SP SP+-3
        CFI DPL0 SameValue
        LJMP    ?BRET
        CFI EndBlock cfiBlock1
//   13 

        RSEG BANKED_CODE:CODE:NOROOT(0)
//   14 float dsReadT()
dsReadT:
        CFI Block cfiBlock2 Using cfiCommon0
        CFI Function dsReadT
        CODE
//   15 {
        FUNCALL dsReadT, dsInit
        LOCFRAME ISTACK, 0, STACK
        LOCFRAME PSTACK, 0, STACK
        LOCFRAME XSTACK, 16, STACK
        LOCFRAME IOVERLAY, 0, STATIC
        LOCFRAME DOVERLAY, 0, STATIC
        ARGFRAME ISTACK, 0, STACK
        ARGFRAME PSTACK, 0, STACK
        ARGFRAME XSTACK, 16, STACK
        ARGFRAME IOVERLAY, 0, STATIC
        ARGFRAME DOVERLAY, 0, STATIC
        FUNCALL dsReadT, oneWireReset
        LOCFRAME ISTACK, 0, STACK
        LOCFRAME PSTACK, 0, STACK
        LOCFRAME XSTACK, 16, STACK
        LOCFRAME IOVERLAY, 0, STATIC
        LOCFRAME DOVERLAY, 0, STATIC
        ARGFRAME ISTACK, 0, STACK
        ARGFRAME PSTACK, 0, STACK
        ARGFRAME XSTACK, 16, STACK
        ARGFRAME IOVERLAY, 0, STATIC
        ARGFRAME DOVERLAY, 0, STATIC
        FUNCALL dsReadT, oneWireCheck
        LOCFRAME ISTACK, 0, STACK
        LOCFRAME PSTACK, 0, STACK
        LOCFRAME XSTACK, 16, STACK
        LOCFRAME IOVERLAY, 0, STATIC
        LOCFRAME DOVERLAY, 0, STATIC
        ARGFRAME ISTACK, 0, STACK
        ARGFRAME PSTACK, 0, STACK
        ARGFRAME XSTACK, 16, STACK
        ARGFRAME IOVERLAY, 0, STATIC
        ARGFRAME DOVERLAY, 0, STATIC
        FUNCALL dsReadT, oneWireWrite
        LOCFRAME ISTACK, 0, STACK
        LOCFRAME PSTACK, 0, STACK
        LOCFRAME XSTACK, 16, STACK
        LOCFRAME IOVERLAY, 0, STATIC
        LOCFRAME DOVERLAY, 0, STATIC
        ARGFRAME ISTACK, 0, STACK
        ARGFRAME PSTACK, 0, STACK
        ARGFRAME XSTACK, 16, STACK
        ARGFRAME IOVERLAY, 0, STATIC
        ARGFRAME DOVERLAY, 0, STATIC
        FUNCALL dsReadT, oneWireWrite
        LOCFRAME ISTACK, 0, STACK
        LOCFRAME PSTACK, 0, STACK
        LOCFRAME XSTACK, 16, STACK
        LOCFRAME IOVERLAY, 0, STATIC
        LOCFRAME DOVERLAY, 0, STATIC
        ARGFRAME ISTACK, 0, STACK
        ARGFRAME PSTACK, 0, STACK
        ARGFRAME XSTACK, 16, STACK
        ARGFRAME IOVERLAY, 0, STATIC
        ARGFRAME DOVERLAY, 0, STATIC
        FUNCALL dsReadT, oneWireRead
        LOCFRAME ISTACK, 0, STACK
        LOCFRAME PSTACK, 0, STACK
        LOCFRAME XSTACK, 16, STACK
        LOCFRAME IOVERLAY, 0, STATIC
        LOCFRAME DOVERLAY, 0, STATIC
        ARGFRAME ISTACK, 0, STACK
        ARGFRAME PSTACK, 0, STACK
        ARGFRAME XSTACK, 16, STACK
        ARGFRAME IOVERLAY, 0, STATIC
        ARGFRAME DOVERLAY, 0, STATIC
        FUNCALL dsReadT, oneWireReset
        LOCFRAME ISTACK, 0, STACK
        LOCFRAME PSTACK, 0, STACK
        LOCFRAME XSTACK, 16, STACK
        LOCFRAME IOVERLAY, 0, STATIC
        LOCFRAME DOVERLAY, 0, STATIC
        ARGFRAME ISTACK, 0, STACK
        ARGFRAME PSTACK, 0, STACK
        ARGFRAME XSTACK, 16, STACK
        ARGFRAME IOVERLAY, 0, STATIC
        ARGFRAME DOVERLAY, 0, STATIC
        FUNCALL dsReadT, oneWireCheck
        LOCFRAME ISTACK, 0, STACK
        LOCFRAME PSTACK, 0, STACK
        LOCFRAME XSTACK, 16, STACK
        LOCFRAME IOVERLAY, 0, STATIC
        LOCFRAME DOVERLAY, 0, STATIC
        ARGFRAME ISTACK, 0, STACK
        ARGFRAME PSTACK, 0, STACK
        ARGFRAME XSTACK, 16, STACK
        ARGFRAME IOVERLAY, 0, STATIC
        ARGFRAME DOVERLAY, 0, STATIC
        FUNCALL dsReadT, oneWireWrite
        LOCFRAME ISTACK, 0, STACK
        LOCFRAME PSTACK, 0, STACK
        LOCFRAME XSTACK, 16, STACK
        LOCFRAME IOVERLAY, 0, STATIC
        LOCFRAME DOVERLAY, 0, STATIC
        ARGFRAME ISTACK, 0, STACK
        ARGFRAME PSTACK, 0, STACK
        ARGFRAME XSTACK, 16, STACK
        ARGFRAME IOVERLAY, 0, STATIC
        ARGFRAME DOVERLAY, 0, STATIC
        FUNCALL dsReadT, oneWireWrite
        LOCFRAME ISTACK, 0, STACK
        LOCFRAME PSTACK, 0, STACK
        LOCFRAME XSTACK, 16, STACK
        LOCFRAME IOVERLAY, 0, STATIC
        LOCFRAME DOVERLAY, 0, STATIC
        ARGFRAME ISTACK, 0, STACK
        ARGFRAME PSTACK, 0, STACK
        ARGFRAME XSTACK, 16, STACK
        ARGFRAME IOVERLAY, 0, STATIC
        ARGFRAME DOVERLAY, 0, STATIC
        FUNCALL dsReadT, oneWireRead
        LOCFRAME ISTACK, 0, STACK
        LOCFRAME PSTACK, 0, STACK
        LOCFRAME XSTACK, 16, STACK
        LOCFRAME IOVERLAY, 0, STATIC
        LOCFRAME DOVERLAY, 0, STATIC
        ARGFRAME ISTACK, 0, STACK
        ARGFRAME PSTACK, 0, STACK
        ARGFRAME XSTACK, 16, STACK
        ARGFRAME IOVERLAY, 0, STATIC
        ARGFRAME DOVERLAY, 0, STATIC
        FUNCALL dsReadT, oneWireRead
        LOCFRAME ISTACK, 0, STACK
        LOCFRAME PSTACK, 0, STACK
        LOCFRAME XSTACK, 16, STACK
        LOCFRAME IOVERLAY, 0, STATIC
        LOCFRAME DOVERLAY, 0, STATIC
        ARGFRAME ISTACK, 0, STACK
        ARGFRAME PSTACK, 0, STACK
        ARGFRAME XSTACK, 16, STACK
        ARGFRAME IOVERLAY, 0, STATIC
        ARGFRAME DOVERLAY, 0, STATIC
        MOV     A,#-0x10
        LCALL   ?BANKED_ENTER_XDATA
        CFI DPH0 load(1, XDATA, add(CFA_XSP16, literal(-1)))
        CFI DPL0 load(1, XDATA, add(CFA_XSP16, literal(-2)))
        CFI ?BRET_EXT load(1, XDATA, add(CFA_XSP16, literal(-3)))
        CFI ?RET_HIGH load(1, XDATA, add(CFA_XSP16, literal(-4)))
        CFI ?RET_LOW load(1, XDATA, add(CFA_XSP16, literal(-5)))
        CFI R7 load(1, XDATA, add(CFA_XSP16, literal(-6)))
        CFI V7 load(1, XDATA, add(CFA_XSP16, literal(-7)))
        CFI V6 load(1, XDATA, add(CFA_XSP16, literal(-8)))
        CFI V5 load(1, XDATA, add(CFA_XSP16, literal(-9)))
        CFI V4 load(1, XDATA, add(CFA_XSP16, literal(-10)))
        CFI V3 load(1, XDATA, add(CFA_XSP16, literal(-11)))
        CFI V2 load(1, XDATA, add(CFA_XSP16, literal(-12)))
        CFI V1 load(1, XDATA, add(CFA_XSP16, literal(-13)))
        CFI V0 load(1, XDATA, add(CFA_XSP16, literal(-14)))
        CFI VB load(1, XDATA, add(CFA_XSP16, literal(-15)))
        CFI R6 load(1, XDATA, add(CFA_XSP16, literal(-16)))
        CFI CFA_SP SP+0
        CFI CFA_XSP16 add(XSP16, 16)
        ; Saved register size: 16
        ; Auto size: 0
//   16 	unsigned char temp1, temp2;
//   17 	unsigned int temp3;
//   18 	signed int temp4;
//   19 	float result;
//   20 	static unsigned char initFalg = 1;
//   21 	
//   22 	if ( initFalg )
        MOV     DPTR,#??initFalg
        MOVX    A,@DPTR
        JZ      ??dsReadT_0
//   23 	{
//   24 		if ( dsInit() == 0 )
        ; Setup parameters for call to function dsInit
        LCALL   ??dsInit?relay
        MOV     A,R1
        JNZ     ??dsReadT_1
//   25 		{		
//   26 			initFalg = 0;
        MOV     DPTR,#??initFalg
        CLR     A
        MOVX    @DPTR,A
//   27 		}
//   28 		else
//   29 		{
//   30 			return ( -10000.0 );
//   31 		}
//   32 	}	
//   33 	
//   34 	
//   35 	oneWireReset();
??dsReadT_0:
        ; Setup parameters for call to function oneWireReset
        LCALL   ?Subroutine2 & 0xFFFF
//   36 	if (oneWireCheck() == 1)
??CrossCallReturnLabel_0:
        JNZ     ??dsReadT_2
??dsReadT_1:
        MOV     R2,#0x0
        MOV     R3,#0x40
        MOV     R4,#0x1c
        MOV     R5,#-0x3a
        SJMP    ??dsReadT_3
//   37 		return ( -10000.0 );
//   38 	oneWireWrite(SKIP_ROM);
??dsReadT_2:
        ; Setup parameters for call to function oneWireWrite
        MOV     R2,#-0x34
        MOV     R3,#0x0
        LCALL   ??oneWireWrite?relay
//   39 	oneWireWrite(CONVERT_T);
        ; Setup parameters for call to function oneWireWrite
        MOV     R2,#0x44
        MOV     R3,#0x0
        LCALL   ??oneWireWrite?relay
//   40 	
//   41 /* The master can issue read time slots after the Convert T command and
//   42 ** the DS18B20 will respond by transmitting a 0 while the temperature 
//   43 ** conversion is in progress and a 1 when the conversion is done.
//   44 */	
//   45 	while (oneWireRead() == 0);	//check the DS18B20 if busy?
??dsReadT_4:
        ; Setup parameters for call to function oneWireRead
        LCALL   ??oneWireRead?relay
        MOV     A,R1
        JZ      ??dsReadT_4
//   46 	
//   47 	oneWireReset();
        ; Setup parameters for call to function oneWireReset
        LCALL   ?Subroutine2 & 0xFFFF
//   48 	if (oneWireCheck() == 1)
??CrossCallReturnLabel_1:
        JZ      ??dsReadT_1
//   49 		return ( -10000.0 );
//   50 	oneWireWrite(SKIP_ROM);
        ; Setup parameters for call to function oneWireWrite
        MOV     R2,#-0x34
        MOV     R3,#0x0
        LCALL   ??oneWireWrite?relay
//   51 	oneWireWrite(READ_REG);
        ; Setup parameters for call to function oneWireWrite
        MOV     R2,#-0x42
        MOV     R3,#0x0
        LCALL   ??oneWireWrite?relay
//   52 	
//   53 	temp1 = oneWireRead();		// Temperature LSB(50h)
        ; Setup parameters for call to function oneWireRead
        LCALL   ??oneWireRead?relay
        MOV     A,R1
        MOV     ?V0 + 0,A
//   54 	temp2 = oneWireRead();		// Temperature MSB(05h)
        ; Setup parameters for call to function oneWireRead
        LCALL   ??oneWireRead?relay
        MOV     A,R1
        MOV     R2,A
//   55 	temp3 = (unsigned int)( (temp2 << 8) | temp1);
//   56 	
//   57 	if (temp2 & 0xF8)		// 温度数据是否有符号位，若有则为负温度
        MOV     A,#-0x8
        ANL     A,R2
        JZ      ??dsReadT_5
//   58 		temp4 = ((temp3^0x7FFF) + 0x0001);	// 为负温度时，数据为补码，所以转换为负数的原码
        MOV     A,?V0 + 0
        CPL     A
        MOV     R0,A
        MOV     A,R1
        XRL     A,#0x7f
        MOV     R1,A
        MOV     A,R0
        ADD     A,#0x1
        MOV     ?V0 + 0,A
        MOV     A,R1
        ADDC    A,#0x0
        MOV     ?V0 + 1,A
        SJMP    ??dsReadT_6
//   59 	else
//   60 		temp4 = (signed int)temp3;
??dsReadT_5:
        MOV     ?V0 + 1,R1
//   61 	
//   62 	result = (float)(temp4 * 0.0625);	// Calculation for DS18S20 with 0.0625 deg C resolution
//   63 	//result = (float)temp4 / 16.0;
//   64 	//result = (float)temp4 / 2.0;		// Calculation for DS18S20 with 0.5 deg C resolution
//   65 	return result;
??dsReadT_6:
        MOV     A,?V0 + 1
        RLC     A
        SUBB    A,0xE0 /* A   */
        MOV     ?V0 + 2,A
        MOV     ?V0 + 3,A
        MOV     R0,#?V0 + 0
        LCALL   ?L_TO_FLT
        MOV     DPTR,#__Constant_3d800000
        MOV     R0,#?V0 + 4
        LCALL   ?L_MOV_X
        MOV     R0,#?V0 + 0
        MOV     R1,#?V0 + 4
        LCALL   ?FLT_MUL
        MOV     R2,?V0 + 0
        MOV     R3,?V0 + 1
        MOV     R4,?V0 + 2
        MOV     R5,?V0 + 3
??dsReadT_3:
        MOV     R7,#0x8
        LJMP    ?BANKED_LEAVE_XDATA
        CFI EndBlock cfiBlock2
//   66 }

        RSEG BANKED_CODE:CODE:NOROOT(0)
?Subroutine2:
        CFI Block cfiCond3 Using cfiCommon0
        CFI NoFunction
        CFI Conditional ??CrossCallReturnLabel_0
        CFI R6 load(1, XDATA, add(CFA_XSP16, literal(-16)))
        CFI VB load(1, XDATA, add(CFA_XSP16, literal(-15)))
        CFI V0 load(1, XDATA, add(CFA_XSP16, literal(-14)))
        CFI V1 load(1, XDATA, add(CFA_XSP16, literal(-13)))
        CFI V2 load(1, XDATA, add(CFA_XSP16, literal(-12)))
        CFI V3 load(1, XDATA, add(CFA_XSP16, literal(-11)))
        CFI V4 load(1, XDATA, add(CFA_XSP16, literal(-10)))
        CFI V5 load(1, XDATA, add(CFA_XSP16, literal(-9)))
        CFI V6 load(1, XDATA, add(CFA_XSP16, literal(-8)))
        CFI V7 load(1, XDATA, add(CFA_XSP16, literal(-7)))
        CFI R7 load(1, XDATA, add(CFA_XSP16, literal(-6)))
        CFI ?RET_LOW load(1, XDATA, add(CFA_XSP16, literal(-5)))
        CFI ?RET_HIGH load(1, XDATA, add(CFA_XSP16, literal(-4)))
        CFI ?BRET_EXT load(1, XDATA, add(CFA_XSP16, literal(-3)))
        CFI DPL0 load(1, XDATA, add(CFA_XSP16, literal(-2)))
        CFI DPH0 load(1, XDATA, add(CFA_XSP16, literal(-1)))
        CFI CFA_SP SP+0
        CFI CFA_XSP16 add(XSP16, 16)
        CFI Block cfiCond4 Using cfiCommon0
        CFI (cfiCond4) NoFunction
        CFI (cfiCond4) Conditional ??CrossCallReturnLabel_1
        CFI (cfiCond4) R6 load(1, XDATA, add(CFA_XSP16, literal(-16)))
        CFI (cfiCond4) VB load(1, XDATA, add(CFA_XSP16, literal(-15)))
        CFI (cfiCond4) V0 load(1, XDATA, add(CFA_XSP16, literal(-14)))
        CFI (cfiCond4) V1 load(1, XDATA, add(CFA_XSP16, literal(-13)))
        CFI (cfiCond4) V2 load(1, XDATA, add(CFA_XSP16, literal(-12)))
        CFI (cfiCond4) V3 load(1, XDATA, add(CFA_XSP16, literal(-11)))
        CFI (cfiCond4) V4 load(1, XDATA, add(CFA_XSP16, literal(-10)))
        CFI (cfiCond4) V5 load(1, XDATA, add(CFA_XSP16, literal(-9)))
        CFI (cfiCond4) V6 load(1, XDATA, add(CFA_XSP16, literal(-8)))
        CFI (cfiCond4) V7 load(1, XDATA, add(CFA_XSP16, literal(-7)))
        CFI (cfiCond4) R7 load(1, XDATA, add(CFA_XSP16, literal(-6)))
        CFI (cfiCond4) ?RET_LOW load(1, XDATA, add(CFA_XSP16, literal(-5)))
        CFI (cfiCond4) ?RET_HIGH load(1, XDATA, add(CFA_XSP16, literal(-4)))
        CFI (cfiCond4) ?BRET_EXT load(1, XDATA, add(CFA_XSP16, literal(-3)))
        CFI (cfiCond4) DPL0 load(1, XDATA, add(CFA_XSP16, literal(-2)))
        CFI (cfiCond4) DPH0 load(1, XDATA, add(CFA_XSP16, literal(-1)))
        CFI (cfiCond4) CFA_SP SP+0
        CFI (cfiCond4) CFA_XSP16 add(XSP16, 16)
        CFI Block cfiPicker5 Using cfiCommon1
        CFI (cfiPicker5) NoFunction
        CFI (cfiPicker5) Picker
        LCALL   ??oneWireReset?relay
        ; Setup parameters for call to function oneWireCheck
        ; Setup parameters for call to function oneWireCheck
        LCALL   ??oneWireCheck?relay
        MOV     A,R1
        XRL     A,#0x1
        RET
        CFI EndBlock cfiCond3
        CFI EndBlock cfiCond4
        CFI EndBlock cfiPicker5

        RSEG XDATA_I:XDATA:NOROOT(0)
??initFalg:
        DATA8
        DS 1
        REQUIRE `?<Initializer for initFalg>`
        REQUIRE __INIT_XDATA_I
//   67 
//   68 

        RSEG BANKED_CODE:CODE:NOROOT(0)
//   69 void oneWireReset()
oneWireReset:
        CFI Block cfiBlock6 Using cfiCommon0
        CFI Function oneWireReset
        CODE
//   70 {
        FUNCALL oneWireReset, ds_delay_us
        LOCFRAME ISTACK, 2, STACK
        LOCFRAME PSTACK, 0, STACK
        LOCFRAME XSTACK, 0, STACK
        LOCFRAME IOVERLAY, 0, STATIC
        LOCFRAME DOVERLAY, 0, STATIC
        ARGFRAME ISTACK, 2, STACK
        ARGFRAME PSTACK, 0, STACK
        ARGFRAME XSTACK, 0, STACK
        ARGFRAME IOVERLAY, 0, STATIC
        ARGFRAME DOVERLAY, 0, STATIC
        FUNCALL oneWireReset, ds_delay_us
        LOCFRAME ISTACK, 2, STACK
        LOCFRAME PSTACK, 0, STACK
        LOCFRAME XSTACK, 0, STACK
        LOCFRAME IOVERLAY, 0, STATIC
        LOCFRAME DOVERLAY, 0, STATIC
        ARGFRAME ISTACK, 2, STACK
        ARGFRAME PSTACK, 0, STACK
        ARGFRAME XSTACK, 0, STACK
        ARGFRAME IOVERLAY, 0, STATIC
        ARGFRAME DOVERLAY, 0, STATIC
        PUSH    DPL
        CFI DPL0 Frame(CFA_SP, 4)
        CFI CFA_SP SP+-4
        PUSH    DPH
        CFI DPH0 Frame(CFA_SP, 5)
        CFI CFA_SP SP+-5
        ; Saved register size: 2
        ; Auto size: 0
//   71 	outputMode();
        ORL     0xfd,#0x80
//   72 	outputHigh();
        SETB    0x80.7
//   73 	ds_delay_us(50);
        ; Setup parameters for call to function ds_delay_us
        MOV     R2,#0x32
        MOV     R3,#0x0
        LCALL   ??ds_delay_us?relay
//   74 	outputLow();			// pull the 1-wire bus low
        CLR     0x80.7
//   75 	ds_delay_us(500);		// pull the 1-wire bus low for reset pulse,  at least 480us
        ; Setup parameters for call to function ds_delay_us
        MOV     R2,#-0xc
        MOV     R3,#0x1
        LCALL   ??ds_delay_us?relay
//   76 	outputHigh();			// pull the 1-wire bus high for releases the bus
        SETB    0x80.7
//   77 //	delay_us(500);		// wait-out remaining initialisation window.
//   78 }
        LJMP    ?Subroutine0 & 0xFFFF
        CFI EndBlock cfiBlock6
        REQUIRE P0DIR
        REQUIRE _A_P0
//   79 
//   80 /*
//   81 ** return		0 - if the salve presence, or 1
//   82 */

        RSEG BANKED_CODE:CODE:NOROOT(0)
//   83 unsigned char oneWireCheck()
oneWireCheck:
        CFI Block cfiBlock7 Using cfiCommon0
        CFI Function oneWireCheck
        CODE
//   84 {
        FUNCALL oneWireCheck, ds_delay_us
        LOCFRAME ISTACK, 0, STACK
        LOCFRAME PSTACK, 0, STACK
        LOCFRAME XSTACK, 9, STACK
        LOCFRAME IOVERLAY, 0, STATIC
        LOCFRAME DOVERLAY, 0, STATIC
        ARGFRAME ISTACK, 0, STACK
        ARGFRAME PSTACK, 0, STACK
        ARGFRAME XSTACK, 9, STACK
        ARGFRAME IOVERLAY, 0, STATIC
        ARGFRAME DOVERLAY, 0, STATIC
        FUNCALL oneWireCheck, ds_delay_us
        LOCFRAME ISTACK, 0, STACK
        LOCFRAME PSTACK, 0, STACK
        LOCFRAME XSTACK, 9, STACK
        LOCFRAME IOVERLAY, 0, STATIC
        LOCFRAME DOVERLAY, 0, STATIC
        ARGFRAME ISTACK, 0, STACK
        ARGFRAME PSTACK, 0, STACK
        ARGFRAME XSTACK, 9, STACK
        ARGFRAME IOVERLAY, 0, STATIC
        ARGFRAME DOVERLAY, 0, STATIC
        MOV     A,#-0x9
        LCALL   ?BANKED_ENTER_XDATA
        CFI DPH0 load(1, XDATA, add(CFA_XSP16, literal(-1)))
        CFI DPL0 load(1, XDATA, add(CFA_XSP16, literal(-2)))
        CFI ?BRET_EXT load(1, XDATA, add(CFA_XSP16, literal(-3)))
        CFI ?RET_HIGH load(1, XDATA, add(CFA_XSP16, literal(-4)))
        CFI ?RET_LOW load(1, XDATA, add(CFA_XSP16, literal(-5)))
        CFI R7 load(1, XDATA, add(CFA_XSP16, literal(-6)))
        CFI V0 load(1, XDATA, add(CFA_XSP16, literal(-7)))
        CFI VB load(1, XDATA, add(CFA_XSP16, literal(-8)))
        CFI R6 load(1, XDATA, add(CFA_XSP16, literal(-9)))
        CFI CFA_SP SP+0
        CFI CFA_XSP16 add(XSP16, 9)
        ; Saved register size: 9
        ; Auto size: 0
//   85 	unsigned char isSlave;
//   86 	ds_delay_us(30);
        ; Setup parameters for call to function ds_delay_us
        MOV     R2,#0x1e
        MOV     R3,#0x0
        LCALL   ??ds_delay_us?relay
//   87 	isSlave = (unsigned char)readPin();
        MOV     A,0x80
        MOV     R6,A
//   88 	outputHigh();		// releases the bus.
        SETB    0x80.7
//   89 	ds_delay_us(100);
        ; Setup parameters for call to function ds_delay_us
        MOV     R2,#0x64
        MOV     R3,#0x0
        LCALL   ??ds_delay_us?relay
//   90 	return isSlave;
        MOV     A,R6
        MOV     C,0xE0 /* A   */.7
        CLR     A
        RLC     A
        CFI EndBlock cfiBlock7
        REQUIRE ?Subroutine1
        REQUIRE _A_P0
        ; // Fall through to label ?Subroutine1
//   91 }

        RSEG BANKED_CODE:CODE:NOROOT(0)
?Subroutine1:
        CFI Block cfiBlock8 Using cfiCommon0
        CFI NoFunction
        CFI CFA_SP SP+0
        CFI CFA_XSP16 add(XSP16, 9)
        CFI VB load(1, XDATA, add(CFA_XSP16, literal(-8)))
        CFI DPL0 load(1, XDATA, add(CFA_XSP16, literal(-2)))
        CFI DPH0 load(1, XDATA, add(CFA_XSP16, literal(-1)))
        CFI R6 load(1, XDATA, add(CFA_XSP16, literal(-9)))
        CFI R7 load(1, XDATA, add(CFA_XSP16, literal(-6)))
        CFI V0 load(1, XDATA, add(CFA_XSP16, literal(-7)))
        CFI ?BRET_EXT load(1, XDATA, add(CFA_XSP16, literal(-3)))
        CFI ?RET_HIGH load(1, XDATA, add(CFA_XSP16, literal(-4)))
        CFI ?RET_LOW load(1, XDATA, add(CFA_XSP16, literal(-5)))
        MOV     R1,A
        CFI EndBlock cfiBlock8
        REQUIRE ??Subroutine3_0
        ; // Fall through to label ??Subroutine3_0

        RSEG BANKED_CODE:CODE:NOROOT(0)
??Subroutine3_0:
        CFI Block cfiBlock9 Using cfiCommon0
        CFI NoFunction
        CFI CFA_SP SP+0
        CFI CFA_XSP16 add(XSP16, 9)
        CFI VB load(1, XDATA, add(CFA_XSP16, literal(-8)))
        CFI DPL0 load(1, XDATA, add(CFA_XSP16, literal(-2)))
        CFI DPH0 load(1, XDATA, add(CFA_XSP16, literal(-1)))
        CFI R6 load(1, XDATA, add(CFA_XSP16, literal(-9)))
        CFI R7 load(1, XDATA, add(CFA_XSP16, literal(-6)))
        CFI V0 load(1, XDATA, add(CFA_XSP16, literal(-7)))
        CFI ?BRET_EXT load(1, XDATA, add(CFA_XSP16, literal(-3)))
        CFI ?RET_HIGH load(1, XDATA, add(CFA_XSP16, literal(-4)))
        CFI ?RET_LOW load(1, XDATA, add(CFA_XSP16, literal(-5)))
        MOV     R7,#0x1
        LJMP    ?BANKED_LEAVE_XDATA
        CFI EndBlock cfiBlock9
//   92 

        RSEG BANKED_CODE:CODE:NOROOT(0)
//   93 void oneWireWrite(int data)
oneWireWrite:
        CFI Block cfiBlock10 Using cfiCommon0
        CFI Function oneWireWrite
        CODE
//   94 {
        FUNCALL oneWireWrite, ds_delay_us
        LOCFRAME ISTACK, 0, STACK
        LOCFRAME PSTACK, 0, STACK
        LOCFRAME XSTACK, 11, STACK
        LOCFRAME IOVERLAY, 0, STATIC
        LOCFRAME DOVERLAY, 0, STATIC
        ARGFRAME ISTACK, 0, STACK
        ARGFRAME PSTACK, 0, STACK
        ARGFRAME XSTACK, 11, STACK
        ARGFRAME IOVERLAY, 0, STATIC
        ARGFRAME DOVERLAY, 0, STATIC
        FUNCALL oneWireWrite, ds_delay_us
        LOCFRAME ISTACK, 0, STACK
        LOCFRAME PSTACK, 0, STACK
        LOCFRAME XSTACK, 11, STACK
        LOCFRAME IOVERLAY, 0, STATIC
        LOCFRAME DOVERLAY, 0, STATIC
        ARGFRAME ISTACK, 0, STACK
        ARGFRAME PSTACK, 0, STACK
        ARGFRAME XSTACK, 11, STACK
        ARGFRAME IOVERLAY, 0, STATIC
        ARGFRAME DOVERLAY, 0, STATIC
        FUNCALL oneWireWrite, ds_delay_us
        LOCFRAME ISTACK, 0, STACK
        LOCFRAME PSTACK, 0, STACK
        LOCFRAME XSTACK, 11, STACK
        LOCFRAME IOVERLAY, 0, STATIC
        LOCFRAME DOVERLAY, 0, STATIC
        ARGFRAME ISTACK, 0, STACK
        ARGFRAME PSTACK, 0, STACK
        ARGFRAME XSTACK, 11, STACK
        ARGFRAME IOVERLAY, 0, STATIC
        ARGFRAME DOVERLAY, 0, STATIC
        FUNCALL oneWireWrite, ds_delay_us
        LOCFRAME ISTACK, 0, STACK
        LOCFRAME PSTACK, 0, STACK
        LOCFRAME XSTACK, 11, STACK
        LOCFRAME IOVERLAY, 0, STATIC
        LOCFRAME DOVERLAY, 0, STATIC
        ARGFRAME ISTACK, 0, STACK
        ARGFRAME PSTACK, 0, STACK
        ARGFRAME XSTACK, 11, STACK
        ARGFRAME IOVERLAY, 0, STATIC
        ARGFRAME DOVERLAY, 0, STATIC
        MOV     A,#-0xb
        LCALL   ?BANKED_ENTER_XDATA
        CFI DPH0 load(1, XDATA, add(CFA_XSP16, literal(-1)))
        CFI DPL0 load(1, XDATA, add(CFA_XSP16, literal(-2)))
        CFI ?BRET_EXT load(1, XDATA, add(CFA_XSP16, literal(-3)))
        CFI ?RET_HIGH load(1, XDATA, add(CFA_XSP16, literal(-4)))
        CFI ?RET_LOW load(1, XDATA, add(CFA_XSP16, literal(-5)))
        CFI R7 load(1, XDATA, add(CFA_XSP16, literal(-6)))
        CFI V2 load(1, XDATA, add(CFA_XSP16, literal(-7)))
        CFI V1 load(1, XDATA, add(CFA_XSP16, literal(-8)))
        CFI V0 load(1, XDATA, add(CFA_XSP16, literal(-9)))
        CFI VB load(1, XDATA, add(CFA_XSP16, literal(-10)))
        CFI R6 load(1, XDATA, add(CFA_XSP16, literal(-11)))
        CFI CFA_SP SP+0
        CFI CFA_XSP16 add(XSP16, 11)
        ; Saved register size: 11
        ; Auto size: 0
        MOV     A,R2
        MOV     R6,A
        MOV     A,R3
        MOV     R7,A
//   95 	int count;
//   96 	
//   97 	for (count = 0; count < 8; count++)
        MOV     ?V0 + 2,#0x8
//   98 	{
//   99 		outputLow();
??oneWireWrite_0:
        CLR     0x80.7
//  100 		ds_delay_us(2);			// pull the 1-wire bus low to initiate write time-slot.
        ; Setup parameters for call to function ds_delay_us
        MOV     R2,#0x2
        MOV     R3,#0x0
        LCALL   ??ds_delay_us?relay
//  101 		if ( data & 0x01 )
        MOV     A,R6
        MOV     C,0xE0 /* A   */.0
        JNC     ??oneWireWrite_1
//  102 			outputHigh();	// releases the bus for write 1 to the Slave.
        SETB    0x80.7
//  103 		ds_delay_us(30);			// wait until end of write slot.
??oneWireWrite_1:
        ; Setup parameters for call to function ds_delay_us
        MOV     R2,#0x1e
        MOV     R3,#0x0
        LCALL   ??ds_delay_us?relay
//  104 		outputHigh();		// set the 1-wire bus high again for releases the bus.		
        SETB    0x80.7
//  105 		ds_delay_us(2);			// for more than 1us minimum.
        ; Setup parameters for call to function ds_delay_us
        MOV     R2,#0x2
        MOV     R3,#0x0
        LCALL   ??ds_delay_us?relay
//  106 		data >>= 1;
        MOV     ?V0 + 0,R6
        MOV     ?V0 + 1,R7
        MOV     A,#0x1
        MOV     R0,#?V0 + 0
        LCALL   ?SS_SHR
        MOV     R6,?V0 + 0
        MOV     R7,?V0 + 1
//  107 	}
        DEC     ?V0 + 2
        MOV     A,?V0 + 2
        JNZ     ??oneWireWrite_0
//  108 	ds_delay_us(5);
        ; Setup parameters for call to function ds_delay_us
        MOV     R2,#0x5
        MOV     R3,#0x0
        LCALL   ??ds_delay_us?relay
//  109 }
        MOV     R7,#0x3
        LJMP    ?BANKED_LEAVE_XDATA
        CFI EndBlock cfiBlock10
        REQUIRE _A_P0
//  110 
//  111 

        RSEG BANKED_CODE:CODE:NOROOT(0)
//  112 unsigned char oneWireRead()
oneWireRead:
        CFI Block cfiBlock11 Using cfiCommon0
        CFI Function oneWireRead
        CODE
//  113 {
        FUNCALL oneWireRead, ds_delay_us
        LOCFRAME ISTACK, 0, STACK
        LOCFRAME PSTACK, 0, STACK
        LOCFRAME XSTACK, 9, STACK
        LOCFRAME IOVERLAY, 0, STATIC
        LOCFRAME DOVERLAY, 0, STATIC
        ARGFRAME ISTACK, 0, STACK
        ARGFRAME PSTACK, 0, STACK
        ARGFRAME XSTACK, 9, STACK
        ARGFRAME IOVERLAY, 0, STATIC
        ARGFRAME DOVERLAY, 0, STATIC
        FUNCALL oneWireRead, ds_delay_us
        LOCFRAME ISTACK, 0, STACK
        LOCFRAME PSTACK, 0, STACK
        LOCFRAME XSTACK, 9, STACK
        LOCFRAME IOVERLAY, 0, STATIC
        LOCFRAME DOVERLAY, 0, STATIC
        ARGFRAME ISTACK, 0, STACK
        ARGFRAME PSTACK, 0, STACK
        ARGFRAME XSTACK, 9, STACK
        ARGFRAME IOVERLAY, 0, STATIC
        ARGFRAME DOVERLAY, 0, STATIC
        FUNCALL oneWireRead, ds_delay_us
        LOCFRAME ISTACK, 0, STACK
        LOCFRAME PSTACK, 0, STACK
        LOCFRAME XSTACK, 9, STACK
        LOCFRAME IOVERLAY, 0, STATIC
        LOCFRAME DOVERLAY, 0, STATIC
        ARGFRAME ISTACK, 0, STACK
        ARGFRAME PSTACK, 0, STACK
        ARGFRAME XSTACK, 9, STACK
        ARGFRAME IOVERLAY, 0, STATIC
        ARGFRAME DOVERLAY, 0, STATIC
        MOV     A,#-0x9
        LCALL   ?BANKED_ENTER_XDATA
        CFI DPH0 load(1, XDATA, add(CFA_XSP16, literal(-1)))
        CFI DPL0 load(1, XDATA, add(CFA_XSP16, literal(-2)))
        CFI ?BRET_EXT load(1, XDATA, add(CFA_XSP16, literal(-3)))
        CFI ?RET_HIGH load(1, XDATA, add(CFA_XSP16, literal(-4)))
        CFI ?RET_LOW load(1, XDATA, add(CFA_XSP16, literal(-5)))
        CFI R7 load(1, XDATA, add(CFA_XSP16, literal(-6)))
        CFI V0 load(1, XDATA, add(CFA_XSP16, literal(-7)))
        CFI VB load(1, XDATA, add(CFA_XSP16, literal(-8)))
        CFI R6 load(1, XDATA, add(CFA_XSP16, literal(-9)))
        CFI CFA_SP SP+0
        CFI CFA_XSP16 add(XSP16, 9)
        ; Saved register size: 9
        ; Auto size: 0
//  114 	int count;
//  115 	unsigned char data = 0;
        MOV     R6,#0x0
//  116 	
//  117 	for (count = 0; count < 8; count++)
        MOV     R7,#0x8
//  118 	{		
//  119 		outputLow();
??oneWireRead_0:
        CLR     0x80.7
//  120 		ds_delay_us(2);			// pull the 1-wire bus low to initiate read time-slot.
        ; Setup parameters for call to function ds_delay_us
        MOV     R2,#0x2
        MOV     R3,#0x0
        LCALL   ??ds_delay_us?relay
//  121 		outputHigh();			// now let the 1-wire bus high for sample data of the Slave.
        SETB    0x80.7
//  122 		ds_delay_us(8);			// let device state stabilise.
        ; Setup parameters for call to function ds_delay_us
        MOV     R2,#0x8
        MOV     R3,#0x0
        LCALL   ??ds_delay_us?relay
//  123 		data >>= 1;				// LSB first.
        MOV     A,R6
        CLR     C
        RRC     A
        MOV     R6,A
//  124 		if ( readPin() == 1 )
        MOV     C,0x80.7
        JNC     ??oneWireRead_1
//  125 			data |= 0x80;
        SETB    0xE0 /* A   */.7
        MOV     R6,A
//  126 		ds_delay_us(60);			// wait until end of read slot.
??oneWireRead_1:
        ; Setup parameters for call to function ds_delay_us
        MOV     R2,#0x3c
        MOV     R3,#0x0
        LCALL   ??ds_delay_us?relay
//  127 		//data >>= 1;			// error		
//  128 	}
        DEC     R7
        MOV     A,R7
        JNZ     ??oneWireRead_0
//  129 	
//  130 	return data;
        MOV     A,R6
        LJMP    ?Subroutine1 & 0xFFFF
        CFI EndBlock cfiBlock11
        REQUIRE _A_P0
//  131 }
//  132 
//  133 
//  134 
//  135 // 微妙延时

        RSEG BANKED_CODE:CODE:NOROOT(0)
//  136 void ds_delay_us(unsigned int us)
ds_delay_us:
        CFI Block cfiBlock12 Using cfiCommon0
        CFI Function ds_delay_us
        CODE
//  137 {
        ; Saved register size: 0
        ; Auto size: 0
        SJMP    ??ds_delay_us_0
//  138 	while ( us-- )
//  139 	{
//  140 			asm("NOP");
??ds_delay_us_1:
        NOP
//  141 			asm("NOP");
        NOP
//  142 			asm("NOP");
        NOP
//  143 			asm("NOP");
        NOP
//  144 	}
??ds_delay_us_0:
        MOV     A,R2
        MOV     R0,A
        MOV     A,R3
        MOV     R1,A
        MOV     A,R0
        ADD     A,#-0x1
        DEC     R2
        MOV     A,R1
        ADDC    A,#-0x1
        MOV     R3,A
        MOV     A,R0
        ORL     A,R1
        JNZ     ??ds_delay_us_1
//  145 }
        LJMP    ?BRET
        CFI EndBlock cfiBlock12
//  146 
//  147 // 毫秒延时

        RSEG BANKED_CODE:CODE:NOROOT(0)
//  148 void ds_delay_ms(unsigned int ms)
ds_delay_ms:
        CFI Block cfiBlock13 Using cfiCommon0
        CFI Function ds_delay_ms
        CODE
//  149 {
        FUNCALL ds_delay_ms, ds_delay_us
        LOCFRAME ISTACK, 0, STACK
        LOCFRAME PSTACK, 0, STACK
        LOCFRAME XSTACK, 9, STACK
        LOCFRAME IOVERLAY, 0, STATIC
        LOCFRAME DOVERLAY, 0, STATIC
        ARGFRAME ISTACK, 0, STACK
        ARGFRAME PSTACK, 0, STACK
        ARGFRAME XSTACK, 9, STACK
        ARGFRAME IOVERLAY, 0, STATIC
        ARGFRAME DOVERLAY, 0, STATIC
        MOV     A,#-0x9
        LCALL   ?BANKED_ENTER_XDATA
        CFI DPH0 load(1, XDATA, add(CFA_XSP16, literal(-1)))
        CFI DPL0 load(1, XDATA, add(CFA_XSP16, literal(-2)))
        CFI ?BRET_EXT load(1, XDATA, add(CFA_XSP16, literal(-3)))
        CFI ?RET_HIGH load(1, XDATA, add(CFA_XSP16, literal(-4)))
        CFI ?RET_LOW load(1, XDATA, add(CFA_XSP16, literal(-5)))
        CFI R7 load(1, XDATA, add(CFA_XSP16, literal(-6)))
        CFI V0 load(1, XDATA, add(CFA_XSP16, literal(-7)))
        CFI VB load(1, XDATA, add(CFA_XSP16, literal(-8)))
        CFI R6 load(1, XDATA, add(CFA_XSP16, literal(-9)))
        CFI CFA_SP SP+0
        CFI CFA_XSP16 add(XSP16, 9)
        ; Saved register size: 9
        ; Auto size: 0
        MOV     A,R2
        MOV     R6,A
        MOV     A,R3
        MOV     R7,A
        SJMP    ??ds_delay_ms_0
//  150 	while ( ms-- )
//  151 	{
//  152 		ds_delay_us(1000);
??ds_delay_ms_1:
        ; Setup parameters for call to function ds_delay_us
        MOV     R2,#-0x18
        MOV     R3,#0x3
        LCALL   ??ds_delay_us?relay
//  153 	}
??ds_delay_ms_0:
        MOV     A,R6
        MOV     R0,A
        MOV     A,R7
        MOV     R1,A
        MOV     A,R0
        ADD     A,#-0x1
        DEC     R6
        MOV     A,R1
        ADDC    A,#-0x1
        MOV     R7,A
        MOV     A,R0
        ORL     A,R1
        JNZ     ??ds_delay_ms_1
//  154 }
        LJMP    ??Subroutine3_0 & 0xFFFF
        CFI EndBlock cfiBlock13

        RSEG XDATA_ID:CODE:NOROOT(0)
`?<Initializer for initFalg>`:
        DATA8
        DB 1

        RSEG XDATA_ROM_C:CONST:REORDER:NOROOT(0)
        DATA32
__Constant_3d800000:
        DD 3D800000H

        RSEG BANK_RELAYS:CODE:REORDER:NOROOT(0)
??dsInit?relay:
        LCALL   ?BDISPATCH
        DATA
        DC24    dsInit

        RSEG BANK_RELAYS:CODE:REORDER:NOROOT(0)
??dsReadT?relay:
        LCALL   ?BDISPATCH
        DATA
        DC24    dsReadT

        RSEG BANK_RELAYS:CODE:REORDER:NOROOT(0)
??oneWireReset?relay:
        LCALL   ?BDISPATCH
        DATA
        DC24    oneWireReset

        RSEG BANK_RELAYS:CODE:REORDER:NOROOT(0)
??oneWireCheck?relay:
        LCALL   ?BDISPATCH
        DATA
        DC24    oneWireCheck

        RSEG BANK_RELAYS:CODE:REORDER:NOROOT(0)
??oneWireWrite?relay:
        LCALL   ?BDISPATCH
        DATA
        DC24    oneWireWrite

        RSEG BANK_RELAYS:CODE:REORDER:NOROOT(0)
??oneWireRead?relay:
        LCALL   ?BDISPATCH
        DATA
        DC24    oneWireRead

        RSEG BANK_RELAYS:CODE:REORDER:NOROOT(0)
??ds_delay_us?relay:
        LCALL   ?BDISPATCH
        DATA
        DC24    ds_delay_us

        RSEG BANK_RELAYS:CODE:REORDER:NOROOT(0)
??ds_delay_ms?relay:
        LCALL   ?BDISPATCH
        DATA
        DC24    ds_delay_ms

        END
//  155 
// 
// 452 bytes in segment BANKED_CODE
//  48 bytes in segment BANK_RELAYS
//   5 bytes in segment SFR_AN
//   1 byte  in segment XDATA_I
//   1 byte  in segment XDATA_ID
//   4 bytes in segment XDATA_ROM_C
// 
// 501 bytes of CODE  memory
//   0 bytes of CONST memory (+ 4 bytes shared)
//   0 bytes of DATA  memory (+ 5 bytes shared)
//   1 byte  of XDATA memory
//
//Errors: none
//Warnings: none
